 ConEmu64

 Timestamp is 5998bbb5 (Sun Aug 20 01:29:09 2017)

 Preferred load address is 0000000140000000

 Start         Length     Name                   Class
 0001:00000000 000000f0H .text$di                CODE
 0001:000000f0 001a1f20H .text$mn                CODE
 0001:001a2010 00000020H .text$mn$00             CODE
 0001:001a2030 000024e0H .text$x                 CODE
 0001:001a4510 00000283H .text$yd                CODE
 0002:00000000 00000fd8H .idata$5                DATA
 0002:00000fd8 00000010H .00cfg                  DATA
 0002:00000fe8 00000008H .CRT$XCA                DATA
 0002:00000ff0 00000008H .CRT$XCAA               DATA
 0002:00000ff8 00000048H .CRT$XCU                DATA
 0002:00001040 00000008H .CRT$XCZ                DATA
 0002:00001048 00000008H .CRT$XIA                DATA
 0002:00001050 00000008H .CRT$XIAA               DATA
 0002:00001058 00000008H .CRT$XIAC               DATA
 0002:00001060 00000020H .CRT$XIC                DATA
 0002:00001080 00000008H .CRT$XIZ                DATA
 0002:00001088 00000008H .CRT$XLA                DATA
 0002:00001090 00000008H .CRT$XLZ                DATA
 0002:00001098 00000008H .CRT$XPA                DATA
 0002:000010a0 00000010H .CRT$XPX                DATA
 0002:000010b0 00000008H .CRT$XPXA               DATA
 0002:000010b8 00000008H .CRT$XPZ                DATA
 0002:000010c0 00000008H .CRT$XTA                DATA
 0002:000010c8 00000008H .CRT$XTZ                DATA
 0002:000010d0 00000000H .gfids$x                DATA
 0002:000010d0 00000000H .gfids$y                DATA
 0002:000010d0 00067dc0H .rdata                  DATA
 0002:00068e90 00000030H .rdata$T                DATA
 0002:00068ec0 00004054H .rdata$r                DATA
 0002:0006cf14 000003ecH .rdata$zzzdbg           DATA
 0002:0006d300 00000008H .rtc$IAA                DATA
 0002:0006d308 00000008H .rtc$IZZ                DATA
 0002:0006d310 00000008H .rtc$TAA                DATA
 0002:0006d318 00000008H .rtc$TZZ                DATA
 0002:0006d320 0001ea68H .xdata                  DATA
 0002:0008bd88 00000264H .xdata$x                DATA
 0002:0008bfec 00000000H .edata                  DATA
 0002:0008bfec 00000104H .idata$2                DATA
 0002:0008c0f0 00000018H .idata$3                DATA
 0002:0008c108 00000fd8H .idata$4                DATA
 0002:0008d0e0 00002308H .idata$6                DATA
 0003:00000000 00004c30H .data                   DATA
 0003:00004c30 00001320H .data$r                 DATA
 0003:00005f50 00046834H .bss                    DATA
 0004:00000000 0001095cH .pdata                  DATA
 0005:00000000 00000004H .tls                    DATA
 0005:00000004 00000004H .tls$                   DATA
 0005:00000008 00000001H .tls$ZZZ                DATA
 0006:00000000 000011c0H .rsrc$01                DATA
 0006:000011c0 000454d0H .rsrc$02                DATA

  Address         Publics by Value              Rva+Base               Lib:Object

 0000:00000000       __guard_iat_table          0000000000000000     <absolute>
 0000:00000000       __guard_longjmp_table      0000000000000000     <absolute>
 0000:00000000       __dynamic_value_reloc_table 0000000000000000     <absolute>
 0000:00000000       __guard_longjmp_count      0000000000000000     <absolute>
 0000:00000000       __guard_iat_count          0000000000000000     <absolute>
 0000:00000000       __guard_fids_count         0000000000000000     <absolute>
 0000:00000000       ___safe_se_handler_table   0000000000000000     <absolute>
 0000:00000000       ___safe_se_handler_count   0000000000000000     <absolute>
 0000:00000000       __guard_fids_table         0000000000000000     <absolute>
 0000:00000100       __guard_flags              0000000000000100     <absolute>
 0000:00000000       __ImageBase                0000000140000000     <linker-defined>
 0001:000000f0       ?StringCchCopyNW@@YAJPEA_W_KPEB_W1@Z 00000001400010f0 f i CEStr.obj
 0001:00000180       ??1CEStr@@QEAA@XZ          0000000140001180 f   CEStr.obj
 0001:00000200       ?GetBuffer@CEStr@@QEAAPEA_W_J@Z 0000000140001200 f   CEStr.obj
 0001:000002f0       ?Clear@CEStr@@QEAAXXZ      00000001400012f0 f   CEStr.obj
 0001:00000360       ?AttachInt@CEStr@@AEAAPEB_WAEAPEA_W@Z 0000000140001360 f   CEStr.obj
 0001:00000420       ?IsPossibleSwitch@CEStr@@QEBA_NXZ 0000000140001420 f   CEStr.obj
 0001:000004b0       ?CompareSwitch@CEStr@@AEBA_NPEB_W@Z 00000001400014b0 f   CEStr.obj
 0001:00000570       ?Set@CEStr@@QEAAPEB_WPEB_W_J@Z 0000000140001570 f   CEStr.obj
 0001:000006a0       ??1MWow64Disable@@QEAA@XZ  00000001400016a0 f i CmdLine.obj
 0001:000006d0       ?IsNeedDequote@@YA_NPEB_W_NPEAPEB_W@Z 00000001400016d0 f   CmdLine.obj
 0001:00000890       ?NextArg@@YAHPEAPEB_WAEAUCEStr@@0@Z 0000000140001890 f   CmdLine.obj
 0001:00000cb0       ?SkipNonPrintable@@YAPEB_WPEB_W@Z 0000000140001cb0 f   CmdLine.obj
 0001:00000ce0       ?CompareFileMask@@YA_NPEB_W0@Z 0000000140001ce0 f   CmdLine.obj
 0001:00000eb0       ?GetDrive@@YAPEB_WPEB_WPEA_WH@Z 0000000140001eb0 f   CmdLine.obj
 0001:00000fb0       ?IsNeedCmd@@YA_NHPEB_WAEAUCEStr@@PEAPEB_WPEAH333@Z 0000000140001fb0 f   CmdLine.obj
 0001:000016d0       ?IsExecutable@@YA_NPEB_WPEAPEA_W@Z 00000001400026d0 f   CmdLine.obj
 0001:00001810       ?CompareProcessNames@@YA_NPEB_W0@Z 0000000140002810 f   CmdLine.obj
 0001:00001b60       ?CheckProcessName@@YA_NPEB_WPEAPEB_W@Z 0000000140002b60 f   CmdLine.obj
 0001:00001dc0       ?IsConEmuGui@@YA_NPEB_W@Z  0000000140002dc0 f   CmdLine.obj
 0001:00001e10       ?IsConsoleServer@@YA_NPEB_W@Z 0000000140002e10 f   CmdLine.obj
 0001:00001e60       ?IsTerminalServer@@YA_NPEB_W@Z 0000000140002e60 f   CmdLine.obj
 0001:00001ed0       ?IsGitBashHelper@@YA_NPEB_W@Z 0000000140002ed0 f   CmdLine.obj
 0001:00001f20       ?IsConsoleHelper@@YA_NPEB_W@Z 0000000140002f20 f   CmdLine.obj
 0001:00001fa0       ?IsFarExe@@YA_NPEB_W@Z     0000000140002fa0 f   CmdLine.obj
 0001:00001ff0       ?MergeCmdLine@@YAPEA_WPEB_W0@Z 0000000140002ff0 f   CmdLine.obj
 0001:000020a0       ?JoinPath@@YAPEA_WPEB_W00@Z 00000001400030a0 f   CmdLine.obj
 0001:00002150       ?IsFilePath@@YA_NPEB_W_N@Z 0000000140003150 f   CmdLine.obj
 0001:000022a0       ?PointToName@@YAPEB_WPEB_W@Z 00000001400032a0 f   CmdLine.obj
 0001:00002300       ?PointToExt@@YAPEB_WPEB_W@Z 0000000140003300 f   CmdLine.obj
 0001:00002370       ?Unquote@@YAPEB_WPEA_W_N@Z 0000000140003370 f   CmdLine.obj
 0001:000023e0       ?Mangle@STRPTR2@@QEAAPEAEPEAE@Z 00000001400033e0 f   Common.obj
 0001:00002480       ?PackInputRecord@@YAHPEBU_INPUT_RECORD@@PEAUMsgStr@MSG64@@@Z 0000000140003480 f   Common.obj
 0001:000025e0       ?TranslateKeyPress@@YAXGK_WHPEAU_INPUT_RECORD@@1@Z 00000001400035e0 f   Common.obj
 0001:00002770       ?StringCchCopyW@@YAJPEA_W_KPEB_W@Z 0000000140003770 f i ConEmuCheck.obj
 0001:000027f0       ?ModuleName@@YAPEB_WPEB_W@Z 00000001400037f0 f   ConEmuCheck.obj
 0001:00002920       ?ExecuteOpenPipe@@YAPEAXPEB_WAEAY0CAI@_W0KKHPEAXH@Z 0000000140003920 f   ConEmuCheck.obj
 0001:00002af0       ?ExecutePrepareCmd@@YAXPEAUCESERVER_REQ_HDR@@K_K@Z 0000000140003af0 f   ConEmuCheck.obj
 0001:00002b70       ?ExecuteNewCmd@@YAPEAUCESERVER_REQ@@K_K@Z 0000000140003b70 f   ConEmuCheck.obj
 0001:00002cc0       ?ExecuteNewCmd@@YA_NAEAPEAUCESERVER_REQ@@AEAKK_K@Z 0000000140003cc0 f   ConEmuCheck.obj
 0001:00002da0       ?LoadSrvMapping@@YAHPEAUHWND__@@AEAUCESERVER_CONSOLE_MAPPING_HDR@@@Z 0000000140003da0 f   ConEmuCheck.obj
 0001:00002f00       ?ExecuteGuiCmd@@YAPEAUCESERVER_REQ@@PEAUHWND__@@PEAU1@0H@Z 0000000140003f00 f   ConEmuCheck.obj
 0001:00002fc0       ?ExecuteSrvCmd@@YAPEAUCESERVER_REQ@@KPEAU1@PEAUHWND__@@HKH@Z 0000000140003fc0 f   ConEmuCheck.obj
 0001:00003060       ?ExecuteHkCmd@@YAPEAUCESERVER_REQ@@KPEAU1@PEAUHWND__@@HH@Z 0000000140004060 f   ConEmuCheck.obj
 0001:00003110       ?ExecuteCmd@@YAPEAUCESERVER_REQ@@PEB_WPEAU1@KPEAUHWND__@@HKH@Z 0000000140004110 f   ConEmuCheck.obj
 0001:00003320       ?isConsoleWindow@@YA_NPEAUHWND__@@@Z 0000000140004320 f   ConEmuCheck.obj
 0001:00003470       ?myGetConsoleWindow@@YAPEAUHWND__@@XZ 0000000140004470 f   ConEmuCheck.obj
 0001:00003510       ??1?$MFileMapping@UPanelViewSetMapping@@@@QEAA@XZ 0000000140004510 f i OptionsClass.obj
 0001:00003510       ??1?$MFileMapping@UCESERVER_CONSAVE_MAPHDR@@@@QEAA@XZ 0000000140004510 f i RealBuffer.obj
 0001:00003510       ??1?$MFileMapping@UCESERVER_CONSAVE_MAP@@@@QEAA@XZ 0000000140004510 f i RealBuffer.obj
 0001:00003510       ??1?$MFileMapping@UCESERVER_CONSOLE_MAPPING_HDR@@@@QEAA@XZ 0000000140004510 f i ConEmuCheck.obj
 0001:00003510       ??1?$MFileMapping@Utag_DetectedDialog@@@@QEAA@XZ 0000000140004510 f i VirtualConsole.obj
 0001:00003510       ??1?$MFileMapping@UConEmuGuiMapping@@@@QEAA@XZ 0000000140004510 f i ConEmuCheck.obj
 0001:00003570       ?InitName@?$MFileMapping@UConEmuGuiMapping@@@@QEAAPEB_WPEB_WKK@Z 0000000140004570 f i ConEmuCheck.obj
 0001:00003600       ?InitName@?$MFileMapping@UCESERVER_CONSOLE_MAPPING_HDR@@@@QEAAPEB_WPEB_WKK@Z 0000000140004600 f i ConEmuCheck.obj
 0001:00003690       ?InternalOpenCreate@?$MFileMapping@UConEmuGuiMapping@@@@IEAAPEAUConEmuGuiMapping@@HHH@Z 0000000140004690 f i ConEmuCheck.obj
 0001:00003860       ?InternalOpenCreate@?$MFileMapping@UCESERVER_CONSOLE_MAPPING_HDR@@@@IEAAPEAUCESERVER_CONSOLE_MAPPING_HDR@@HHH@Z 0000000140004860 f i ConEmuCheck.obj
 0001:000039d0       ??$wcscpy_c@$0CA@@@YAHAEAY0CA@_WPEB_W@Z 00000001400049d0 f i ConEmuCheck.obj
 0001:00003a30       ?IsFileBatch@@YA_NPEB_W@Z  0000000140004a30 f   execute.obj
 0001:00003ae0       ?GetImageSubsystem@@YA_NPEB_WAEAK11@Z 0000000140004ae0 f   execute.obj
 0001:00003e00       ?StringCchCatW@@YAJPEA_W_KPEB_W@Z 0000000140004e00 f i MFileLogEx.obj
 0001:00003ee0       ?ToString@LoadStartupEnvEx@@SAXPEAUCEStartupEnv@@P6AXPEB_W_J_N3@Z2@Z 0000000140004ee0 f i MFileLogEx.obj
 0001:00004ea0       ??_GMFileLogEx@@UEAAPEAXI@Z 0000000140005ea0 f i MFileLogEx.obj
 0001:00004ea0       ??_EMFileLogEx@@UEAAPEAXI@Z 0000000140005ea0 f i * CIL library *:* CIL module *
 0001:00004ee0       ?LogStartEnvInt@MFileLogEx@@KAXPEB_W_J_N2@Z 0000000140005ee0 f   MFileLogEx.obj
 0001:00004f00       ?CreateRootInfoXml@@YAPEB_WPEB_WPEAUCESERVER_ROOT_INFO@@AEAUCEStr@@@Z 0000000140005f00 f   MGuiMacro.obj
 0001:00005680       ?Init@HkFunc@@QEAA_NPEB_WPEAUHINSTANCE__@@@Z 0000000140006680 f   HkFunc.obj
 0001:00005720       ??1MBSTR@@QEAA@XZ          0000000140006720 f   MBSTR.obj
 0001:00006220       ?MD5_Update@@YAXPEAUMD5_CTX@@PEBXK@Z 0000000140007220 f   md5.obj
 0001:000062f0       ?MD5_Final@@YAXPEAEPEAUMD5_CTX@@@Z 00000001400072f0 f   md5.obj
 0001:00006450       ?xf_set_tag@@YAXPEAXPEBDH_N@Z 0000000140007450 f   Memory.obj
 0001:00006500       ?xf_malloc@@YAPEAX_KPEBDH@Z 0000000140007500 f   Memory.obj
 0001:00006590       ?xf_calloc@@YAPEAX_K0PEBDH@Z 0000000140007590 f   Memory.obj
 0001:00006620       ?xf_realloc@@YAPEAXPEAX_KPEBDH@Z 0000000140007620 f   Memory.obj
 0001:000066f0       ??2@YAPEAX_K@Z             00000001400076f0 f   Memory.obj
 0001:000067f0       ??_U@YAPEAX_K@Z            00000001400077f0 f   Memory.obj
 0001:000068e0       ??3@YAXPEAX@Z              00000001400078e0 f   Memory.obj
 0001:000068e0       ??_V@YAXPEAX@Z             00000001400078e0 f   Memory.obj
 0001:00006930       ?InitName@MEvent@@QEAAXPEB_WK@Z 0000000140007930 f   MEvent.obj
 0001:000069c0       ?Create@MEvent@@QEAAPEAXPEAU_SECURITY_ATTRIBUTES@@_N1PEB_W@Z 00000001400079c0 f   MEvent.obj
 0001:00006a50       ?Reset@MEvent@@QEAA_NXZ    0000000140007a50 f   MEvent.obj
 0001:00006a90       ?Wait@MEvent@@QEAAKKH@Z    0000000140007a90 f   MEvent.obj
 0001:00006b40       ??0MFileLog@@QEAA@PEB_W0K@Z 0000000140007b40 f   MFileLog.obj
 0001:00006c00       ??_GMFileLog@@UEAAPEAXI@Z  0000000140007c00 f i MFileLog.obj
 0001:00006c00       ??_EMFileLog@@UEAAPEAXI@Z  0000000140007c00 f i * CIL library *:* CIL module *
 0001:00006c40       ?InitFileName@MFileLog@@IEAAJPEB_WK@Z 0000000140007c40 f   MFileLog.obj
 0001:00006d90       ??1MFileLog@@UEAA@XZ       0000000140007d90 f   MFileLog.obj
 0001:00006e40       ?CloseLogFile@MFileLog@@QEAAXXZ 0000000140007e40 f   MFileLog.obj
 0001:00006f10       ?CreateLogFile@MFileLog@@QEAAJPEB_WKK@Z 0000000140007f10 f   MFileLog.obj
 0001:00007460       ?LogString@MFileLog@@QEAAXPEBD_N01I@Z 0000000140008460 f   MFileLog.obj
 0001:000075f0       ?LogString@MFileLog@@QEAAXPEB_W_N01@Z 00000001400085f0 f   MFileLog.obj
 0001:00007940       ??$SafeDelete@UMSectionSimple@@@@YAXAEAPEAUMSectionSimple@@@Z 0000000140008940 f i MFileLog.obj
 0001:000079b0       __local_stdio_printf_options 00000001400089b0 f i MJsonReader.obj
 0001:000079c0       sprintf                    00000001400089c0 f i MJsonReader.obj
 0001:00007e30       json_parse_ex              0000000140008e30 f   MJsonReader.obj
 0001:000090a0       json_value_free            000000014000a0a0 f   MJsonReader.obj
 0001:00009150       ?FreeData@MJsonValue@@AEAAXXZ 000000014000a150 f   MJsonReader.obj
 0001:000091d0       ?ParseJson@MJsonValue@@QEAA_NPEB_W@Z 000000014000a1d0 f   MJsonReader.obj
 0001:00009330       ??1MModule@@QEAA@XZ        000000014000a330 f   MModule.obj
 0001:00009380       ?GetStartupMonitor@@YAPEAUHMONITOR__@@XZ 000000014000a380 f   Monitors.obj
 0001:000094a0       ?MonitorFromParam@@YAPEAUHMONITOR__@@PEB_W@Z 000000014000a4a0 f   Monitors.obj
 0001:00009670       ?FindPrimaryMonitor@@YAHPEAUHMONITOR__@@PEAUHDC__@@PEAUtagRECT@@_J@Z 000000014000a670 f   Monitors.obj
 0001:00009710       ?GetPrimaryMonitorInfo@@YAPEAUHMONITOR__@@PEAUtagMONITORINFO@@@Z 000000014000a710 f   Monitors.obj
 0001:000097f0       ?GetNearestMonitorInfo@@YAPEAUHMONITOR__@@PEAUtagMONITORINFO@@PEAU1@PEBUtagRECT@@PEAUHWND__@@@Z 000000014000a7f0 f   Monitors.obj
 0001:000098f0       ?EnumAllMonitors@@YAHPEAUHMONITOR__@@PEAUHDC__@@PEAUtagRECT@@_J@Z 000000014000a8f0 f   Monitors.obj
 0001:000099c0       ?MonitorSortCallback@@YAHAEAU_FindAllMonitorsItem@@0@Z 000000014000a9c0 f   Monitors.obj
 0001:000099f0       ?GetNextMonitorInfo@@YAPEAUHMONITOR__@@PEAUtagMONITORINFO@@PEBUtagRECT@@_N@Z 000000014000a9f0 f   Monitors.obj
 0001:00009be0       ??1?$MArray@USshAgent@CConEmuMain@@@@QEAA@XZ 000000014000abe0 f i ConEmu.obj
 0001:00009be0       ??1?$MArray@PEAVCFont@@@@QEAA@XZ 000000014000abe0 f i FontMgr.obj
 0001:00009be0       ??1?$MArray@PEAVCVConGroup@@@@QEAA@XZ 000000014000abe0 f i VConGroup.obj
 0001:00009be0       ??1_FindAllMonitors@@QEAA@XZ 000000014000abe0 f i Monitors.obj
 0001:00009be0       ??1?$MArray@UAttachParm@@@@QEAA@XZ 000000014000abe0 f i Attach.obj
 0001:00009be0       ??1?$MArray@PEAUHWND__@@@@QEAA@XZ 000000014000abe0 f i ConEmu.obj
 0001:00009be0       ??1?$MArray@PEA_W@@QEAA@XZ 000000014000abe0 f i CmdHistory.obj
 0001:00009be0       ??1?$MArray@PEAVCVConGuard@@@@QEAA@XZ 000000014000abe0 f i Macro.obj
 0001:00009bf0       ?FindTaskbarWindow@@YAPEAUHWND__@@PEAUtagRECT@@@Z 000000014000abf0 f   Monitors.obj
 0001:00009c90       ?IsTaskbarAutoHidden@@YA_NPEAUtagRECT@@PEAI@Z 000000014000ac90 f   Monitors.obj
 0001:00009d80       ?sort@?$MArray@U_FindAllMonitorsItem@@@@QEAAXP6AHAEAU_FindAllMonitorsItem@@0@Z@Z 000000014000ad80 f i Monitors.obj
 0001:00009ec0       ?addsize@?$MArray@U_FindAllMonitorsItem@@@@QEAAX_J@Z 000000014000aec0 f i Monitors.obj
 0001:00009ec0       ?addsize@?$MArray@UMonitorInfoCache@CConEmuSize@@@@QEAAX_J@Z 000000014000aec0 f i ConEmuSize.obj
 0001:00009ec0       ?addsize@?$MArray@UConProcess@@@@QEAAX_J@Z 000000014000aec0 f i RealConsole.obj
 0001:00009ec0       ?addsize@?$MArray@UtagPROCESSENTRY32W@@@@QEAAX_J@Z 000000014000aec0 f i MProcess.obj
 0001:00009ec0       ?addsize@?$MArray@PEAUCommand@CProcessEnvCmd@@@@QEAAX_J@Z 000000014000aec0 f i ProcessSetEnv.obj
 0001:00009fc0       ?clear@?$MArray@UProcessInfo@CDefTermBase@@@@QEAAXXZ 000000014000afc0 f i DefaultTerm.obj
 0001:00009fc0       ?clear@?$MArray@PEAUHWND__@@@@QEAAXXZ 000000014000afc0 f i ConEmu.obj
 0001:00009fc0       ?clear@?$MArray@UHighlightRect@CVirtualConsole@@@@QEAAXXZ 000000014000afc0 f i VirtualConsole.obj
 0001:00009fc0       ?clear@?$MArray@PEAUSwitch@@@@QEAAXXZ 000000014000afc0 f i SetPgIntegr.obj
 0001:00009fc0       ?clear@?$MArray@PEAVCVConGroup@@@@QEAAXXZ 000000014000afc0 f i VConGroup.obj
 0001:00009fc0       ?clear@?$MArray@UVarDef@CVarDefs@@@@QEAAXXZ 000000014000afc0 f i OptionsFast.obj
 0001:00009fc0       ?clear@?$MArray@UItemInfo@CDynDialog@@@@QEAAXXZ 000000014000afc0 f i DynDialog.obj
 0001:00009fc0       ?clear@?$MArray@URunQueueItem@CRunQueue@@@@QEAAXXZ 000000014000afc0 f i RunQueue.obj
 0001:00009fc0       ?clear@?$MArray@PEAUtag_CEDragSource@CDragDropData@@@@QEAAXXZ 000000014000afc0 f i DragDropData.obj
 0001:00009fc0       ?clear@?$MArray@UThreadHandle@CDefTermBase@@@@QEAAXXZ 000000014000afc0 f i DefaultTerm.obj
 0001:00009fc0       ?clear@?$MArray@PEAVCFont@@@@QEAAXXZ 000000014000afc0 f i FontMgr.obj
 0001:00009fc0       ?clear@?$MArray@UConProcess@@@@QEAAXXZ 000000014000afc0 f i RealConsole.obj
 0001:00009fc0       ?clear@?$MArray@U_ThInfo@CDragDrop@@@@QEAAXXZ 000000014000afc0 f i DragDrop.obj
 0001:00009fc0       ?clear@?$MArray@U_FindAllMonitorsItem@@@@QEAAXXZ 000000014000afc0 f i Monitors.obj
 0001:00009fc0       ?clear@?$MArray@UMonitorInfoCache@CConEmuSize@@@@QEAAXXZ 000000014000afc0 f i ConEmuSize.obj
 0001:00009fc0       ?clear@?$MArray@PEAVCustomFont@@@@QEAAXXZ 000000014000afc0 f i CustomFonts.obj
 0001:00009fc0       ?clear@?$MArray@UDlgItem@CDpiForDialog@@@@QEAAXXZ 000000014000afc0 f i DpiAware.obj
 0001:00009fc0       ?clear@?$MArray@UConEmuHotKey@@@@QEAAXXZ 000000014000afc0 f i ConEmuApp.obj
 0001:00009fc0       ?clear@?$MArray@PEA_W@@QEAAXXZ 000000014000afc0 f i CmdHistory.obj
 0001:00009fc0       ?clear@?$MArray@PEAVCVConGuard@@@@QEAAXXZ 000000014000afc0 f i Macro.obj
 0001:00009fc0       ?clear@?$MArray@USshAgent@CConEmuMain@@@@QEAAXXZ 000000014000afc0 f i ConEmu.obj
 0001:00009fc0       ?clear@?$MArray@UtagPROCESSENTRY32W@@@@QEAAXXZ 000000014000afc0 f i MProcess.obj
 0001:00009fc0       ?clear@?$MArray@UCmdTaskPopupItem@CConEmuMenu@@@@QEAAXXZ 000000014000afc0 f i Menu.obj
 0001:00009fc0       ?clear@?$MArray@UAttachParm@@@@QEAAXXZ 000000014000afc0 f i Attach.obj
 0001:00009fc0       ?clear@?$MArray@UAppInfo@AppFoundList@@@@QEAAXXZ 000000014000afc0 f i OptionsFast.obj
 0001:00009fc0       ?clear@?$MArray@ULngRcItem@CLngRc@@@@QEAAXXZ 000000014000afc0 f i LngRc.obj
 0001:00009fc0       ?clear@?$MArray@PEAX@@QEAAXXZ 000000014000afc0 f i TaskBar.obj
 0001:0000a0d0       ??_E?$MToolHelp@UtagPROCESSENTRY32W@@$1?Process32FirstW@@YAHPEAXPEAU1@@Z$1?Process32NextW@@YAH01@Z@@UEAAPEAXI@Z 000000014000b0d0 f i * CIL library *:* CIL module *
 0001:0000a0d0       ??_EMToolHelpProcess@@UEAAPEAXI@Z 000000014000b0d0 f i * CIL library *:* CIL module *
 0001:0000a0d0       ??_G?$MToolHelp@UtagPROCESSENTRY32W@@$1?Process32FirstW@@YAHPEAXPEAU1@@Z$1?Process32NextW@@YAH01@Z@@UEAAPEAXI@Z 000000014000b0d0 f i MProcess.obj
 0001:0000a0d0       ??_GMToolHelpProcess@@UEAAPEAXI@Z 000000014000b0d0 f i MProcess.obj
 0001:0000a110       ??1MToolHelpProcess@@UEAA@XZ 000000014000b110 f i MProcess.obj
 0001:0000a120       ?GetProcessInfo@@YA_NKPEAUtagPROCESSENTRY32W@@@Z 000000014000b120 f   MProcess.obj
 0001:0000a450       ?GetProcessInfo@@YA_NPEB_WPEAUtagPROCESSENTRY32W@@@Z 000000014000b450 f   MProcess.obj
 0001:0000a600       ?push_back@?$MArray@UtagPROCESSENTRY32W@@@@QEAA_JAEBUtagPROCESSENTRY32W@@@Z 000000014000b600 f i MProcess.obj
 0001:0000a670       ?Find@?$MToolHelp@UtagPROCESSENTRY32W@@$1?Process32FirstW@@YAHPEAXPEAU1@@Z$1?Process32NextW@@YAH01@Z@@QEAA_NP6A_NPEAUtagPROCESSENTRY32W@@_J@Z10@Z 000000014000b670 f i MProcess.obj
 0001:0000a750       ??1?$MToolHelp@UtagPROCESSENTRY32W@@$1?Process32FirstW@@YAHPEAXPEAU1@@Z$1?Process32NextW@@YAH01@Z@@UEAA@XZ 000000014000b750 f i MProcess.obj
 0001:0000a7e0       ?Filter@?$MToolHelp@UtagPROCESSENTRY32W@@$1?Process32FirstW@@YAHPEAXPEAU1@@Z$1?Process32NextW@@YAH01@Z@@MEAA_NPEAUtagPROCESSENTRY32W@@@Z 000000014000b7e0 f i MProcess.obj
 0001:0000a7e0       ?QueryDialogCancel@CSetPgBase@@UEAA_NXZ 000000014000b7e0 f i SetPgANSI.obj
 0001:0000a7e0       __acrt_uninitialize_command_line 000000014000b7e0 f i libucrt:argv_data.obj
 0001:0000a7e0       _should_initialize_environment 000000014000b7e0 f i LIBCMT:env_mode.obj
 0001:0000a7e0       ?key_WinDragStart@CConEmuCtrl@@SA_NAEBUConEmuChord@@_NPEBUConEmuHotKey@@PEAVCRealConsole@@@Z 000000014000b7e0 f i ConEmuCtrl.obj
 0001:0000a7f0       ?getNext@?$MToolHelp@UtagPROCESSENTRY32W@@$1?Process32FirstW@@YAHPEAXPEAU1@@Z$1?Process32NextW@@YAH01@Z@@IEAA_NXZ 000000014000b7f0 f i MProcess.obj
 0001:0000a8a0       ?Open@?$MToolHelp@UtagPROCESSENTRY32W@@$1?Process32FirstW@@YAHPEAXPEAU1@@Z$1?Process32NextW@@YAH01@Z@@QEAA_NXZ 000000014000b8a0 f i MProcess.obj
 0001:0000a940       ?GetProcessBits@@YAHKPEAX@Z 000000014000b940 f   MProcessBits.obj
 0001:0000aac0       ??0MSection@@QEAA@XZ       000000014000bac0 f   MSection.obj
 0001:0000ab90       ??1MSection@@QEAA@XZ       000000014000bb90 f   MSection.obj
 0001:0000ac40       ?AddRef@MSection@@IEAAXK@Z 000000014000bc40 f   MSection.obj
 0001:0000ace0       ?ReleaseRef@MSection@@IEAAHK@Z 000000014000bce0 f   MSection.obj
 0001:0000ad90       ?WaitUnlocked@MSection@@IEAAXKK@Z 000000014000bd90 f   MSection.obj
 0001:0000ae40       ?MyEnterCriticalSection@MSection@@IEAA_NK@Z 000000014000be40 f   MSection.obj
 0001:0000aff0       ?Lock@MSection@@IEAAHHK@Z  000000014000bff0 f   MSection.obj
 0001:0000b100       ??1MSectionLock@@QEAA@XZ   000000014000c100 f   MSection.obj
 0001:0000b130       ?RelockExclusive@MSectionLock@@QEAAHK@Z 000000014000c130 f   MSection.obj
 0001:0000b190       ?Unlock@MSectionLock@@QEAAXXZ 000000014000c190 f   MSection.obj
 0001:0000b220       ??1MSectionLockSimple@@QEAA@XZ 000000014000c220 f   MSectionSimple.obj
 0001:0000b250       ?LoadAdvApi@MNullDesc@@IEAAHXZ 000000014000c250 f i MSecurity.obj
 0001:0000b410       ?LocalSecurity@MNullDesc@@QEAAPEAU_SECURITY_ATTRIBUTES@@XZ 000000014000c410 f i MSecurity.obj
 0001:0000b5b0       ?LocalSecurity@@YAPEAU_SECURITY_ATTRIBUTES@@XZ 000000014000c5b0 f   MSecurity.obj
 0001:0000b620       ?ShutdownSecurity@@YAXXZ   000000014000c620 f   MSecurity.obj
 0001:0000b6a0       ??1MSetter@@QEAA@XZ        000000014000c6a0 f   MSetter.obj
 0001:0000b700       ?lstrdup@@YAPEA_WPEB_W_K@Z 000000014000c700 f   MStrDup.obj
 0001:0000b830       ?lstrdupW@@YAPEA_WPEBDI@Z  000000014000c830 f   MStrDup.obj
 0001:0000b970       ?lstrmerge@@YAPEA_WPEB_W00000000@Z 000000014000c970 f   MStrDup.obj
 0001:0000bb80       ?lstrmerge@@YA_NPEAPEA_WPEB_W1111111@Z 000000014000cb80 f   MStrDup.obj
 0001:0000bc40       ?EscapeChar@@YAXAEAPEB_WAEAPEA_W@Z 000000014000cc40 f   MStrEsc.obj
 0001:0000be40       ?UnescapeChar@@YAXAEAPEB_WAEAPEA_W@Z 000000014000ce40 f   MStrEsc.obj
 0001:0000c080       ?msprintf@@YAPEB_WPEA_W_KPEB_WZZ 000000014000d080 f   MStrSafe.obj
 0001:0000c5a0       ?lstrcmpni@@YAHPEB_W0H@Z   000000014000d5a0 f   MStrSafe.obj
 0001:0000c6d0       ??_GCToolTip@@UEAAPEAXI@Z  000000014000d6d0 f i MToolTip.obj
 0001:0000c6d0       ??_ECToolTip@@UEAAPEAXI@Z  000000014000d6d0 f i * CIL library *:* CIL module *
 0001:0000c710       ??1CToolTip@@UEAA@XZ       000000014000d710 f   MToolTip.obj
 0001:0000c7c0       ?ShowTip@CToolTip@@QEAAXPEAUHWND__@@0PEB_WHUtagPOINT@@PEAUHINSTANCE__@@@Z 000000014000d7c0 f   MToolTip.obj
 0001:0000ca60       ?HideTip@CToolTip@@QEAAXXZ 000000014000da60 f   MToolTip.obj
 0001:0000cab0       ??_ECStartEnvBase@@UEAAPEAXI@Z 000000014000dab0 f i * CIL library *:* CIL module *
 0001:0000cab0       ??_GCStartEnvBase@@UEAAPEAXI@Z 000000014000dab0 f i ProcessSetEnv.obj
 0001:0000cae0       ?ChCp@CStartEnvTitle@@UEAAXPEB_W@Z 000000014000dae0 f i ProcessSetEnv.obj
 0001:0000cae0       ?PostCreateThreadFinished@CDefTermBase@@MEAAXXZ 000000014000dae0 f i DefaultTerm.obj
 0001:0000cae0       ?OnUseTheming@CConEmuMain@@MEAAX_N@Z 000000014000dae0 f i ConEmu.obj
 0001:0000cae0       ?PreCreateThread@CDefTermBase@@MEAAXXZ 000000014000dae0 f i DefaultTerm.obj
 0001:0000cae0       _guard_check_icall_nop     000000014000dae0 f i LIBCMT:guard_support.obj
 0001:0000cae0       ?Alias@CStartEnvTitle@@UEAAXPEB_W0@Z 000000014000dae0 f i ProcessSetEnv.obj
 0001:0000cae0       ?OnUseGlass@CConEmuMain@@MEAAX_N@Z 000000014000dae0 f i ConEmu.obj
 0001:0000cae0       ?ConhostLocker@CDefTermBase@@MEAAX_NAEA_N@Z 000000014000dae0 f i DefaultTerm.obj
 0001:0000cae0       ?DragFeedBack@CBaseDropTarget@@UEAAXK@Z 000000014000dae0 f i BaseDragDrops.obj
 0001:0000cae0       ?PostCreateThreadFinished@CDefaultTerminal@@MEAAXXZ 000000014000dae0 f i DefaultTerm.obj
 0001:0000cae0       ?Echo@CStartEnvTitle@@UEAAXPEB_W0@Z 000000014000dae0 f i ProcessSetEnv.obj
 0001:0000cae0       _initialize_invalid_parameter_handler 000000014000dae0 f i LIBCMT:invalid_parameter_handler.obj
 0001:0000cae0       ?OnUseDwm@CConEmuMain@@MEAAX_N@Z 000000014000dae0 f i ConEmu.obj
 0001:0000cae0       ?Type@CStartEnvTitle@@UEAAXPEB_W0@Z 000000014000dae0 f i ProcessSetEnv.obj
 0001:0000cae0       ?OnPostLocalize@CSetPgBase@@UEAAXPEAUHWND__@@@Z 000000014000dae0 f i SetPgANSI.obj
 0001:0000cae0       _initialize_denormal_control 000000014000dae0 f i LIBCMT:denormal_control.obj
 0001:0000cae0       ?Set@CStartEnvTitle@@UEAAXPEB_W0@Z 000000014000dae0 f i ProcessSetEnv.obj
 0001:0000cae0       ?LogHookingStatus@CDefTermBase@@UEAAXKPEB_W@Z 000000014000dae0 f i DefaultTerm.obj
 0001:0000caf0       ??_GCStartEnvTitle@@UEAAPEAXI@Z 000000014000daf0 f i ProcessSetEnv.obj
 0001:0000caf0       ??_ECStartEnvTitle@@UEAAPEAXI@Z 000000014000daf0 f i * CIL library *:* CIL module *
 0001:0000cb20       ?ProcessSetEnvCmd@@YA_NAEAPEB_WPEAVCProcessEnvCmd@@PEAVCStartEnvBase@@@Z 000000014000db20 f   ProcessSetEnv.obj
 0001:0000cbe0       ?Title@CStartEnvTitle@@UEAAXPEB_W@Z 000000014000dbe0 f   ProcessSetEnv.obj
 0001:0000cc90       ??1CProcessEnvCmd@@QEAA@XZ 000000014000dc90 f   ProcessSetEnv.obj
 0001:0000ce10       ?AddCommands@CProcessEnvCmd@@QEAA_NPEB_WPEAPEB_W_N_J@Z 000000014000de10 f   ProcessSetEnv.obj
 0001:0000d870       ?AddLines@CProcessEnvCmd@@QEAAXPEB_W_N@Z 000000014000e870 f   ProcessSetEnv.obj
 0001:0000dab0       ?Add@CProcessEnvCmd@@IEAAPEAUCommand@1@PEB_W00_J@Z 000000014000eab0 f   ProcessSetEnv.obj
 0001:0000dcc0       ?Apply@CProcessEnvCmd@@QEAA_NPEAVCStartEnvBase@@@Z 000000014000ecc0 f   ProcessSetEnv.obj
 0001:0000ddd0       ?Allocate@CProcessEnvCmd@@QEAAPEA_WPEA_K@Z 000000014000edd0 f   ProcessSetEnv.obj
 0001:0000e1f0       ?insert@?$MArray@PEAUCommand@CProcessEnvCmd@@@@QEAAX_JAEBQEAUCommand@CProcessEnvCmd@@@Z 000000014000f1f0 f i ProcessSetEnv.obj
 0001:0000e2d0       ??$wcscpy_c@$07@@YAHAEAY07_WPEB_W@Z 000000014000f2d0 f i ProcessSetEnv.obj
 0001:0000e330       ??_ERConStartArgs@@UEAAPEAXI@Z 000000014000f330 f i * CIL library *:* CIL module *
 0001:0000e330       ??_GRConStartArgs@@UEAAPEAXI@Z 000000014000f330 f i RConStartArgs.obj
 0001:0000e370       ?CleanSecure@RConStartArgs@@QEAAXXZ 000000014000f370 f   RConStartArgs.obj
 0001:0000e430       ??1RConStartArgs@@UEAA@XZ  000000014000f430 f   RConStartArgs.obj
 0001:0000e610       ?AppendServerArgs@RConStartArgs@@QEAAXPEA_W_J@Z 000000014000f610 f   RConStartArgs.obj
 0001:0000e9a0       ?ProcessNewConArg@RConStartArgs@@QEAAH_N@Z 000000014000f9a0 f   RConStartArgs.obj
 0001:0000f8d0       ??0RConStartArgsEx@@QEAA@XZ 00000001400108d0 f   RConStartArgsEx.obj
 0001:0000f990       ??_GRConStartArgsEx@@UEAAPEAXI@Z 0000000140010990 f i RConStartArgsEx.obj
 0001:0000f990       ??_ERConStartArgsEx@@UEAAPEAXI@Z 0000000140010990 f i * CIL library *:* CIL module *
 0001:0000f9d0       ??1RConStartArgsEx@@UEAA@XZ 00000001400109d0 f   RConStartArgsEx.obj
 0001:0000fa80       ?AssignFrom@RConStartArgsEx@@QEAA_NPEBU1@_N@Z 0000000140010a80 f   RConStartArgsEx.obj
 0001:0000ff40       ?AssignUserArgs@RConStartArgsEx@@QEAA_NPEBU1@_N@Z 0000000140010f40 f   RConStartArgsEx.obj
 0001:00010080       ?CreateCommandLine@RConStartArgsEx@@QEBAPEA_W_N@Z 0000000140011080 f   RConStartArgsEx.obj
 0001:00011760       ?CheckUserToken@RConStartArgsEx@@QEAA_NPEAUHWND__@@@Z 0000000140012760 f   RConStartArgsEx.obj
 0001:000118d0       wmemcmp                    00000001400128d0 f i RgnDetect.obj
 0001:00011910       ??0CRgnDetect@@QEAA@XZ     0000000140012910 f   RgnDetect.obj
 0001:000119e0       ??1CRgnDetect@@QEAA@XZ     00000001400129e0 f   RgnDetect.obj
 0001:00011ac0       ?FindFrameRight_ByTop@CRgnDetect@@IEAA_NPEA_WPEAUtag_CharAttr@@HHAEAH22@Z 0000000140012ac0 f   RgnDetect.obj
 0001:00011c40       ?FindFrameLeft_ByTop@CRgnDetect@@IEAA_NPEA_WPEAUtag_CharAttr@@HHAEAH22@Z 0000000140012c40 f   RgnDetect.obj
 0001:00011dc0       ?FindFrameRight_ByBottom@CRgnDetect@@IEAA_NPEA_WPEAUtag_CharAttr@@HHAEAH22@Z 0000000140012dc0 f   RgnDetect.obj
 0001:00011eb0       ?FindFrameLeft_ByBottom@CRgnDetect@@IEAA_NPEA_WPEAUtag_CharAttr@@HHAEAH22@Z 0000000140012eb0 f   RgnDetect.obj
 0001:00011f90       ?FindDialog_Left@CRgnDetect@@IEAA_NPEA_WPEAUtag_CharAttr@@HHAEAH222AEA_N@Z 0000000140012f90 f   RgnDetect.obj
 0001:000121c0       ?FindFrameTop_ByRight@CRgnDetect@@IEAA_NPEA_WPEAUtag_CharAttr@@HHAEAH22@Z 00000001400131c0 f   RgnDetect.obj
 0001:000122b0       ?FindFrameBottom_ByRight@CRgnDetect@@IEAA_NPEA_WPEAUtag_CharAttr@@HHAEAH22@Z 00000001400132b0 f   RgnDetect.obj
 0001:00012390       ?FindFrameBottom_ByLeft@CRgnDetect@@IEAA_NPEA_WPEAUtag_CharAttr@@HHAEAH22@Z 0000000140013390 f   RgnDetect.obj
 0001:00012440       ?FindDialog_Right@CRgnDetect@@IEAA_NPEA_WPEAUtag_CharAttr@@HHAEAH222AEA_N@Z 0000000140013440 f   RgnDetect.obj
 0001:00012560       ?FindDialog_Any@CRgnDetect@@IEAA_NPEA_WPEAUtag_CharAttr@@HHAEAH222AEA_N@Z 0000000140013560 f   RgnDetect.obj
 0001:00012820       ?FindDialog_Inner@CRgnDetect@@IEAA_NPEA_WPEAUtag_CharAttr@@HHAEAH2@Z 0000000140013820 f   RgnDetect.obj
 0001:00012990       ?ExpandDialogFrame@CRgnDetect@@IEAA_NPEA_WPEAUtag_CharAttr@@HHAEAH2HH22@Z 0000000140013990 f   RgnDetect.obj
 0001:00012c80       ?DetectDialog@CRgnDetect@@IEAA_NPEA_WPEAUtag_CharAttr@@HHHHPEAH2@Z 0000000140013c80 f   RgnDetect.obj
 0001:000137b0       ?MarkDialog@CRgnDetect@@IEAAHPEA_WPEAUtag_CharAttr@@HHHHHHI_NK@Z 00000001400147b0 f   RgnDetect.obj
 0001:00014210       ?PrepareTransparent@CRgnDetect@@QEAAXPEBUCEFAR_INFO_MAPPING@@PEBKPEBU_CONSOLE_SCREEN_BUFFER_INFO@@PEA_WPEAUtag_CharAttr@@HH@Z 0000000140015210 f   RgnDetect.obj
 0001:00014ae0       ?Init@CRgnRects@@QEAAXPEAUtagRECT@@@Z 0000000140015ae0 f   RgnDetect.obj
 0001:00014c00       ?Diff@CRgnRects@@QEAAHPEAUtagRECT@@@Z 0000000140015c00 f   RgnDetect.obj
 0001:00014d80       ?LoadFrom@CRgnRects@@QEAA_NPEAV1@@Z 0000000140015d80 f   RgnDetect.obj
 0001:00014e80       ?SetConEmuEnvVar@@YAXPEAUHWND__@@@Z 0000000140015e80 f   SetEnvVar.obj
 0001:00014f40       ?SetConEmuEnvVarChild@@YAXPEAUHWND__@@0@Z 0000000140015f40 f   SetEnvVar.obj
 0001:00014fe0       ?is_char_combining@@YA_NH@Z 0000000140015fe0 f   wcwidth.obj
 0001:00015030       ?is_char_cjk@@YA_NH@Z      0000000140016030 f   wcwidth.obj
 0001:000150e0       ?SearchAppPaths@@YA_NPEB_WAEAUCEStr@@_NPEAU1@@Z 00000001400160e0 f   WFiles.obj
 0001:000156e0       ?GetFullPathNameEx@@YAPEA_WPEB_W@Z 00000001400166e0 f   WFiles.obj
 0001:00015860       ?FindFileName@@YA_NPEB_WAEAUCEStr@@@Z 0000000140016860 f   WFiles.obj
 0001:00015a20       ?MakePathProperCase@@YA_NAEAUCEStr@@@Z 0000000140016a20 f   WFiles.obj
 0001:00015c90       ?ReadTextFile@@YAHPEB_WKAEAPEA_WAEAK2K@Z 0000000140016c90 f   WFiles.obj
 0001:000160b0       ?WriteTextFile@@YAHPEB_W0HK_NPEAK@Z 00000001400170b0 f   WFiles.obj
 0001:00016250       ?FilesExists@@YA_NPEB_W0_NH@Z 0000000140017250 f   WFiles.obj
 0001:000163d0       ?FileExistSubDir@@YA_NPEB_W0HAEAUCEStr@@@Z 00000001400173d0 f   WFiles.obj
 0001:000166d0       ?DirectoryExists@@YA_NPEB_W@Z 00000001400176d0 f   WFiles.obj
 0001:00016890       ?MyCreateDirectory@@YA_NPEA_W@Z 0000000140017890 f   WFiles.obj
 0001:00016990       ?HasZoneIdentifier@@YA_NPEB_WAEAH@Z 0000000140017990 f   WFiles.obj
 0001:00016bb0       ?DropZoneIdentifier@@YA_NPEB_WAEAK@Z 0000000140017bb0 f   WFiles.obj
 0001:00016d90       ?FileExists@@YA_NPEB_WPEAK@Z 0000000140017d90 f   WObjects.obj
 0001:00016f40       ?apiSearchPath@@YAHPEB_W00AEAUCEStr@@@Z 0000000140017f40 f   WObjects.obj
 0001:000170a0       ?apiGetFullPathName@@YAHPEB_WAEAUCEStr@@@Z 00000001400180a0 f   WObjects.obj
 0001:000171e0       ?FileSearchInDir@@YA_NPEB_WAEAUCEStr@@@Z 00000001400181e0 f   WObjects.obj
 0001:00017370       ?FileExistsSearch@@YA_NPEB_WAEAUCEStr@@_N2@Z 0000000140018370 f   WObjects.obj
 0001:000174b0       ?GetShortFileName@@YA_NPEB_WHPEA_WH@Z 00000001400184b0 f   WObjects.obj
 0001:00017600       ?GetShortFileNameEx@@YAPEA_WPEB_WH@Z 0000000140018600 f   WObjects.obj
 0001:00017b60       ?IsWine@@YA_NXZ            0000000140018b60 f   WObjects.obj
 0001:00017c00       ?IsWinPE@@YA_NXZ           0000000140018c00 f   WObjects.obj
 0001:00017ca0       ?IsWinVerOrHigher@@YA_NG@Z 0000000140018ca0 f   WObjects.obj
 0001:00017d40       ?IsWinVerEqual@@YA_NG@Z    0000000140018d40 f   WObjects.obj
 0001:00017dd0       ?IsWin6@@YA_NXZ            0000000140018dd0 f   WObjects.obj
 0001:00017e10       ?IsWin7@@YA_NXZ            0000000140018e10 f   WObjects.obj
 0001:00017e50       ?IsWin10@@YA_NXZ           0000000140018e50 f   WObjects.obj
 0001:00017f10       ?IsHwFullScreenAvailable@@YA_NXZ 0000000140018f10 f   WObjects.obj
 0001:00017ff0       ?ExpandMacroValues@@YAPEA_WPEB_WPEAPEB_W_K@Z 0000000140018ff0 f   WObjects.obj
 0001:00018260       ?ExpandEnvStr@@YAPEA_WPEB_W@Z 0000000140019260 f   WObjects.obj
 0001:00018350       ?GetEnvVar@@YAPEA_WPEB_W@Z 0000000140019350 f   WObjects.obj
 0001:00018440       ?GetComspecFromEnvVar@@YAPEB_WPEA_WKW4ComSpecBits@@@Z 0000000140019440 f   WObjects.obj
 0001:00018610       ?GetComspec@@YAPEA_WPEBUConEmuComspec@@@Z 0000000140019610 f   WObjects.obj
 0001:00018760       ?ApplyExportEnvVar@@YAXPEB_W@Z 0000000140019760 f   WObjects.obj
 0001:00018870       ?GetCpFromString@@YAIPEB_WPEAPEB_W@Z 0000000140019870 f   WObjects.obj
 0001:000189e0       ?RegEnumKeys@@YAHPEAUHKEY__@@PEB_WP6A_N01_J@Z2@Z 00000001400199e0 f   WRegistry.obj
 0001:00018bf0       ?RegEnumValues@@YAHPEAUHKEY__@@PEB_WP6A_N01K_J@Z2@Z 0000000140019bf0 f   WRegistry.obj
 0001:00018e50       ?RegGetStringValue@@YAHPEAUHKEY__@@PEB_W1AEAUCEStr@@K@Z 0000000140019e50 f   WRegistry.obj
 0001:00019060       ?RegSetStringValue@@YAJPEAUHKEY__@@PEB_W11K@Z 000000014001a060 f   WRegistry.obj
 0001:00019120       ?RegDeleteKeyRecursive@@YA_NPEAUHKEY__@@PEB_W1@Z 000000014001a120 f   WRegistry.obj
 0001:000192a0       ?apiQuerySessionID@@YAHKAEAK@Z 000000014001a2a0 f   WSession.obj
 0001:00019350       ?apiQuerySessionID@@YAPEB_WXZ 000000014001a350 f   WSession.obj
 0001:00019410       ?apiGetConsoleSessionID@@YAKXZ 000000014001a410 f   WSession.obj
 0001:00019490       ??$wcscpy_c@$0BA@@@YAHAEAY0BA@_WPEB_W@Z 000000014001a490 f i WSession.obj
 0001:000194f0       ?apiThreadHelper@@YAKPEAX@Z 000000014001a4f0 f   WThreads.obj
 0001:00019700       ?apiCreateThread@@YAPEAXP6AKPEAX@Z0PEAKPEBDH@Z 000000014001a700 f   WThreads.obj
 0001:00019860       ?apiTerminateThreadEx@@YAHPEAXKPEBDH@Z 000000014001a860 f   WThreads.obj
 0001:00019960       ?SetThreadName@@YAXKPEAD@Z 000000014001a960 f   WThreads.obj
 0001:000199a0       ?getWindowInfo@@YAXPEAUHWND__@@AEAY0EAA@_W_NPEAK@Z 000000014001a9a0 f   WUser.obj
 0001:00019be0       ?IsUserAdmin@@YA_NXZ       000000014001abe0 f   WUser.obj
 0001:00019d30       ?FindComspec@@YAXPEAUConEmuComspec@@_N@Z 000000014001ad30 f   WUser.obj
 0001:0001a690       ?SetEnvVarExpanded@@YAXPEB_W0@Z 000000014001b690 f   WUser.obj
 0001:0001a7c0       ??$wcscpy_c@$0EAA@@@YAHAEAY0EAA@_WPEB_W@Z 000000014001b7c0 f i WUser.obj
 0001:0001a820       ??$wcscpy_c@$0BAE@@@YAHAEAY0BAE@_WPEB_W@Z 000000014001b820 f i WUser.obj
 0001:0001a880       ?aboutProc@ConEmuAbout@@YA_JPEAUHWND__@@I_K_J@Z 000000014001b880 f   AboutDlg.obj
 0001:0001b260       ?searchProc@ConEmuAbout@@YAXPEAUHWND__@@0_N@Z 000000014001c260 f   AboutDlg.obj
 0001:0001b6a0       ?OnInfo_OnlineWiki@ConEmuAbout@@YAXPEB_W@Z 000000014001c6a0 f   AboutDlg.obj
 0001:0001ba40       ?OnInfo_DonateLink@ConEmuAbout@@YAXXZ 000000014001ca40 f   AboutDlg.obj
 0001:0001baa0       ?TabSelected@ConEmuAbout@@YAXPEAUHWND__@@H@Z 000000014001caa0 f   AboutDlg.obj
 0001:0001bce0       ?LogStartEnvInt@ConEmuAbout@@YAXPEB_W_J_N2@Z 000000014001cce0 f   AboutDlg.obj
 0001:0001be30       ?ReloadSysInfo@ConEmuAbout@@YAXXZ 000000014001ce30 f   AboutDlg.obj
 0001:0001bec0       ?OnInfo_About@ConEmuAbout@@YAXPEB_W@Z 000000014001cec0 f   AboutDlg.obj
 0001:0001c200       ?OnInfo_WhatsNew@ConEmuAbout@@YAX_N@Z 000000014001d200 f   AboutDlg.obj
 0001:0001c410       ?OnInfo_Help@ConEmuAbout@@YAXXZ 000000014001d410 f   AboutDlg.obj
 0001:0001c4d0       ?OnInfo_HomePage@ConEmuAbout@@YAXXZ 000000014001d4d0 f   AboutDlg.obj
 0001:0001c530       ?OnInfo_DownloadPage@ConEmuAbout@@YAXXZ 000000014001d530 f   AboutDlg.obj
 0001:0001c590       ?OnInfo_ReportCrash@ConEmuAbout@@YAXPEB_W@Z 000000014001d590 f   AboutDlg.obj
 0001:0001c650       ?OnInfo_ThrowTrapException@ConEmuAbout@@YAX_N@Z 000000014001d650 f   AboutDlg.obj
 0001:0001c760       ??$SafeDelete@VCImgButtons@@@@YAXAEAPEAVCImgButtons@@@Z 000000014001d760 f i AboutDlg.obj
 0001:0001c7c0       ?isAltNumpad@CAltNumpad@@IEAA_NXZ 000000014001d7c0 f   AltNumpad.obj
 0001:0001c860       ?isUseAltGrayPlus@CAltNumpad@@IEAA_NXZ 000000014001d860 f   AltNumpad.obj
 0001:0001c940       ?OnKeyboard@CAltNumpad@@QEAA_NPEAUHWND__@@I_K_J@Z 000000014001d940 f   AltNumpad.obj
 0001:0001cdb0       ?StartCapture@CAltNumpad@@QEAAXII_N@Z 000000014001ddb0 f   AltNumpad.obj
 0001:0001cf20       ?ClearAltNumber@CAltNumpad@@IEAAX_N@Z 000000014001df20 f   AltNumpad.obj
 0001:0001cff0       ?DumpAltNumber@CAltNumpad@@IEAA?AW4AltCharAction@@XZ 000000014001dff0 f   AltNumpad.obj
 0001:0001d150       ?DumpChars@CAltNumpad@@IEAAXPEA_W@Z 000000014001e150 f   AltNumpad.obj
 0001:0001d250       ?GetChars@CAltNumpad@@IEAAHAEAY02_W@Z 000000014001e250 f   AltNumpad.obj
 0001:0001d340       ?DumpStatus@CAltNumpad@@IEAAXXZ 000000014001e340 f   AltNumpad.obj
 0001:0001d5b0       ?fNtQueryInformationProcess@CProcessData@@KAJPEAXW4_PROCESSINFOCLASS@1@0KPEAK@Z 000000014001e5b0 f i Attach.obj
 0001:0001d5c0       ?GetInternalProcessData@CProcessData@@IEAAHPEAXPEAUModuleData@1@AEAPEAUPROCESS_PARAMETERS@1@AEAPEAD_N@Z 000000014001e5c0 f i Attach.obj
 0001:0001d760       ?GetOpenProcessData@CProcessData@@IEAAXPEAXPEA_WK1K1K@Z 000000014001e760 f i Attach.obj
 0001:0001d860       ?getcounter@CProcessData@@KAHPEA_W@Z 000000014001e860 f i Attach.obj
 0001:0001d8b0       ?LoadPerfData@CProcessData@@IEAA_NXZ 000000014001e8b0 f i Attach.obj
 0001:0001dcb0       ?FindProcessName@CProcessData@@IEAA_NKPEA_WK@Z 000000014001ecb0 f i Attach.obj
 0001:0001ddb0       ?getModuleFileNameEx@CProcessData@@IEAAKPEAXPEAUHINSTANCE__@@PEA_WK@Z 000000014001edb0 f i Attach.obj
 0001:0001de60       ??0CProcessData@@QEAA@XZ   000000014001ee60 f i Attach.obj
 0001:0001df00       ??1CProcessData@@QEAA@XZ   000000014001ef00 f i Attach.obj
 0001:0001df70       ?GetProcessName@CProcessData@@QEAA_NKPEA_WK0KPEAH@Z 000000014001ef70 f i Attach.obj
 0001:0001e230       ?AttachDlg@CAttachDlg@@QEAAXXZ 000000014001f230 f   Attach.obj
 0001:0001e340       ?Close@CAttachDlg@@QEAAXXZ 000000014001f340 f   Attach.obj
 0001:0001e440       ?OnStartAttach@CAttachDlg@@IEAA_NXZ 000000014001f440 f   Attach.obj
 0001:0001e8e0       ?AttachFromMacro@CAttachDlg@@SA?AW4AttachMacroRet@1@K_N@Z 000000014001f8e0 f   Attach.obj
 0001:0001ecd0       ?AttachDlgEnumWin@CAttachDlg@@SAHPEAUHWND__@@_J@Z 000000014001fcd0 f   Attach.obj
 0001:0001eef0       ?CanAttachWindow@CAttachDlg@@KA_NPEAUHWND__@@KPEAVCProcessData@@AEAUAttachWndInfo@1@@Z 000000014001fef0 f   Attach.obj
 0001:0001f5b0       ?AttachDlgProc@CAttachDlg@@SA_JPEAUHWND__@@I_K_J@Z 00000001400205b0 f   Attach.obj
 0001:000203e0       ?StartAttach@CAttachDlg@@KA_NPEAUHWND__@@KKW4AttachProcessType@@HH@Z 00000001400213e0 f   Attach.obj
 0001:00020d60       ?StartAttachThread@CAttachDlg@@SAKPEAUAttachParm@@@Z 0000000140021d60 f   Attach.obj
 0001:00020e20       ?addsize@?$MArray@PEAVCustomFont@@@@QEAAX_J@Z 0000000140021e20 f i CustomFonts.obj
 0001:00020e20       ?addsize@?$MArray@PEAUSwitch@@@@QEAAX_J@Z 0000000140021e20 f i SetPgIntegr.obj
 0001:00020e20       ?addsize@?$MArray@UDlgItem@CDpiForDialog@@@@QEAAX_J@Z 0000000140021e20 f i DpiAware.obj
 0001:00020e20       ?addsize@?$MArray@PEAVCVConGuard@@@@QEAAX_J@Z 0000000140021e20 f i VConGroup.obj
 0001:00020e20       ?addsize@?$MArray@UItemInfo@CDynDialog@@@@QEAAX_J@Z 0000000140021e20 f i DynDialog.obj
 0001:00020e20       ?addsize@?$MArray@H@@QEAAX_J@Z 0000000140021e20 f i CmdHistory.obj
 0001:00020e20       ?addsize@?$MArray@USshAgent@CConEmuMain@@@@QEAAX_J@Z 0000000140021e20 f i ConEmu.obj
 0001:00020e20       ?addsize@?$MArray@PEAVCVConGroup@@@@QEAAX_J@Z 0000000140021e20 f i VConGroup.obj
 0001:00020e20       ?addsize@?$MArray@UHighlightRect@CVirtualConsole@@@@QEAAX_J@Z 0000000140021e20 f i VirtualConsole.obj
 0001:00020e20       ?addsize@?$MArray@URunQueueItem@CRunQueue@@@@QEAAX_J@Z 0000000140021e20 f i RunQueue.obj
 0001:00020e20       ?addsize@?$MArray@PEAVCFont@@@@QEAAX_J@Z 0000000140021e20 f i FontMgr.obj
 0001:00020e20       ?addsize@?$MArray@UProcessInfo@CDefTermBase@@@@QEAAX_J@Z 0000000140021e20 f i ConEmu.obj
 0001:00020e20       ?addsize@?$MArray@ULngRcItem@CLngRc@@@@QEAAX_J@Z 0000000140021e20 f i LngRc.obj
 0001:00020e20       ?addsize@?$MArray@UGuiMacroArg@@@@QEAAX_J@Z 0000000140021e20 f i Macro.obj
 0001:00020e20       ?addsize@?$MArray@PEAX@@QEAAX_J@Z 0000000140021e20 f i TaskBar.obj
 0001:00020e20       ?addsize@?$MArray@UAppInfo@AppFoundList@@@@QEAAX_J@Z 0000000140021e20 f i OptionsFast.obj
 0001:00020e20       ?addsize@?$MArray@U_ThInfo@CDragDrop@@@@QEAAX_J@Z 0000000140021e20 f i DragDrop.obj
 0001:00020e20       ?addsize@?$MArray@PEAUHWND__@@@@QEAAX_J@Z 0000000140021e20 f i ConEmu.obj
 0001:00020e20       ?addsize@?$MArray@UAttachParm@@@@QEAAX_J@Z 0000000140021e20 f i Attach.obj
 0001:00020e20       ?addsize@?$MArray@UBtnInfo@@@@QEAAX_J@Z 0000000140021e20 f i ImgButton.obj
 0001:00020e20       ?addsize@?$MArray@UCmdTaskPopupItem@CConEmuMenu@@@@QEAAX_J@Z 0000000140021e20 f i Menu.obj
 0001:00020e20       ?addsize@?$MArray@PEAVCTabID@@@@QEAAX_J@Z 0000000140021e20 f i TabBar.obj
 0001:00020e20       ?addsize@?$MArray@Utxt@CFormatCopy@@@@QEAAX_J@Z 0000000140021e20 f i RealBuffer.obj
 0001:00020e20       ?addsize@?$MArray@UDragData@CDataObject@@@@QEAAX_J@Z 0000000140021e20 f i BaseDragDrops.obj
 0001:00020e20       ?addsize@?$MArray@UFontHeightInfo@@@@QEAAX_J@Z 0000000140021e20 f i FontMgr.obj
 0001:00020e20       ?addsize@?$MArray@PEA_W@@QEAAX_J@Z 0000000140021e20 f i CmdHistory.obj
 0001:00020e20       ?addsize@?$MArray@UThreadHandle@CDefTermBase@@@@QEAAX_J@Z 0000000140021e20 f i ConEmu.obj
 0001:00020e20       ?addsize@?$MArray@UVarDef@CVarDefs@@@@QEAAX_J@Z 0000000140021e20 f i OptionsFast.obj
 0001:00020e20       ?addsize@?$MArray@UFoundFile@@@@QEAAX_J@Z 0000000140021e20 f i OptionsFast.obj
 0001:00020e20       ?addsize@?$MArray@UTabIconCache@CIconList@@@@QEAAX_J@Z 0000000140021e20 f i IconList.obj
 0001:00020e20       ?addsize@?$MArray@UConEmuHotKey@@@@QEAAX_J@Z 0000000140021e20 f i HotkeyList.obj
 0001:00020e20       ?addsize@?$MArray@URegFont@@@@QEAAX_J@Z 0000000140021e20 f i FontMgr.obj
 0001:00020f20       ??$SafeDelete@VCConEmuInside@@@@YAXAEAPEAVCConEmuInside@@@Z 0000000140021f20 f i ConEmu.obj
 0001:00020f20       ??$SafeDelete@VMFileLog@@@@YAXAEAPEAVMFileLog@@@Z 0000000140021f20 f i RealConsole.obj
 0001:00020f20       ??$SafeDelete@VCDynDialog@@@@YAXAEAPEAVCDynDialog@@@Z 0000000140021f20 f i Attach.obj
 0001:00020f70       ??$SafeDelete@VCDpiForDialog@@@@YAXAEAPEAVCDpiForDialog@@@Z 0000000140021f70 f i Attach.obj
 0001:00020fe0       ??$wcscpy_c@$0EA@@@YAHAEAY0EA@_WPEB_W@Z 0000000140021fe0 f i Attach.obj
 0001:00021040       ??$wcscpy_c@$0PP@@@YAHAEAY0PP@_WPEB_W@Z 0000000140022040 f i Attach.obj
 0001:000210a0       ?Release@CRefRelease@@QEAAHXZ 00000001400220a0 f i Background.obj
 0001:000210e0       ??1CRefRelease@@MEAA@XZ    00000001400220e0 f i Background.obj
 0001:000210e0       ??1CVConRelease@@UEAA@XZ   00000001400220e0 f i VConRelease.obj
 0001:000210f0       ??_GCRefRelease@@MEAAPEAXI@Z 00000001400220f0 f i Background.obj
 0001:000210f0       ??_ECRefRelease@@MEAAPEAXI@Z 00000001400220f0 f i * CIL library *:* CIL module *
 0001:00021120       ??_ECBackground@@UEAAPEAXI@Z 0000000140022120 f i * CIL library *:* CIL module *
 0001:00021120       ??_GCBackground@@UEAAPEAXI@Z 0000000140022120 f i Background.obj
 0001:00021160       ??1CBackground@@UEAA@XZ    0000000140022160 f   Background.obj
 0001:00021370       ?CreateField@CBackground@@QEAA_NHH@Z 0000000140022370 f   Background.obj
 0001:000214f0       ?FillBackground@CBackground@@QEAA_NPEBUtagBITMAPFILEHEADER@@JJJJW4BackgroundOp@@_N@Z 00000001400224f0 f   Background.obj
 0001:000219e0       ?SetPluginBackgroundImageData@CBackground@@QEAAHPEAUCESERVER_REQ_SETBACKGROUND@@AEA_N@Z 00000001400229e0 f   Background.obj
 0001:00021d00       ?PutPluginBackgroundImage@CBackground@@AEAA_NJJJJ@Z 0000000140022d00 f   Background.obj
 0001:000220b0       ?PrepareBackground@CBackground@@QEAA_NPEAVCVirtualConsole@@AEAPEAUHDC__@@AEAU_COORD@@@Z 00000001400230b0 f   Background.obj
 0001:000225f0       ?CreateBackgroundObject@CBackgroundInfo@@SAPEAV1@PEB_W_N@Z 00000001400235f0 f   Background.obj
 0001:00022780       ??0CBackgroundInfo@@IEAA@PEB_W@Z 0000000140023780 f   Background.obj
 0001:00022880       ??_ECBackgroundInfo@@MEAAPEAXI@Z 0000000140023880 f i * CIL library *:* CIL module *
 0001:00022880       ??_GCBackgroundInfo@@MEAAPEAXI@Z 0000000140023880 f i Background.obj
 0001:000228c0       ?FinalRelease@CFont@@MEAAXXZ 00000001400238c0 f   Font.obj
 0001:000228c0       ?FinalRelease@CBackgroundInfo@@UEAAXXZ 00000001400238c0 f   Background.obj
 0001:000228c0       ?FinalRelease@CVConGroup@@MEAAXXZ 00000001400238c0 f   VConGroup.obj
 0001:000228c0       ?FinalRelease@CRConData@@MEAAXXZ 00000001400238c0 f   RConData.obj
 0001:000228c0       ?FinalRelease@CTabID@@MEAAXXZ 00000001400238c0 f   TabID.obj
 0001:000228e0       ??1CBackgroundInfo@@MEAA@XZ 00000001400238e0 f   Background.obj
 0001:000229e0       ?PollBackgroundFile@CBackgroundInfo@@QEAA_NXZ 00000001400239e0 f   Background.obj
 0001:00022af0       ?LoadBackgroundFile@CBackgroundInfo@@QEAA_N_N@Z 0000000140023af0 f   Background.obj
 0001:00022d30       ?addsize@?$MArray@PEAVCBackgroundInfo@@@@QEAAX_J@Z 0000000140023d30 f i Background.obj
 0001:00022e40       ??_GCBaseDropTarget@@UEAAPEAXI@Z 0000000140023e40 f i BaseDragDrops.obj
 0001:00022e40       ??_ECBaseDropTarget@@UEAAPEAXI@Z 0000000140023e40 f i * CIL library *:* CIL module *
 0001:00022e70       _matherr                   0000000140023e70 f   LIBCMT:matherr.obj
 0001:00022e70       ?GetPageType@CSetPgFonts@@UEAA?AW4TabHwndIndex@@XZ 0000000140023e70 f   SetPgFonts.obj
 0001:00022e70       _get_startup_thread_locale_mode 0000000140023e70 f   LIBCMT:thread_locale.obj
 0001:00022e70       ?OnComboBox@CSetPgBase@@UEAA_JPEAUHWND__@@GG@Z 0000000140023e70 f   SetPgBase.obj
 0001:00022e70       _get_startup_commit_mode   0000000140023e70 f   LIBCMT:commit_mode.obj
 0001:00022e70       ?DragLeave@CBaseDropTarget@@UEAAJXZ 0000000140023e70 f   BaseDragDrops.obj
 0001:00022e70       ?OnComboBox@CSetPgComspec@@UEAA_JPEAUHWND__@@GG@Z 0000000140023e70 f   SetPgComspec.obj
 0001:00022e70       ?IsUnderline@BDFFont@@UEAAHXZ 0000000140023e70 f   CustomFonts.obj
 0001:00022e70       ?DragOver@CBaseDropTarget@@UEAAJKU_POINTL@@PEAK@Z 0000000140023e70 f   BaseDragDrops.obj
 0001:00022e70       _get_startup_new_mode      0000000140023e70 f   LIBCMT:new_mode.obj
 0001:00022e70       ?PageDlgProc@CSetPgBase@@UEAA_JPEAUHWND__@@I_K_J@Z 0000000140023e70 f   SetPgANSI.obj
 0001:00022e70       __scrt_initialize_winrt    0000000140023e70 f   LIBCMT:utility_desktop.obj
 0001:00022e70       ?OnEditChanged@CSetPgBase@@UEAA_JPEAUHWND__@@G@Z 0000000140023e70 f   SetPgBase.obj
 0001:00022e70       ?IsItalic@BDFFont@@UEAAHXZ 0000000140023e70 f   CustomFonts.obj
 0001:00022e70       ?DragEnter@CBaseDropTarget@@UEAAJPEAUIDataObject@@KU_POINTL@@PEAK@Z 0000000140023e70 f   BaseDragDrops.obj
 0001:00022e70       ?Drop@CBaseDropTarget@@UEAAJPEAUIDataObject@@KU_POINTL@@PEAK@Z 0000000140023e70 f   BaseDragDrops.obj
 0001:00022e80       ?QueryInterface@CBaseDropTarget@@UEAAJAEBU_GUID@@PEAPEAX@Z 0000000140023e80 f   BaseDragDrops.obj
 0001:00022f20       ?AddRef@CDataObject@@UEAAKXZ 0000000140023f20 f   BaseDragDrops.obj
 0001:00022f20       ?AddRef@CBaseDropTarget@@UEAAKXZ 0000000140023f20 f   BaseDragDrops.obj
 0001:00022f20       ?AddRef@CEnumFormatEtc@@UEAAKXZ 0000000140023f20 f   BaseDragDrops.obj
 0001:00022f30       ?Release@CBaseDropTarget@@UEAAKXZ 0000000140023f30 f   BaseDragDrops.obj
 0001:00022f30       ?Release@CEnumFormatEtc@@UEAAKXZ 0000000140023f30 f   BaseDragDrops.obj
 0001:00022f60       ??_ECDropSource@@UEAAPEAXI@Z 0000000140023f60 f i * CIL library *:* CIL module *
 0001:00022f60       ??_GCDropSource@@UEAAPEAXI@Z 0000000140023f60 f i BaseDragDrops.obj
 0001:00022f90       ?AddRef@CDropSource@@UEAAKXZ 0000000140023f90 f   BaseDragDrops.obj
 0001:00022fa0       ?Release@CDropSource@@UEAAKXZ 0000000140023fa0 f   BaseDragDrops.obj
 0001:00022fd0       ?QueryInterface@CDropSource@@UEAAJAEBU_GUID@@PEAPEAX@Z 0000000140023fd0 f   BaseDragDrops.obj
 0001:00023070       ?QueryContinueDrag@CDropSource@@UEAAJHK@Z 0000000140024070 f   BaseDragDrops.obj
 0001:00023150       ?GiveFeedback@CDropSource@@UEAAJK@Z 0000000140024150 f   BaseDragDrops.obj
 0001:00023230       ??0CDataObject@@QEAA@PEAUtagFORMATETC@@PEAUtagSTGMEDIUM@@H@Z 0000000140024230 f   BaseDragDrops.obj
 0001:000232c0       ??_ECDataObject@@UEAAPEAXI@Z 00000001400242c0 f i * CIL library *:* CIL module *
 0001:000232c0       ??_GCDataObject@@UEAAPEAXI@Z 00000001400242c0 f i BaseDragDrops.obj
 0001:00023300       ??1CDataObject@@UEAA@XZ    0000000140024300 f   BaseDragDrops.obj
 0001:00023400       ?Release@CDataObject@@UEAAKXZ 0000000140024400 f   BaseDragDrops.obj
 0001:00023430       ?QueryInterface@CDataObject@@UEAAJAEBU_GUID@@PEAPEAX@Z 0000000140024430 f   BaseDragDrops.obj
 0001:000234d0       ?DupMem@@YAPEAXPEAX@Z      00000001400244d0 f   BaseDragDrops.obj
 0001:00023560       ?GetData@CDataObject@@UEAAJPEAUtagFORMATETC@@PEAUtagSTGMEDIUM@@@Z 0000000140024560 f   BaseDragDrops.obj
 0001:000236f0       ?GetDataHere@CDataObject@@UEAAJPEAUtagFORMATETC@@PEAUtagSTGMEDIUM@@@Z 00000001400246f0 f   BaseDragDrops.obj
 0001:00023700       ?QueryGetData@CDataObject@@UEAAJPEAUtagFORMATETC@@@Z 0000000140024700 f   BaseDragDrops.obj
 0001:00023760       ?GetCanonicalFormatEtc@CDataObject@@UEAAJPEAUtagFORMATETC@@0@Z 0000000140024760 f   BaseDragDrops.obj
 0001:00023770       ?SetDataInt@CDataObject@@QEAAJPEB_WPEBXK@Z 0000000140024770 f   BaseDragDrops.obj
 0001:00023820       ?SetData@CDataObject@@UEAAJPEAUtagFORMATETC@@PEAUtagSTGMEDIUM@@H@Z 0000000140024820 f   BaseDragDrops.obj
 0001:000239c0       ?EnumFormatEtc@CDataObject@@UEAAJKPEAPEAUIEnumFORMATETC@@@Z 00000001400249c0 f   BaseDragDrops.obj
 0001:00023ac0       ?DUnadvise@CDataObject@@UEAAJK@Z 0000000140024ac0 f   BaseDragDrops.obj
 0001:00023ac0       ?DAdvise@CDataObject@@UEAAJPEAUtagFORMATETC@@KPEAUIAdviseSink@@PEAK@Z 0000000140024ac0 f   BaseDragDrops.obj
 0001:00023ac0       ?EnumDAdvise@CDataObject@@UEAAJPEAPEAUIEnumSTATDATA@@@Z 0000000140024ac0 f   BaseDragDrops.obj
 0001:00023ad0       ?CreateEnumFormatEtc@@YAJIPEAUtagFORMATETC@@PEAPEAUIEnumFORMATETC@@@Z 0000000140024ad0 f   BaseDragDrops.obj
 0001:00023b60       ??0CEnumFormatEtc@@QEAA@PEAUtagFORMATETC@@H@Z 0000000140024b60 f   BaseDragDrops.obj
 0001:00023cf0       ??_ECEnumFormatEtc@@UEAAPEAXI@Z 0000000140024cf0 f i * CIL library *:* CIL module *
 0001:00023cf0       ??_GCEnumFormatEtc@@UEAAPEAXI@Z 0000000140024cf0 f i BaseDragDrops.obj
 0001:00023d30       ??1CEnumFormatEtc@@UEAA@XZ 0000000140024d30 f   BaseDragDrops.obj
 0001:00023dd0       ?QueryInterface@CEnumFormatEtc@@UEAAJAEBU_GUID@@PEAPEAX@Z 0000000140024dd0 f   BaseDragDrops.obj
 0001:00023e70       ?Next@CEnumFormatEtc@@UEAAJKPEAUtagFORMATETC@@PEAK@Z 0000000140024e70 f   BaseDragDrops.obj
 0001:00023f60       ?Skip@CEnumFormatEtc@@UEAAJK@Z 0000000140024f60 f   BaseDragDrops.obj
 0001:00023f70       ?Reset@CEnumFormatEtc@@UEAAJXZ 0000000140024f70 f   BaseDragDrops.obj
 0001:00023f80       ?Clone@CEnumFormatEtc@@UEAAJPEAPEAUIEnumFORMATETC@@@Z 0000000140024f80 f   BaseDragDrops.obj
 0001:00023fc0       ?FreeItems@CommandHistory@@QEAAXXZ 0000000140024fc0 f   CmdHistory.obj
 0001:00024060       ?CreateMSZ@CommandHistory@@QEAAIAEAPEA_W@Z 0000000140025060 f   CmdHistory.obj
 0001:000243c0       ?ParseMSZ@CommandHistory@@QEAAXPEB_W@Z 00000001400253c0 f   CmdHistory.obj
 0001:000244a0       ?Add@CommandHistory@@QEAAXPEB_W_N@Z 00000001400254a0 f   CmdHistory.obj
 0001:00024730       ?erase@?$MArray@PEA_W@@QEAAX_J@Z 0000000140025730 f i CmdHistory.obj
 0001:00024730       ?erase@?$MArray@PEAVCTabID@@@@QEAAX_J@Z 0000000140025730 f i TabBar.obj
 0001:00024790       ??0dE00@@QEAA@UColorFix@@0NNN@Z 0000000140025790 f i ColorFix.obj
 0001:00024a80       ?getDeltaE@dE00@@QEAANXZ   0000000140025a80 f i ColorFix.obj
 0001:00024d20       ?getRsubT@dE00@@QEAANXZ    0000000140025d20 f i ColorFix.obj
 0001:00024de0       ?getT@dE00@@QEAANXZ        0000000140025de0 f i ColorFix.obj
 0001:00024ec0       ?rgb2lab@ColorSpace@@YAXNNNAEAN00@Z 0000000140025ec0 f   ColorFix.obj
 0001:00025170       ?lab2rgb@ColorSpace@@YAXNNNAEAN00@Z 0000000140026170 f   ColorFix.obj
 0001:00025420       ?lab2rgb@ColorSpace@@YAXNNNAEAK@Z 0000000140026420 f   ColorFix.obj
 0001:000254f0       ?DeltaE@ColorFix@@QEAANU1@@Z 00000001400264f0 f   ColorFix.obj
 0001:00025560       ?PerceivableColor@ColorFix@@QEAA_NKAEAU1@PEAN1@Z 0000000140026560 f   ColorFix.obj
 0001:00025850       ?Set@CESize@@QEAA_N_NW4CESizeStyle@@H@Z 0000000140026850 f i ConEmu.obj
 0001:000258d0       ?ReloadWheelScroll@<unnamed-type-mouse>@CConEmuMain@@QEAAXXZ 00000001400268d0 f i ConEmu.obj
 0001:00025930       ?IsWindowResponsive@CDefTermBase@@SA_NPEAUHWND__@@@Z 0000000140026930 f i ConEmu.obj
 0001:00025970       ?IsAppMonitored@CDefTermBase@@QEAA_NPEAUHWND__@@K_NPEAUtagPROCESSENTRY32W@@PEA_W@Z 0000000140026970 f i ConEmu.obj
 0001:00025cb0       ?CheckForeground@CDefTermBase@@QEAA_NPEAUHWND__@@K_N1@Z 0000000140026cb0 f i ConEmu.obj
 0001:000262e0       ?OnHookedListChanged@CDefTermBase@@QEAAXXZ 00000001400272e0 f i ConEmu.obj
 0001:000264a0       ?StartDefTermHooker@CDefTermBase@@AEAAHKAEAPEAXAEAKPEB_W1@Z 00000001400274a0 f i ConEmu.obj
 0001:00026880       ?ClearProcessed@CDefTermBase@@IEAAX_N@Z 0000000140027880 f i ConEmu.obj
 0001:000269c0       ?PostCheckThread@CDefTermBase@@KAKPEAX@Z 00000001400279c0 f i ConEmu.obj
 0001:00026a50       ?CheckShellWindow@CDefTermBase@@IEAA_NXZ 0000000140027a50 f i ConEmu.obj
 0001:00026c40       ?LogPos@ConEmuMsgLogger@@YAXAEBUtagMSG@@W4Source@1@@Z 0000000140027c40 f   ConEmu.obj
 0001:00026de0       ??0CConEmuMain@@QEAA@XZ    0000000140027de0 f   ConEmu.obj
 0001:00028590       ??_GCConEmuMain@@UEAAPEAXI@Z 0000000140029590 f i ConEmu.obj
 0001:00028590       ??_ECConEmuMain@@UEAAPEAXI@Z 0000000140029590 f i * CIL library *:* CIL module *
 0001:000285d0       ?RegisterMessages@CConEmuMain@@AEAAXXZ 00000001400295d0 f   ConEmu.obj
 0001:00028dc0       ?LogFocusInfo@@YAXPEB_WH@Z 0000000140029dc0 f   ConEmu.obj
 0001:00029040       ?SetAppID@CConEmuMain@@QEAAXPEB_W@Z 000000014002a040 f   ConEmu.obj
 0001:00029970       ?StoreWorkDir@CConEmuMain@@QEAAXPEB_W@Z 000000014002a970 f   ConEmu.obj
 0001:00029d00       ?WorkDir@CConEmuMain@@QEAAPEB_WPEB_W@Z 000000014002ad00 f   ConEmu.obj
 0001:00029d30       ?AppendExtraArgs@CConEmuMain@@QEAAXPEB_W0@Z 000000014002ad30 f   ConEmu.obj
 0001:00029ea0       ?MakeConEmuStartArgs@CConEmuMain@@QEAAPEB_WAEAUCEStr@@PEB_W@Z 000000014002aea0 f   ConEmu.obj
 0001:0002a2b0       ?CheckRequiredFiles@CConEmuMain@@QEAA_NXZ 000000014002b2b0 f   ConEmu.obj
 0001:0002ada0       ?CheckBaseDir@CConEmuMain@@AEAA_NXZ 000000014002bda0 f   ConEmu.obj
 0001:0002ae70       ?SetConfigFile@CConEmuMain@@QEAA_NPEB_W_N1@Z 000000014002be70 f   ConEmu.obj
 0001:0002b4c0       ?ConEmuXml@CConEmuMain@@QEAAPEA_WPEA_N@Z 000000014002c4c0 f   ConEmu.obj
 0001:0002b9f0       ?ConEmuIni@CConEmuMain@@QEAAPEA_WXZ 000000014002c9f0 f   ConEmu.obj
 0001:0002bc30       ?ConEmuCExeFull@CConEmuMain@@QEAAPEB_WPEB_W@Z 000000014002cc30 f   ConEmu.obj
 0001:0002c160       ?Init@CConEmuMain@@QEAAHXZ 000000014002d160 f   ConEmu.obj
 0001:0002c260       ?DeinitOnDestroy@CConEmuMain@@AEAAXPEAUHWND__@@_N@Z 000000014002d260 f   ConEmu.obj
 0001:0002c4c0       ?TerminateSshAgents@CConEmuMain@@IEAAXXZ 000000014002d4c0 f   ConEmu.obj
 0001:0002c6b0       ?RegisterSshAgent@CConEmuMain@@QEAAXK@Z 000000014002d6b0 f   ConEmu.obj
 0001:0002c840       ?FixWindowStyle@CConEmuMain@@QEAAKKW4ConEmuWindowMode@@@Z 000000014002d840 f   ConEmu.obj
 0001:0002c8f0       ?SetWindowStyleEx@CConEmuMain@@QEAAXPEAUHWND__@@K@Z 000000014002d8f0 f   ConEmu.obj
 0001:0002ca00       ?GetWindowStyleEx@CConEmuMain@@QEAAKXZ 000000014002da00 f   ConEmu.obj
 0001:0002ca70       ?CreateLog@CConEmuMain@@QEAA_NXZ 000000014002da70 f   ConEmu.obj
 0001:0002cd30       ?CreateMainWindow@CConEmuMain@@QEAAHXZ 000000014002dd30 f   ConEmu.obj
 0001:0002d400       ?CreateWorkWindow@CConEmuMain@@QEAAHXZ 000000014002e400 f   ConEmu.obj
 0001:0002d4d0       ?FillConEmuMainFont@CConEmuMain@@AEAAXPEAUConEmuMainFont@@@Z 000000014002e4d0 f   ConEmu.obj
 0001:0002d630       ?CheckDosBoxExists@CConEmuMain@@AEAAHXZ 000000014002e630 f   ConEmu.obj
 0001:0002d7d0       ?CreateGuiAttachMapping@CConEmuMain@@QEAAXK@Z 000000014002e7d0 f   ConEmu.obj
 0001:0002d890       ?InitComSpecStr@CConEmuMain@@QEAAXAEAUConEmuComspec@@@Z 000000014002e890 f   ConEmu.obj
 0001:0002d940       ?UpdateGuiInfoMapping@CConEmuMain@@AEAAXXZ 000000014002e940 f   ConEmu.obj
 0001:0002e250       ?UpdateGuiInfoMappingActive@CConEmuMain@@AEAAX_N0@Z 000000014002f250 f   ConEmu.obj
 0001:0002e4a0       ?Destroy@CConEmuMain@@QEAAX_N@Z 000000014002f4a0 f   ConEmu.obj
 0001:0002e5f0       ??1CConEmuMain@@UEAA@XZ    000000014002f5f0 f   ConEmu.obj
 0001:0002eee0       ?AskChangeBufferHeight@CConEmuMain@@QEAAXXZ 000000014002fee0 f   ConEmu.obj
 0001:0002f050       ?AskChangeAlternative@CConEmuMain@@QEAAXXZ 0000000140030050 f   ConEmu.obj
 0001:0002f1a0       ?OnTabbarActivated@CConEmuMain@@QEAAX_N0@Z 00000001400301a0 f   ConEmu.obj
 0001:0002f450       ?ForceShowTabs@CConEmuMain@@QEAAXH@Z 0000000140030450 f   ConEmu.obj
 0001:0002fa50       ?TrackMouse@CConEmuMain@@QEAAHXZ 0000000140030a50 f   ConEmu.obj
 0001:0002fb00       ?OnQueryEndSession@CConEmuMain@@QEAA_JPEAUHWND__@@I_K_J@Z 0000000140030b00 f   ConEmu.obj
 0001:0002fbe0       ?SetSessionNotification@SessionInfo@CConEmuMain@@QEAAX_N@Z 0000000140030be0 f   ConEmu.obj
 0001:0002fcf0       ?OnSessionChanged@CConEmuMain@@QEAA_JPEAUHWND__@@I_K_J@Z 0000000140030cf0 f   ConEmu.obj
 0001:000302f0       ?OnActiveConWndStore@CConEmuMain@@QEAAXPEAUHWND__@@@Z 00000001400312f0 f   ConEmu.obj
 0001:00030380       ?Activate@CConEmuMain@@QEAAHPEAVCVirtualConsole@@@Z 0000000140031380 f   ConEmu.obj
 0001:00030450       ?AttachToDialog@CConEmuMain@@QEAAXXZ 0000000140031450 f   ConEmu.obj
 0001:000304f0       ?CreateWnd@CConEmuMain@@QEAA_NPEAURConStartArgsEx@@@Z 00000001400314f0 f   ConEmu.obj
 0001:00030bf0       ?PostCreateCon@CConEmuMain@@QEAAXPEAURConStartArgsEx@@@Z 0000000140031bf0 f   ConEmu.obj
 0001:00030d00       ?ParseScriptLineOptions@CConEmuMain@@QEAAPEB_WPEB_WPEA_NPEAURConStartArgsEx@@@Z 0000000140031d00 f   ConEmu.obj
 0001:000311c0       ?CreateConGroup@CConEmuMain@@QEAAPEAVCVirtualConsole@@PEB_W_N0PEBURConStartArgsEx@@@Z 00000001400321c0 f   ConEmu.obj
 0001:00032090       ?UpdateActiveGhost@CConEmuMain@@QEAAXPEAVCVirtualConsole@@@Z 0000000140033090 f   ConEmu.obj
 0001:00032100       ?DebugStep@CConEmuMain@@QEAAXPEB_WH@Z 0000000140033100 f   ConEmu.obj
 0001:00032200       ?SetTitle@CConEmuMain@@QEAAXPEAUHWND__@@PEB_W_N@Z 0000000140033200 f   ConEmu.obj
 0001:00032af0       ?ExecPostGuiMacro@CConEmuMain@@QEAAXXZ 0000000140033af0 f   ConEmu.obj
 0001:00032d90       ?SetTaskbarIcon@CConEmuMain@@QEAAXPEAUHICON__@@@Z 0000000140033d90 f   ConEmu.obj
 0001:00032e80       ?SetWindowIcon@CConEmuMain@@QEAAXPEB_W@Z 0000000140033e80 f   ConEmu.obj
 0001:00033000       ?LoadIcons@CConEmuMain@@QEAAXXZ 0000000140034000 f   ConEmu.obj
 0001:00033c40       ?PostDragCopy@CConEmuMain@@QEAAX_N0@Z 0000000140034c40 f   ConEmu.obj
 0001:00033d20       ?PostMacro@CConEmuMain@@QEAAXPEB_W@Z 0000000140034d20 f   ConEmu.obj
 0001:00033df0       ?RegisterMinRestore@CConEmuMain@@QEAAX_N@Z 0000000140034df0 f   ConEmu.obj
 0001:00034250       ?RegisterGlobalHotKeys@CConEmuMain@@IEAAX_N@Z 0000000140035250 f   ConEmu.obj
 0001:00034500       ?RegisterHotKeys@CConEmuMain@@IEAAXXZ 0000000140035500 f   ConEmu.obj
 0001:00034560       ?LoadConEmuCD@CConEmuMain@@IEAAPEAUHINSTANCE__@@XZ 0000000140035560 f   ConEmu.obj
 0001:00034610       ?UpdateWinHookSettings@CConEmuMain@@QEAAXXZ 0000000140035610 f   ConEmu.obj
 0001:000346d0       ?RegisterHooks@CConEmuMain@@QEAAXXZ 00000001400356d0 f   ConEmu.obj
 0001:00034a00       ?UnRegisterHooks@CConEmuMain@@QEAAX_N@Z 0000000140035a00 f   ConEmu.obj
 0001:00034ae0       ?OnWmHotkey@CConEmuMain@@QEAAX_KK@Z 0000000140035ae0 f   ConEmu.obj
 0001:00034dc0       ?CtrlWinAltSpace@CConEmuMain@@QEAAXXZ 0000000140035dc0 f   ConEmu.obj
 0001:00034e70       ?RecreateAction@CConEmuMain@@QEAA_NW4RecreateActionParm@@HW4RConBoolArg@@@Z 0000000140035e70 f   ConEmu.obj
 0001:00035460       ?RecreateDlg@CConEmuMain@@QEAAHPEAURConStartArgsEx@@_N@Z 0000000140036460 f   ConEmu.obj
 0001:000355c0       ?RunSingleInstance@CConEmuMain@@QEAAHPEAUHWND__@@PEB_W@Z 00000001400365c0 f   ConEmu.obj
 0001:00036230       ?ReportOldCmdVersion@CConEmuMain@@QEAAXKKHK_KK@Z 0000000140037230 f   ConEmu.obj
 0001:000366c0       ?LockConhostStart@CConEmuMain@@QEAA_NXZ 00000001400376c0 f   ConEmu.obj
 0001:00036780       ?UnlockConhostStart@CConEmuMain@@QEAAXXZ 0000000140037780 f   ConEmu.obj
 0001:000367c0       ?StartDebugLogConsole@CConEmuMain@@QEAA_NXZ 00000001400377c0 f   ConEmu.obj
 0001:00036960       ?StartDebugActiveProcess@CConEmuMain@@QEAA_NXZ 0000000140037960 f   ConEmu.obj
 0001:00036aa0       ?MemoryDumpActiveProcess@CConEmuMain@@QEAA_N_N@Z 0000000140037aa0 f   ConEmu.obj
 0001:00036bf0       ?UpdateProcessDisplay@CConEmuMain@@QEAAX_N@Z 0000000140037bf0 f   ConEmu.obj
 0001:00037620       ?UpdateCursorInfo@CConEmuMain@@QEAAXPEBUConsoleInfoArg@@@Z 0000000140038620 f   ConEmu.obj
 0001:00037750       ?UpdateSizes@CConEmuMain@@QEAAXXZ 0000000140038750 f   ConEmu.obj
 0001:00037a30       ?UpdateTitle@CConEmuMain@@QEAAXXZ 0000000140038a30 f   ConEmu.obj
 0001:00037bd0       ?UpdateProgress@CConEmuMain@@QEAAXXZ 0000000140038bd0 f   ConEmu.obj
 0001:00037ff0       ?InvalidateAll@CConEmuMain@@QEAAXXZ 0000000140038ff0 f   ConEmu.obj
 0001:000380a0       ?RightClickingPaint@CConEmuMain@@QEAAXPEAUHDC__@@PEAVCVirtualConsole@@@Z 00000001400390a0 f   ConEmu.obj
 0001:00038570       ?StopRightClickingPaint@CConEmuMain@@IEAAXXZ 0000000140039570 f   ConEmu.obj
 0001:000385e0       ?RightClickingProc@CConEmuMain@@KA_JPEAUHWND__@@I_K_J@Z 00000001400395e0 f   ConEmu.obj
 0001:00038680       ?GetFarPID@CConEmuMain@@QEAAK_N@Z 0000000140039680 f   ConEmu.obj
 0001:000386c0       ?GetCurrentVConIcon@CConEmuMain@@QEAAPEAUHICON__@@XZ 00000001400396c0 f   ConEmu.obj
 0001:000387c0       ?IsActiveConAdmin@CConEmuMain@@QEAA_NXZ 00000001400397c0 f   ConEmu.obj
 0001:000388b0       ?isDragging@CConEmuMain@@QEAA_NXZ 00000001400398b0 f   ConEmu.obj
 0001:000388f0       ?isFirstInstance@CConEmuMain@@QEAA_N_N@Z 00000001400398f0 f   ConEmu.obj
 0001:00038b50       ?RecheckForegroundWindow@CConEmuMain@@IEAA_NPEB_WPEAPEAUHWND__@@PEAU2@@Z 0000000140039b50 f   ConEmu.obj
 0001:00038f00       ?isInsideInvalid@CConEmuMain@@QEAA_NXZ 0000000140039f00 f   ConEmu.obj
 0001:00038f50       ?isMouseOverFrame@CConEmuMain@@QEAA_N_N@Z 0000000140039f50 f   ConEmu.obj
 0001:000390f0       ?SwitchKeyboardLayout@CConEmuMain@@QEAAX_K@Z 000000014003a0f0 f   ConEmu.obj
 0001:000393d0       ?OnBufferHeight@CConEmuMain@@QEAAXXZ 000000014003a3d0 f   ConEmu.obj
 0001:00039530       ?OnScClose@CConEmuMain@@QEAA_NXZ 000000014003a530 f   ConEmu.obj
 0001:000395e0       ?OnCreate@CConEmuMain@@QEAA_JPEAUHWND__@@PEAUtagCREATESTRUCTW@@@Z 000000014003a5e0 f   ConEmu.obj
 0001:000399a0       ?IsConsoleBatchOrTask@CConEmuMain@@SA_WPEB_W@Z 000000014003a9a0 f   ConEmu.obj
 0001:00039b00       ?LoadConsoleBatch@CConEmuMain@@QEAAPEA_WPEB_WPEAURConStartArgsEx@@@Z 000000014003ab00 f   ConEmu.obj
 0001:00039cc0       ?LoadConsoleBatch_File@CConEmuMain@@AEAAPEA_WPEB_W@Z 000000014003acc0 f   ConEmu.obj
 0001:0003a030       ?LoadConsoleBatch_Drops@CConEmuMain@@AEAAPEA_WPEB_W@Z 000000014003b030 f   ConEmu.obj
 0001:0003a6b0       ?LoadConsoleBatch_Task@CConEmuMain@@AEAAPEA_WPEB_WPEAURConStartArgsEx@@@Z 000000014003b6b0 f   ConEmu.obj
 0001:0003ac90       ?CreateStartupConsoles@CConEmuMain@@IEAA_NXZ 000000014003bc90 f   ConEmu.obj
 0001:0003b680       ?OnMainCreateFinished@CConEmuMain@@IEAAXXZ 000000014003c680 f   ConEmu.obj
 0001:0003b9c0       ?PostCreate@CConEmuMain@@QEAAX_N@Z 000000014003c9c0 f   ConEmu.obj
 0001:0003c130       ?OnDestroy@CConEmuMain@@QEAA_JPEAUHWND__@@@Z 000000014003d130 f   ConEmu.obj
 0001:0003c200       ?DestroyAllChildWindows@CConEmuMain@@AEAAXXZ 000000014003d200 f   ConEmu.obj
 0001:0003c310       ?CheckAllowAutoChildFocus@CConEmuMain@@QEAAXK@Z 000000014003d310 f   ConEmu.obj
 0001:0003c460       ?IsChildFocusAllowed@CConEmuMain@@QEAA_NPEAUHWND__@@@Z 000000014003d460 f   ConEmu.obj
 0001:0003c500       ?OnFocus@CConEmuMain@@QEAA_JPEAUHWND__@@I_K_JPEB_W_N@Z 000000014003d500 f   ConEmu.obj
 0001:0003d410       ?OnHideCaption@CConEmuMain@@QEAAXXZ 000000014003e410 f   ConEmu.obj
 0001:0003d7f0       ?OnPanelViewSettingsChanged@CConEmuMain@@QEAAXH@Z 000000014003e7f0 f   ConEmu.obj
 0001:0003d930       ?OnTaskbarCreated@CConEmuMain@@QEAAXXZ 000000014003e930 f   ConEmu.obj
 0001:0003d9e0       ?OnTaskbarButtonCreated@CConEmuMain@@QEAAXXZ 000000014003e9e0 f   ConEmu.obj
 0001:0003dae0       ?OnTaskbarSettingsChanged@CConEmuMain@@QEAAXXZ 000000014003eae0 f   ConEmu.obj
 0001:0003dc50       ?EnumWindowsOverQuake@CConEmuMain@@KAHPEAUHWND__@@_J@Z 000000014003ec50 f   ConEmu.obj
 0001:0003dd90       ?IsQuakeVisible@CConEmuMain@@QEAAIXZ 000000014003ed90 f   ConEmu.obj
 0001:0003dfa0       ?OnSwitchGuiFocus@CConEmuMain@@QEAAXW4SwitchGuiFocusOp@@@Z 000000014003efa0 f   ConEmu.obj
 0001:0003e100       ?CheckNeedRepaint@CConEmuMain@@QEAAXXZ 000000014003f100 f   ConEmu.obj
 0001:0003e200       ?OnKeyboard@CConEmuMain@@QEAA_JPEAUHWND__@@I_K_J@Z 000000014003f200 f   ConEmu.obj
 0001:0003ec90       ?OnKeyboardHook@CConEmuMain@@QEAA_JK@Z 000000014003fc90 f   ConEmu.obj
 0001:0003edd0       ?UpdateImeComposition@CConEmuMain@@IEAAXXZ 000000014003fdd0 f   ConEmu.obj
 0001:0003f0f0       ?OnKeyboardIme@CConEmuMain@@QEAA_JPEAUHWND__@@I_K_J@Z 00000001400400f0 f   ConEmu.obj
 0001:0003f3b0       ?CheckActiveLayoutName@CConEmuMain@@IEAAXXZ 00000001400403b0 f   ConEmu.obj
 0001:0003f750       ?StoreLayoutName@CConEmuMain@@IEAAXHKPEAUHKL__@@@Z 0000000140040750 f   ConEmu.obj
 0001:0003f930       ?OnLangChange@CConEmuMain@@QEAA_JI_K_J@Z 0000000140040930 f   ConEmu.obj
 0001:0003fd10       ?OnLangChangeConsole@CConEmuMain@@QEAA_JPEAVCVirtualConsole@@K@Z 0000000140040d10 f   ConEmu.obj
 0001:000404d0       ?PatchMouseEvent@CConEmuMain@@IEAA_NIAEAUtagPOINT@@0_KAEA_N@Z 00000001400414d0 f   ConEmu.obj
 0001:00040870       ?OnMouse@CConEmuMain@@QEAA_JPEAUHWND__@@I_K_J@Z 0000000140041870 f   ConEmu.obj
 0001:00041e40       ?OnMouse_Move@CConEmuMain@@QEAA_JPEAVCVirtualConsole@@PEAUHWND__@@I_K_JUtagPOINT@@U_COORD@@@Z 0000000140042e40 f   ConEmu.obj
 0001:000423d0       ?OnMouse_LBtnDown@CConEmuMain@@QEAA_JPEAVCVirtualConsole@@PEAUHWND__@@I_K_JUtagPOINT@@U_COORD@@@Z 00000001400433d0 f   ConEmu.obj
 0001:00042630       ?OnMouse_LBtnUp@CConEmuMain@@QEAA_JPEAVCVirtualConsole@@PEAUHWND__@@I_K_JUtagPOINT@@U_COORD@@@Z 0000000140043630 f   ConEmu.obj
 0001:000426f0       ?OnMouse_LBtnDblClk@CConEmuMain@@QEAA_JPEAVCVirtualConsole@@PEAUHWND__@@AEAI_K_JUtagPOINT@@U_COORD@@@Z 00000001400436f0 f   ConEmu.obj
 0001:00042840       ?OnMouse_RBtnDown@CConEmuMain@@QEAA_JPEAVCVirtualConsole@@PEAUHWND__@@I_K_JUtagPOINT@@U_COORD@@@Z 0000000140043840 f   ConEmu.obj
 0001:00042c30       ?OnMouse_RBtnUp@CConEmuMain@@QEAA_JPEAVCVirtualConsole@@PEAUHWND__@@I_K_JUtagPOINT@@U_COORD@@@Z 0000000140043c30 f   ConEmu.obj
 0001:00043400       ?CheckFocus@CConEmuMain@@QEAAXPEB_W@Z 0000000140044400 f   ConEmu.obj
 0001:00043760       ?CheckUpdates@CConEmuMain@@QEAAXI@Z 0000000140044760 f   ConEmu.obj
 0001:000437c0       ?isSelectionModifierPressed@CConEmuMain@@QEAAK_N@Z 00000001400447c0 f   ConEmu.obj
 0001:000438d0       ?CheckPanelDrag@CConEmuMain@@QEAA?AW4DragPanelBorder@@U_COORD@@@Z 00000001400448d0 f   ConEmu.obj
 0001:00043b50       ?OnSetCursor@CConEmuMain@@QEAA_J_K_J@Z 0000000140044b50 f   ConEmu.obj
 0001:00044120       ?OnShellHook@CConEmuMain@@QEAA_J_K_J@Z 0000000140045120 f   ConEmu.obj
 0001:00044280       ?OnTimer@CConEmuMain@@QEAA_J_K_J@Z 0000000140045280 f   ConEmu.obj
 0001:000444c0       ?OnTimer_Main@CConEmuMain@@QEAAXPEAVCVirtualConsole@@@Z 00000001400454c0 f   ConEmu.obj
 0001:00044a50       ?OnActivateSplitChanged@CConEmuMain@@QEAAXXZ 0000000140045a50 f   ConEmu.obj
 0001:00044b30       ?OnTimer_ActivateSplit@CConEmuMain@@QEAAXXZ 0000000140045b30 f   ConEmu.obj
 0001:00044e60       ?OnTimer_AdmShield@CConEmuMain@@QEAAXXZ 0000000140045e60 f   ConEmu.obj
 0001:00044f10       ?OnTimer_QuakeFocus@CConEmuMain@@QEAAXXZ 0000000140045f10 f   ConEmu.obj
 0001:00045030       ?OnTransparentSeparate@CConEmuMain@@QEAAX_N@Z 0000000140046030 f   ConEmu.obj
 0001:000450b0       ?OnTransparent@CConEmuMain@@QEAAX_N0@Z 00000001400460b0 f   ConEmu.obj
 0001:00045240       ?SetTransparent@CConEmuMain@@QEAA_NPEAUHWND__@@I_NK1@Z 0000000140046240 f   ConEmu.obj
 0001:000455f0       ?OnVConCreated@CConEmuMain@@QEAAXPEAVCVirtualConsole@@PEBURConStartArgsEx@@@Z 00000001400465f0 f   ConEmu.obj
 0001:00045690       ?isDestroyOnClose@CConEmuMain@@QEAA_N_N@Z 0000000140046690 f   ConEmu.obj
 0001:00045950       ?OnAllVConClosed@CConEmuMain@@QEAAXXZ 0000000140046950 f   ConEmu.obj
 0001:00045a50       ?OnGhostCreated@CConEmuMain@@QEAAXPEAVCVirtualConsole@@PEAUHWND__@@@Z 0000000140046a50 f   ConEmu.obj
 0001:00045b60       ?OnAllGhostClosed@CConEmuMain@@QEAAXXZ 0000000140046b60 f   ConEmu.obj
 0001:00045c40       ?LogWindowPos@CConEmuMain@@QEAAXPEB_WPEAUtagRECT@@@Z 0000000140046c40 f   ConEmu.obj
 0001:00045e80       ?LogMessage@CConEmuMain@@QEAAXPEAUHWND__@@I_K_J@Z 0000000140046e80 f   ConEmu.obj
 0001:000466e0       ?MainWndProc@CConEmuMain@@SA_JPEAUHWND__@@I_K_J@Z 00000001400476e0 f   ConEmu.obj
 0001:000467a0       ?isDialogMessage@CConEmuMain@@QEAAHAEAUtagMSG@@@Z 00000001400477a0 f   ConEmu.obj
 0001:00046870       ?isSkipNcMessage@CConEmuMain@@QEAA_NAEBUtagMSG@@@Z 0000000140047870 f   ConEmu.obj
 0001:000469b0       ?WorkWndProc@CConEmuMain@@SA_JPEAUHWND__@@I_K_J@Z 00000001400479b0 f   ConEmu.obj
 0001:00046bf0       ?GetRegisteredMessage@CConEmuMain@@QEAAIPEBDPEB_W@Z 0000000140047bf0 f   ConEmu.obj
 0001:00046cd0       ?CallMainThread@CConEmuMain@@QEAA_J_NP6A_J_J@Z1@Z 0000000140047cd0 f   ConEmu.obj
 0001:00046dd0       ?OnActivateByMouse@CConEmuMain@@QEAA_JPEAUHWND__@@I_K_J@Z 0000000140047dd0 f   ConEmu.obj
 0001:00047140       ?WndProc@CConEmuMain@@QEAA_JPEAUHWND__@@I_K_J@Z 0000000140048140 f   ConEmu.obj
 0001:00048e70       ?Set@?$MMap@IPEBD$0A@@@QEAA_NAEBIAEBQEBD@Z 0000000140049e70 f i ConEmu.obj
 0001:00048fb0       ??1?$MMap@IPEBD$0A@@@QEAA@XZ 0000000140049fb0 f i ConEmu.obj
 0001:00048fc0       ?Release@?$MMap@HPEAV?$MArray@UDlgItem@CDpiForDialog@@@@$0A@@@QEAAXXZ 0000000140049fc0 f i DpiAware.obj
 0001:00048fc0       ?Release@?$MMap@PEAUHWND__@@PEAVCDynDialog@@$0A@@@QEAAXXZ 0000000140049fc0 f i DynDialog.obj
 0001:00048fc0       ?Release@?$MMap@IPEBD$0A@@@QEAAXXZ 0000000140049fc0 f i ConEmu.obj
 0001:00048fc0       ?Release@?$MMap@KH$0A@@@QEAAXXZ 0000000140049fc0 f i RealConsole.obj
 0001:00049040       ?AllocateBlock@?$MMap@HPEAV?$MArray@UDlgItem@CDpiForDialog@@@@$0A@@@IEAAPEAUMapItems@1@XZ 000000014004a040 f i DpiAware.obj
 0001:00049040       ?AllocateBlock@?$MMap@IPEBD$0A@@@IEAAPEAUMapItems@1@XZ 000000014004a040 f i ConEmu.obj
 0001:00049160       ??$wcscpy_c@$0BAF@@@YAHAEAY0BAF@_WPEB_W@Z 000000014004a160 f i ConEmu.obj
 0001:000491c0       ??$wcscpy_c@$0BBA@@@YAHAEAY0BBA@_WPEB_W@Z 000000014004a1c0 f i ConEmu.obj
 0001:00049220       ??$SafeDelete@VCAttachDlg@@@@YAXAEAPEAVCAttachDlg@@@Z 000000014004a220 f i ConEmu.obj
 0001:000492a0       ??$SafeDelete@VCRecreateDlg@@@@YAXAEAPEAVCRecreateDlg@@@Z 000000014004a2a0 f i ConEmu.obj
 0001:00049350       ??_GMSectionLockSimple@@QEAAPEAXI@Z 000000014004a350 f i ConEmu.obj
 0001:00049388       ??_ECConEmuMain@@WBIA@EAAPEAXI@Z 000000014004a388 f i ConEmu.obj
 0001:00049394       ??_ECConEmuMain@@WBMA@EAAPEAXI@Z 000000014004a394 f i ConEmu.obj
 0001:000493a0       ??_ECConEmuMain@@WDPA@EAAPEAXI@Z 000000014004a3a0 f i ConEmu.obj
 0001:000493ac       ??_ECConEmuMain@@WCAA@EAAPEAXI@Z 000000014004a3ac f i ConEmu.obj
 0001:000493b8       ??_ECConEmuMain@@WCEI@EAAPEAXI@Z 000000014004a3b8 f i ConEmu.obj
 0001:000493c4       ??_ECConEmuMain@@WBBI@EAAPEAXI@Z 000000014004a3c4 f i ConEmu.obj
 0001:000493d0       ?AllocEnv@LoadStartupEnv@@KAPEAUCEStartupEnv@@_K@Z 000000014004a3d0 f i ConEmuApp.obj
 0001:000494c0       ?Load@LoadStartupEnv@@KA_N_KAEAPEAUCEStartupEnv@@AEAPEAE@Z 000000014004a4c0 f i ConEmuApp.obj
 0001:00049d60       ?LoadStartupEnv_FillMonitors@LoadStartupEnvEx@@KAHPEAUHMONITOR__@@PEAUHDC__@@PEAUtagRECT@@_J@Z 000000014004ad60 f i ConEmuApp.obj
 0001:00049f00       ?LoadFonts@LoadStartupEnvEx@@KAPEA_WXZ 000000014004af00 f i ConEmuApp.obj
 0001:0004a210       ?LoadAutorunsKey@LoadStartupEnvEx@@KAXAEAPEAUHKEY__@@AEAPEA_WPEB_W@Z 000000014004b210 f i ConEmuApp.obj
 0001:0004a340       ?LoadAutoruns@LoadStartupEnvEx@@KAPEA_WXZ 000000014004b340 f i ConEmuApp.obj
 0001:0004a4a0       ?Create@LoadStartupEnvEx@@SAPEAUCEStartupEnv@@XZ 000000014004b4a0 f i ConEmuApp.obj
 0001:0004a770       ??1DontEnable@@QEAA@XZ     000000014004b770 f   ConEmuApp.obj
 0001:0004a790       ?GetWindowModeName@@YAPEB_WW4ConEmuWindowMode@@@Z 000000014004b790 f   ConEmuApp.obj
 0001:0004a7f0       ?ShutdownGuiStep@@YAXPEB_WHHHH@Z 000000014004b7f0 f   ConEmuApp.obj
 0001:0004a8e0       ?MyGetDlgItemText@@YA_KPEAUHWND__@@GAEA_KAEAPEA_W@Z 000000014004b8e0 f   ConEmuApp.obj
 0001:0004a9e0       ?GetColorRef@@YA_NPEB_WPEAK@Z 000000014004b9e0 f   ConEmuApp.obj
 0001:0004ac40       ?DupCygwinPath@@YAPEA_WPEB_W_N0@Z 000000014004bc40 f   ConEmuApp.obj
 0001:0004aef0       ?MakeWinPath@@YAPEB_WPEB_W0AEAUCEStr@@@Z 000000014004bef0 f   ConEmuApp.obj
 0001:0004b130       ?FixDirEndSlash@@YA_NPEA_W@Z 000000014004c130 f   ConEmuApp.obj
 0001:0004b1b0       ?SelectFolder@@YAPEA_WPEB_W0PEAUHWND__@@K@Z 000000014004c1b0 f   ConEmuApp.obj
 0001:0004b3c0       ?SelectFile@@YAPEA_WPEB_W00PEAUHWND__@@0K@Z 000000014004c3c0 f   ConEmuApp.obj
 0001:0004b640       ?StripWords@@YAXPEA_WPEB_W@Z 000000014004c640 f   ConEmuApp.obj
 0001:0004b7c0       ?StripLines@@YAXPEA_WPEB_W@Z 000000014004c7c0 f   ConEmuApp.obj
 0001:0004b8f0       ?AppWndProc@@YA_JPEAUHWND__@@I_K_J@Z 000000014004c8f0 f   ConEmuApp.obj
 0001:0004b9e0       ?getForegroundWindow@@YAPEAUHWND__@@XZ 000000014004c9e0 f   ConEmuApp.obj
 0001:0004ba50       ?CheckCreateAppWindow@@YAHXZ 000000014004ca50 f   ConEmuApp.obj
 0001:0004bce0       ?SkipShowWindowProc@@YA_JPEAUHWND__@@I_K_J@Z 000000014004cce0 f   ConEmuApp.obj
 0001:0004bda0       ?SkipOneShowWindow@@YAXXZ  000000014004cda0 f   ConEmuApp.obj
 0001:0004c090       ?PatchMsgBoxIcon@@YAXPEAUHWND__@@I_K_J@Z 000000014004d090 f   ConEmuApp.obj
 0001:0004c1a0       ?MsgBox@@YAHPEB_WI0PEAUHWND__@@_N@Z 000000014004d1a0 f   ConEmuApp.obj
 0001:0004c4b0       ?CreateDumpForReport@@YAKPEAU_EXCEPTION_POINTERS@@AEAY0EAA@_WAEAY0BEE@_WPEA_W@Z 000000014004d4b0 f   ConEmuApp.obj
 0001:0004ca70       ?AssertBox@@YAXPEB_W0IPEAU_EXCEPTION_POINTERS@@@Z 000000014004da70 f   ConEmuApp.obj
 0001:0004dc90       ?DisplayLastError@@YAHPEB_WKK0PEAUHWND__@@@Z 000000014004ec90 f   ConEmuApp.obj
 0001:0004de30       ?WarnCreateWindowFail@@YAXPEB_WPEAUHWND__@@K@Z 000000014004ee30 f   ConEmuApp.obj
 0001:0004e190       ?CenterInParent@@YA?AUtagRECT@@U1@PEAUHWND__@@@Z 000000014004f190 f   ConEmuApp.obj
 0001:0004e2f0       ?MoveWindowRect@@YAHPEAUHWND__@@AEBUtagRECT@@H@Z 000000014004f2f0 f   ConEmuApp.obj
 0001:0004e390       ?CreateNullIcon@@YAPEAUHICON__@@XZ 000000014004f390 f   ConEmuApp.obj
 0001:0004e430       ?MessageLoop@@YAXXZ        000000014004f430 f   ConEmuApp.obj
 0001:0004e6f0       ?PtMouseDblClickTest@@YA_NAEBUtagMSG@@U1@@Z 000000014004f6f0 f   ConEmuApp.obj
 0001:0004e8b0       ?ProcessMessage@@YA_NAEAUtagMSG@@@Z 000000014004f8b0 f   ConEmuApp.obj
 0001:0004eaf0       ?FindTopExplorerWindow@@YAPEAUHWND__@@XZ 000000014004faf0 f   ConEmuApp.obj
 0001:0004ebc0       ?getFocusedExplorerWindowPath@@YAPEA_WXZ 000000014004fbc0 f   ConEmuApp.obj
 0001:0004fb40       ?_CreateSeparatorLink@@YAJPEAPEAUIShellLinkW@@@Z 0000000140050b40 f   ConEmuApp.obj
 0001:0004fc00       ?UpdateWin7TaskList@@YA_N_N0@Z 0000000140050c00 f   ConEmuApp.obj
 0001:000504c0       ?UpdateAppUserModelID@@YAJXZ 00000001400514c0 f   ConEmuApp.obj
 0001:00050c80       ?CreateDumpOnException@@YAJPEAU_EXCEPTION_POINTERS@@@Z 0000000140051c80 f   ConEmuApp.obj
 0001:00051090       ?CheckZoneIdentifiers@@YAH_N@Z 0000000140052090 f   ConEmuApp.obj
 0001:00051d20       ?ProcessCmdArg@@YAHPEB_W_N1AEAUCEStr@@AEA_N@Z 0000000140052d20 f   ConEmuApp.obj
 0001:00051f70       ?CheckForDebugArgs@@YAHPEB_W@Z 0000000140052f70 f   ConEmuApp.obj
 0001:00052450       WinMain                    0000000140053450 f   ConEmuApp.obj
 0001:00053b80       ?AllocateBlock@?$MMap@HUCEIconDrawHandles@@$0A@@@IEAAPEAUMapItems@1@XZ 0000000140054b80 f i SearchCtrl.obj
 0001:00053b80       ?AllocateBlock@?$MMap@PEAUHWND__@@PEAVCVirtualConsole@@$0A@@@IEAAPEAUMapItems@1@XZ 0000000140054b80 f i ConEmuApp.obj
 0001:00053b80       ?AllocateBlock@?$MMap@PEAVCVConGroup@@PEAVCVirtualConsole@@$0A@@@IEAAPEAUMapItems@1@XZ 0000000140054b80 f i TabBar.obj
 0001:00053b80       ?AllocateBlock@?$MMap@PEAUHWND__@@PEAVCDynDialog@@$0A@@@IEAAPEAUMapItems@1@XZ 0000000140054b80 f i DynDialog.obj
 0001:00053ca0       ??$SafeDelete@VCLngRc@@@@YAXAEAPEAVCLngRc@@@Z 0000000140054ca0 f i ConEmuApp.obj
 0001:00053d30       ??_GCConEmuCtrl@@UEAAPEAXI@Z 0000000140054d30 f i ConEmuCtrl.obj
 0001:00053d30       ??_ECConEmuCtrl@@UEAAPEAXI@Z 0000000140054d30 f i * CIL library *:* CIL module *
 0001:00053d60       ??1CConEmuCtrl@@UEAA@XZ    0000000140054d60 f   ConEmuCtrl.obj
 0001:00053d70       ?ProcessHotKey@CConEmuCtrl@@QEAAPEBUConEmuHotKey@@AEBUConEmuChord@@_NPEB_WPEAVCRealConsole@@@Z 0000000140054d70 f   ConEmuCtrl.obj
 0001:00053f70       ?UpdateControlKeyState@CConEmuCtrl@@QEAAXXZ 0000000140054f70 f   ConEmuCtrl.obj
 0001:000540e0       ?ProcessHotKeyMsg@CConEmuCtrl@@QEAA_NI_K_JPEB_WPEAVCRealConsole@@@Z 00000001400550e0 f   ConEmuCtrl.obj
 0001:000544c0       ?FixSingleModifier@CConEmuCtrl@@QEAAXKPEAVCRealConsole@@@Z 00000001400554c0 f   ConEmuCtrl.obj
 0001:00054530       ?key_MinimizeRestore@CConEmuCtrl@@SA_NAEBUConEmuChord@@_NPEBUConEmuHotKey@@PEAVCRealConsole@@@Z 0000000140055530 f   ConEmuCtrl.obj
 0001:00054560       ?key_MinimizeByEsc@CConEmuCtrl@@SA_NAEBUConEmuChord@@_NPEBUConEmuHotKey@@PEAVCRealConsole@@@Z 0000000140055560 f   ConEmuCtrl.obj
 0001:00054620       ?key_GlobalRestore@CConEmuCtrl@@SA_NAEBUConEmuChord@@_NPEBUConEmuHotKey@@PEAVCRealConsole@@@Z 0000000140055620 f   ConEmuCtrl.obj
 0001:00054650       ?key_MultiNew@CConEmuCtrl@@SA_NAEBUConEmuChord@@_NPEBUConEmuHotKey@@PEAVCRealConsole@@@Z 0000000140055650 f   ConEmuCtrl.obj
 0001:000546c0       ?key_MultiNewShift@CConEmuCtrl@@SA_NAEBUConEmuChord@@_NPEBUConEmuHotKey@@PEAVCRealConsole@@@Z 00000001400556c0 f   ConEmuCtrl.obj
 0001:000546f0       ?key_MultiNewPopupMenu@CConEmuCtrl@@SA_NAEBUConEmuChord@@_NPEBUConEmuHotKey@@PEAVCRealConsole@@@Z 00000001400556f0 f   ConEmuCtrl.obj
 0001:00054720       ?key_MultiNewPopupMenu2@CConEmuCtrl@@SA_NAEBUConEmuChord@@_NPEBUConEmuHotKey@@PEAVCRealConsole@@@Z 0000000140055720 f   ConEmuCtrl.obj
 0001:00054750       ?key_MultiNewWindow@CConEmuCtrl@@SA_NAEBUConEmuChord@@_NPEBUConEmuHotKey@@PEAVCRealConsole@@@Z 0000000140055750 f   ConEmuCtrl.obj
 0001:00054780       ?key_MultiNewAttach@CConEmuCtrl@@SA_NAEBUConEmuChord@@_NPEBUConEmuHotKey@@PEAVCRealConsole@@@Z 0000000140055780 f   ConEmuCtrl.obj
 0001:000547c0       ?key_MultiNext@CConEmuCtrl@@SA_NAEBUConEmuChord@@_NPEBUConEmuHotKey@@PEAVCRealConsole@@@Z 00000001400557c0 f   ConEmuCtrl.obj
 0001:00054860       ?key_MultiPrev@CConEmuCtrl@@SA_NAEBUConEmuChord@@_NPEBUConEmuHotKey@@PEAVCRealConsole@@@Z 0000000140055860 f   ConEmuCtrl.obj
 0001:000548f0       ?key_MultiRecreate@CConEmuCtrl@@SA_NAEBUConEmuChord@@_NPEBUConEmuHotKey@@PEAVCRealConsole@@@Z 00000001400558f0 f   ConEmuCtrl.obj
 0001:00054920       ?key_AlternativeBuffer@CConEmuCtrl@@SA_NAEBUConEmuChord@@_NPEBUConEmuHotKey@@PEAVCRealConsole@@@Z 0000000140055920 f   ConEmuCtrl.obj
 0001:00054940       ?key_MultiBuffer@CConEmuCtrl@@SA_NAEBUConEmuChord@@_NPEBUConEmuHotKey@@PEAVCRealConsole@@@Z 0000000140055940 f   ConEmuCtrl.obj
 0001:00054960       ?key_DuplicateRoot@CConEmuCtrl@@SA_NAEBUConEmuChord@@_NPEBUConEmuHotKey@@PEAVCRealConsole@@@Z 0000000140055960 f   ConEmuCtrl.obj
 0001:000549a0       ?key_MultiCmd@CConEmuCtrl@@SA_NAEBUConEmuChord@@_NPEBUConEmuHotKey@@PEAVCRealConsole@@@Z 00000001400559a0 f   ConEmuCtrl.obj
 0001:00054c20       ?key_CTSVkBlockStart@CConEmuCtrl@@SA_NAEBUConEmuChord@@_NPEBUConEmuHotKey@@PEAVCRealConsole@@@Z 0000000140055c20 f   ConEmuCtrl.obj
 0001:00054e10       ?key_CTSVkTextStart@CConEmuCtrl@@SA_NAEBUConEmuChord@@_NPEBUConEmuHotKey@@PEAVCRealConsole@@@Z 0000000140055e10 f   ConEmuCtrl.obj
 0001:00055000       ?key_SystemMenu@CConEmuCtrl@@SA_NAEBUConEmuChord@@_NPEBUConEmuHotKey@@PEAVCRealConsole@@@Z 0000000140056000 f   ConEmuCtrl.obj
 0001:000550b0       ?key_TabMenu@CConEmuCtrl@@SA_NAEBUConEmuChord@@_NPEBUConEmuHotKey@@PEAVCRealConsole@@@Z 00000001400560b0 f   ConEmuCtrl.obj
 0001:00055160       ?key_ShowRealConsole@CConEmuCtrl@@SA_NAEBUConEmuChord@@_NPEBUConEmuHotKey@@PEAVCRealConsole@@@Z 0000000140056160 f   ConEmuCtrl.obj
 0001:00055190       ?key_ForcedFullScreen@CConEmuCtrl@@SA_NAEBUConEmuChord@@_NPEBUConEmuHotKey@@PEAVCRealConsole@@@Z 0000000140056190 f   ConEmuCtrl.obj
 0001:000551c0       ?key_SwitchGuiFocus@CConEmuCtrl@@SA_NAEBUConEmuChord@@_NPEBUConEmuHotKey@@PEAVCRealConsole@@@Z 00000001400561c0 f   ConEmuCtrl.obj
 0001:00055220       ?key_ChildSystemMenu@CConEmuCtrl@@SA_NAEBUConEmuChord@@_NPEBUConEmuHotKey@@PEAVCRealConsole@@@Z 0000000140056220 f   ConEmuCtrl.obj
 0001:000552e0       ?key_BufferScroll@CConEmuCtrl@@SA_N_NEPEAVCRealConsole@@@Z 00000001400562e0 f   ConEmuCtrl.obj
 0001:00055410       ?key_BufferScrollUp@CConEmuCtrl@@SA_NAEBUConEmuChord@@_NPEBUConEmuHotKey@@PEAVCRealConsole@@@Z 0000000140056410 f   ConEmuCtrl.obj
 0001:00055430       ?key_BufferScrollDown@CConEmuCtrl@@SA_NAEBUConEmuChord@@_NPEBUConEmuHotKey@@PEAVCRealConsole@@@Z 0000000140056430 f   ConEmuCtrl.obj
 0001:00055450       ?key_BufferScrollPgUp@CConEmuCtrl@@SA_NAEBUConEmuChord@@_NPEBUConEmuHotKey@@PEAVCRealConsole@@@Z 0000000140056450 f   ConEmuCtrl.obj
 0001:00055470       ?key_BufferScrollPgDn@CConEmuCtrl@@SA_NAEBUConEmuChord@@_NPEBUConEmuHotKey@@PEAVCRealConsole@@@Z 0000000140056470 f   ConEmuCtrl.obj
 0001:00055490       ?key_CtrlShiftTab@CConEmuCtrl@@SA_NAEBUConEmuChord@@_NPEBUConEmuHotKey@@PEAVCRealConsole@@@Z 0000000140056490 f   ConEmuCtrl.obj
 0001:00055490       ?key_CtrlTab@CConEmuCtrl@@SA_NAEBUConEmuChord@@_NPEBUConEmuHotKey@@PEAVCRealConsole@@@Z 0000000140056490 f   ConEmuCtrl.obj
 0001:00055550       ?key_CtrlTab_Prev@CConEmuCtrl@@SA_NAEBUConEmuChord@@_NPEBUConEmuHotKey@@PEAVCRealConsole@@@Z 0000000140056550 f   ConEmuCtrl.obj
 0001:00055550       ?key_CtrlTab_Next@CConEmuCtrl@@SA_NAEBUConEmuChord@@_NPEBUConEmuHotKey@@PEAVCRealConsole@@@Z 0000000140056550 f   ConEmuCtrl.obj
 0001:000555b0       ?key_WinSize@CConEmuCtrl@@SA_NE@Z 00000001400565b0 f   ConEmuCtrl.obj
 0001:00055850       ?key_WinWidthDec@CConEmuCtrl@@SA_NAEBUConEmuChord@@_NPEBUConEmuHotKey@@PEAVCRealConsole@@@Z 0000000140056850 f   ConEmuCtrl.obj
 0001:00055860       ?key_WinWidthInc@CConEmuCtrl@@SA_NAEBUConEmuChord@@_NPEBUConEmuHotKey@@PEAVCRealConsole@@@Z 0000000140056860 f   ConEmuCtrl.obj
 0001:00055870       ?key_WinHeightDec@CConEmuCtrl@@SA_NAEBUConEmuChord@@_NPEBUConEmuHotKey@@PEAVCRealConsole@@@Z 0000000140056870 f   ConEmuCtrl.obj
 0001:00055880       ?key_WinHeightInc@CConEmuCtrl@@SA_NAEBUConEmuChord@@_NPEBUConEmuHotKey@@PEAVCRealConsole@@@Z 0000000140056880 f   ConEmuCtrl.obj
 0001:00055890       ?key_ConsoleNum@CConEmuCtrl@@SA_NAEBUConEmuChord@@_NPEBUConEmuHotKey@@PEAVCRealConsole@@@Z 0000000140056890 f   ConEmuCtrl.obj
 0001:00055950       ?key_GuiMacro@CConEmuCtrl@@SA_NAEBUConEmuChord@@_NPEBUConEmuHotKey@@PEAVCRealConsole@@@Z 0000000140056950 f   ConEmuCtrl.obj
 0001:00055a10       ?ChooseTabFromMenu@CConEmuCtrl@@SAXHUtagPOINT@@K@Z 0000000140056a10 f   ConEmuCtrl.obj
 0001:00055c00       ?key_ShowTabsList@CConEmuCtrl@@SA_NAEBUConEmuChord@@_NPEBUConEmuHotKey@@PEAVCRealConsole@@@Z 0000000140056c00 f   ConEmuCtrl.obj
 0001:00055d00       ?key_RenameTab@CConEmuCtrl@@SA_NAEBUConEmuChord@@_NPEBUConEmuHotKey@@PEAVCRealConsole@@@Z 0000000140056d00 f   ConEmuCtrl.obj
 0001:00055d20       ?key_MoveTabLeft@CConEmuCtrl@@SA_NAEBUConEmuChord@@_NPEBUConEmuHotKey@@PEAVCRealConsole@@@Z 0000000140056d20 f   ConEmuCtrl.obj
 0001:00055dc0       ?key_MoveTabRight@CConEmuCtrl@@SA_NAEBUConEmuChord@@_NPEBUConEmuHotKey@@PEAVCRealConsole@@@Z 0000000140056dc0 f   ConEmuCtrl.obj
 0001:00055e60       ?key_ShowStatusBar@CConEmuCtrl@@SA_NAEBUConEmuChord@@_NPEBUConEmuHotKey@@PEAVCRealConsole@@@Z 0000000140056e60 f   ConEmuCtrl.obj
 0001:00055e80       ?key_ShowTabBar@CConEmuCtrl@@SA_NAEBUConEmuChord@@_NPEBUConEmuHotKey@@PEAVCRealConsole@@@Z 0000000140056e80 f   ConEmuCtrl.obj
 0001:00055ea0       ?key_ShowCaption@CConEmuCtrl@@SA_NAEBUConEmuChord@@_NPEBUConEmuHotKey@@PEAVCRealConsole@@@Z 0000000140056ea0 f   ConEmuCtrl.obj
 0001:00055ff0       ?key_AlwaysOnTop@CConEmuCtrl@@SA_NAEBUConEmuChord@@_NPEBUConEmuHotKey@@PEAVCRealConsole@@@Z 0000000140056ff0 f   ConEmuCtrl.obj
 0001:00056030       ?key_PasteText@CConEmuCtrl@@SA_NAEBUConEmuChord@@_NPEBUConEmuHotKey@@PEAVCRealConsole@@@Z 0000000140057030 f   ConEmuCtrl.obj
 0001:00056060       ?key_PasteTextAllApp@CConEmuCtrl@@SA_NAEBUConEmuChord@@_NPEBUConEmuHotKey@@PEAVCRealConsole@@@Z 0000000140057060 f   ConEmuCtrl.obj
 0001:00056180       ?key_PasteFirstLine@CConEmuCtrl@@SA_NAEBUConEmuChord@@_NPEBUConEmuHotKey@@PEAVCRealConsole@@@Z 0000000140057180 f   ConEmuCtrl.obj
 0001:000561b0       ?key_PasteFirstLineAllApp@CConEmuCtrl@@SA_NAEBUConEmuChord@@_NPEBUConEmuHotKey@@PEAVCRealConsole@@@Z 00000001400571b0 f   ConEmuCtrl.obj
 0001:000562e0       ?StatusCommand@CConEmuCtrl@@SAXW4ConEmuStatusCommand@@HPEB_WPEAVCRealConsole@@@Z 00000001400572e0 f   ConEmuCtrl.obj
 0001:00056460       ?TabCommand@CConEmuCtrl@@SAXW4ConEmuTabCommand@@@Z 0000000140057460 f   ConEmuCtrl.obj
 0001:00056550       ?GetOpenedTabs@CConEmuCtrl@@SA_KAEAPEAUTabInfo@CESERVER_REQ_GETALLTABS@@@Z 0000000140057550 f   ConEmuCtrl.obj
 0001:00056b00       ?GetOpenedPanels@CConEmuCtrl@@SA_KAEAPEA_WAEAH1@Z 0000000140057b00 f   ConEmuCtrl.obj
 0001:000570d0       ?key_DeleteWordToLeft@CConEmuCtrl@@SA_NAEBUConEmuChord@@_NPEBUConEmuHotKey@@PEAVCRealConsole@@@Z 00000001400580d0 f   ConEmuCtrl.obj
 0001:00057120       ?key_RunTask@CConEmuCtrl@@SA_NAEBUConEmuChord@@_NPEBUConEmuHotKey@@PEAVCRealConsole@@@Z 0000000140058120 f   ConEmuCtrl.obj
 0001:00057210       ?key_FindTextDlg@CConEmuCtrl@@SA_NAEBUConEmuChord@@_NPEBUConEmuHotKey@@PEAVCRealConsole@@@Z 0000000140058210 f   ConEmuCtrl.obj
 0001:00057270       ?DoFindText@CConEmuCtrl@@SAXHPEAVCRealConsole@@@Z 0000000140058270 f   ConEmuCtrl.obj
 0001:00057330       ?DoEndFindText@CConEmuCtrl@@SAXPEAVCRealConsole@@@Z 0000000140058330 f   ConEmuCtrl.obj
 0001:000573e0       ?SkipOneAppsRelease@CConEmuCtrl@@QEAAX_N@Z 00000001400583e0 f   ConEmuCtrl.obj
 0001:00057460       ?SkipOneAppsReleaseHook@CConEmuCtrl@@CA_JH_K_J@Z 0000000140058460 f   ConEmuCtrl.obj
 0001:000574b0       ?key_Screenshot@CConEmuCtrl@@SA_NAEBUConEmuChord@@_NPEBUConEmuHotKey@@PEAVCRealConsole@@@Z 00000001400584b0 f   ConEmuCtrl.obj
 0001:000574d0       ?key_ScreenshotFull@CConEmuCtrl@@SA_NAEBUConEmuChord@@_NPEBUConEmuHotKey@@PEAVCRealConsole@@@Z 00000001400584d0 f   ConEmuCtrl.obj
 0001:000574f0       ?MakeScreenshot@CConEmuCtrl@@SAX_N@Z 00000001400584f0 f   ConEmuCtrl.obj
 0001:00057740       ??1CConEmuPipe@@QEAA@XZ    0000000140058740 f   ConEmuPipe.obj
 0001:00057750       ?Close@CConEmuPipe@@QEAAXXZ 0000000140058750 f   ConEmuPipe.obj
 0001:00057810       ?Init@CConEmuPipe@@QEAAHPEB_WH@Z 0000000140058810 f   ConEmuPipe.obj
 0001:000579c0       ?Execute@CConEmuPipe@@QEAAHHPEBXI@Z 00000001400589c0 f   ConEmuPipe.obj
 0001:00057df0       ?Read@CConEmuPipe@@QEAAHPEAXKPEAK@Z 0000000140058df0 f   ConEmuPipe.obj
 0001:00057eb0       ??1NestedCallCounter@@QEAA@XZ 0000000140058eb0 f i ConEmuSize.obj
 0001:00057ec0       ?SetFromString@CESize@@QEAA_N_NPEB_W@Z 0000000140058ec0 f i ConEmuSize.obj
 0001:00057f90       ??0CConEmuSize@@QEAA@PEAVCConEmuMain@@@Z 0000000140058f90 f   ConEmuSize.obj
 0001:00058130       ??_GCConEmuSize@@UEAAPEAXI@Z 0000000140059130 f i ConEmuSize.obj
 0001:00058130       ??_ECConEmuSize@@UEAAPEAXI@Z 0000000140059130 f i * CIL library *:* CIL module *
 0001:00058180       ??1CConEmuSize@@UEAA@XZ    0000000140059180 f   ConEmuSize.obj
 0001:000581a0       ?CalcMargins@CConEmuSize@@QEAA?AUtagRECT@@KW4ConEmuWindowMode@@@Z 00000001400591a0 f   ConEmuSize.obj
 0001:00058480       ?CalcMargins_Win10Frame@CConEmuSize@@IEAA?AUtagRECT@@XZ 0000000140059480 f   ConEmuSize.obj
 0001:000586f0       ?CalcMargins_FrameCaption@CConEmuSize@@IEAA?AUtagRECT@@KW4ConEmuWindowMode@@@Z 00000001400596f0 f   ConEmuSize.obj
 0001:00058880       ?CalcMargins_TabBar@CConEmuSize@@IEAA?AUtagRECT@@K@Z 0000000140059880 f   ConEmuSize.obj
 0001:00058a80       ?CalcMargins_VisibleFrame@CConEmuSize@@IEAA?AUtagRECT@@PEAU2@@Z 0000000140059a80 f   ConEmuSize.obj
 0001:00058c10       ?CalcRect@CConEmuSize@@QEAA?AUtagRECT@@W4ConEmuRect@@PEAVCVirtualConsole@@@Z 0000000140059c10 f   ConEmuSize.obj
 0001:00058ed0       ?CalcRect@CConEmuSize@@QEAA?AUtagRECT@@W4ConEmuRect@@AEBU2@0PEAVCVirtualConsole@@W4ConEmuMargins@@@Z 0000000140059ed0 f   ConEmuSize.obj
 0001:000594b0       ?GetDefaultSize@CConEmuSize@@QEAA?AUtagSIZE@@_NPEBTCESize@@1PEAUHMONITOR__@@@Z 000000014005a4b0 f   ConEmuSize.obj
 0001:00059c00       ?FindInitialMonitor@CConEmuSize@@AEAAPEAUHMONITOR__@@PEAUtagMONITORINFO@@@Z 000000014005ac00 f   ConEmuSize.obj
 0001:00059d70       ?SetWindowPosSize@CConEmuSize@@QEAA_NPEB_W000@Z 000000014005ad70 f   ConEmuSize.obj
 0001:0005a2d0       ?SetWindowPosSizeParam@CConEmuSize@@QEAAX_WPEB_W@Z 000000014005b2d0 f   ConEmuSize.obj
 0001:0005a3e0       ?CheckQuakeRect@CConEmuSize@@IEAA_NPEAUtagRECT@@@Z 000000014005b3e0 f   ConEmuSize.obj
 0001:0005a6f0       ?VisualPosFromReal@CConEmuSize@@IEAA?AUtagPOINT@@HH@Z 000000014005b6f0 f   ConEmuSize.obj
 0001:0005a780       ?RealPosFromVisual@CConEmuSize@@IEAA?AUtagPOINT@@HH@Z 000000014005b780 f   ConEmuSize.obj
 0001:0005a810       ?GetDefaultRect@CConEmuSize@@QEAA?AUtagRECT@@XZ 000000014005b810 f   ConEmuSize.obj
 0001:0005ab30       ?ReloadMonitorInfo@CConEmuSize@@QEAAXXZ 000000014005bb30 f   ConEmuSize.obj
 0001:0005b270       ?GetIdealRect@CConEmuSize@@QEAA?AUtagRECT@@XZ 000000014005c270 f   ConEmuSize.obj
 0001:0005b330       ?StoreIdealRect@CConEmuSize@@QEAAXXZ 000000014005c330 f   ConEmuSize.obj
 0001:0005b3a0       ?AutoSizeFont@CConEmuSize@@QEAAXUtagRECT@@W4ConEmuRect@@@Z 000000014005c3a0 f   ConEmuSize.obj
 0001:0005b500       ?UpdateIdealRect@CConEmuSize@@IEAAXUtagRECT@@@Z 000000014005c500 f   ConEmuSize.obj
 0001:0005b5c0       ?FixWindowRect@CConEmuSize@@IEAA_NAEAUtagRECT@@K_N@Z 000000014005c5c0 f   ConEmuSize.obj
 0001:0005bb40       ?FixPosByStartupMonitor@CConEmuSize@@IEAA_NQEAUHMONITOR__@@@Z 000000014005cb40 f   ConEmuSize.obj
 0001:0005bfb0       ?StoreNormalRect@CConEmuSize@@IEAAXPEAUtagRECT@@@Z 000000014005cfb0 f   ConEmuSize.obj
 0001:0005c420       ?CascadedPosFix@CConEmuSize@@QEAAXXZ 000000014005d420 f   ConEmuSize.obj
 0001:0005c6b0       ?GetNearestMonitor@CConEmuSize@@QEAAPEAUHMONITOR__@@PEAUtagMONITORINFO@@PEBUtagRECT@@@Z 000000014005d6b0 f   ConEmuSize.obj
 0001:0005c8c0       ?GetPrimaryMonitor@CConEmuSize@@QEAAPEAUHMONITOR__@@PEAUtagMONITORINFO@@@Z 000000014005d8c0 f   ConEmuSize.obj
 0001:0005ca60       ?OnGetMinMaxInfo@CConEmuSize@@QEAA_JPEAUtagMINMAXINFO@@@Z 000000014005da60 f   ConEmuSize.obj
 0001:0005d000       ?OnWindowPosChanged@CConEmuSize@@QEAA_JPEAUHWND__@@I_K_J@Z 000000014005e000 f   ConEmuSize.obj
 0001:0005d5f0       ?OnWindowPosChanging@CConEmuSize@@QEAA_JPEAUHWND__@@I_K_J@Z 000000014005e5f0 f   ConEmuSize.obj
 0001:0005ddd0       ?CheckDpiOnMoving@CConEmuSize@@IEAA_NPEAUtagWINDOWPOS@@@Z 000000014005edd0 f   ConEmuSize.obj
 0001:0005ded0       ?OnSize@CConEmuSize@@QEAA_J_N_KGG@Z 000000014005eed0 f   ConEmuSize.obj
 0001:0005e170       ?OnSizing@CConEmuSize@@QEAA_J_K_J@Z 000000014005f170 f   ConEmuSize.obj
 0001:0005e720       ?OnMoving@CConEmuSize@@QEAA_JPEAUtagRECT@@_N@Z 000000014005f720 f   ConEmuSize.obj
 0001:0005edc0       ?SizeWindow@CConEmuSize@@QEAA_NTCESize@@0@Z 000000014005fdc0 f   ConEmuSize.obj
 0001:0005ef50       ?SetQuakeMode@CConEmuSize@@QEAA_NEW4ConEmuWindowMode@@_N@Z 000000014005ff50 f   ConEmuSize.obj
 0001:0005f2b0       ?FormatTileMode@CConEmuSize@@SAPEB_WW4ConEmuWindowCommand@@PEA_W_K@Z 00000001400602b0 f   ConEmuSize.obj
 0001:0005f440       ?SetNormalWindowSize@CConEmuSize@@IEAA?AUtagRECT@@XZ 0000000140060440 f   ConEmuSize.obj
 0001:0005f510       ?SetTileMode@CConEmuSize@@QEAA_NW4ConEmuWindowCommand@@@Z 0000000140060510 f   ConEmuSize.obj
 0001:0005fb00       ?GetTileRect@CConEmuSize@@QEAA?AUtagRECT@@W4ConEmuWindowCommand@@AEBUtagMONITORINFO@@@Z 0000000140060b00 f   ConEmuSize.obj
 0001:0005fcd0       ?LogTileModeChange@CConEmuSize@@IEAAXPEB_WW4ConEmuWindowCommand@@_NAEBUtagRECT@@PEAU3@PEAUHMONITOR__@@@Z 0000000140060cd0 f   ConEmuSize.obj
 0001:0005fed0       ?EvalTileMode@CConEmuSize@@QEAA?AW4ConEmuWindowCommand@@AEBUtagRECT@@PEAUtagMONITORINFO@@@Z 0000000140060ed0 f   ConEmuSize.obj
 0001:00060260       ?GetTileMode@CConEmuSize@@QEAA?AW4ConEmuWindowCommand@@_NPEAUtagMONITORINFO@@@Z 0000000140061260 f   ConEmuSize.obj
 0001:00060440       ?IsSizePosFree@CConEmuSize@@QEAA_NW4ConEmuWindowMode@@@Z 0000000140061440 f   ConEmuSize.obj
 0001:00060490       ?JumpNextMonitor@CConEmuSize@@QEAA_N_N@Z 0000000140061490 f   ConEmuSize.obj
 0001:00060690       ?EvalNewNormalPos@CConEmuSize@@IEAAXAEBUtagMONITORINFO@@PEAUHMONITOR__@@0AEBUtagRECT@@AEAU4@@Z 0000000140061690 f   ConEmuSize.obj
 0001:00060810       ?JumpNextMonitor@CConEmuSize@@QEAA_NPEAUHWND__@@PEAUHMONITOR__@@_NUtagRECT@@PEAU4@@Z 0000000140061810 f   ConEmuSize.obj
 0001:00060d40       ?SetWindowMode@CConEmuSize@@QEAA_NW4ConEmuWindowMode@@_N1@Z 0000000140061d40 f   ConEmuSize.obj
 0001:00062050       ?ReSize@CConEmuSize@@QEAAX_N@Z 0000000140063050 f   ConEmuSize.obj
 0001:000622a0       ?OnConsoleResize@CConEmuSize@@QEAAX_N@Z 00000001400632a0 f   ConEmuSize.obj
 0001:00062590       ?OnSizePanels@CConEmuSize@@QEAAXU_COORD@@@Z 0000000140063590 f   ConEmuSize.obj
 0001:00062b50       ?OnDpiChangedCall@CConEmuSize@@KA_J_J@Z 0000000140063b50 f   ConEmuSize.obj
 0001:00062b90       ?OnDpiChanged@CConEmuSize@@QEAA_JIIPEAUtagRECT@@_NW4DpiChangeSource@@@Z 0000000140063b90 f   ConEmuSize.obj
 0001:000630c0       ?RecreateControls@CConEmuSize@@QEAAX_N00PEAUtagRECT@@@Z 00000001400640c0 f   ConEmuSize.obj
 0001:00063290       ?isIconic@CConEmuSize@@QEAA_N_N@Z 0000000140064290 f   ConEmuSize.obj
 0001:000633e0       ?isWindowNormal@CConEmuSize@@QEAA_NXZ 00000001400643e0 f   ConEmuSize.obj
 0001:00063470       ?isZoomed@CConEmuSize@@QEAA_NXZ 0000000140064470 f   ConEmuSize.obj
 0001:000634c0       ?isFullScreen@CConEmuSize@@QEAA_NXZ 00000001400644c0 f   ConEmuSize.obj
 0001:00063510       ?setWindowPos@CConEmuSize@@QEAA_NPEAUHWND__@@HHHHI@Z 0000000140064510 f   ConEmuSize.obj
 0001:00063770       ?UpdateWindowRgn@CConEmuSize@@QEAAXHHHH@Z 0000000140064770 f   ConEmuSize.obj
 0001:00063960       ?ShowMainWindow@CConEmuSize@@QEAA_NH_N@Z 0000000140064960 f   ConEmuSize.obj
 0001:00063bb0       ?AnimateWindow@CConEmuSize@@IEAAHKK@Z 0000000140064bb0 f   ConEmuSize.obj
 0001:00063c50       ?isSizing@CConEmuSize@@QEAA_NI@Z 0000000140064c50 f   ConEmuSize.obj
 0001:00063cc0       ?BeginSizing@CConEmuSize@@QEAAX_N@Z 0000000140064cc0 f   ConEmuSize.obj
 0001:00063d50       ?EndSizing@CConEmuSize@@QEAAXI@Z 0000000140064d50 f   ConEmuSize.obj
 0001:00063eb0       ?CheckTopMostState@CConEmuSize@@QEAAXXZ 0000000140064eb0 f   ConEmuSize.obj
 0001:00064030       ?StartForceShowFrame@CConEmuSize@@IEAAXXZ 0000000140065030 f   ConEmuSize.obj
 0001:00064080       ?StopForceShowFrame@CConEmuSize@@IEAAXXZ 0000000140065080 f   ConEmuSize.obj
 0001:000640d0       ?InMinimizing@CConEmuSize@@QEAA_NPEAUtagWINDOWPOS@@@Z 00000001400650d0 f   ConEmuSize.obj
 0001:00064170       ?CreateWindowRgn@CConEmuSize@@QEAAPEAUHRGN__@@_N@Z 0000000140065170 f   ConEmuSize.obj
 0001:00064610       ?CreateWindowRgn@CConEmuSize@@QEAAPEAUHRGN__@@_N0HHHH@Z 0000000140065610 f   ConEmuSize.obj
 0001:00064950       ?EvalVConCreateSize@CConEmuSize@@QEAAXPEAVCVirtualConsole@@AEAI1@Z 0000000140065950 f   ConEmuSize.obj
 0001:000649f0       ?DoBringHere@CConEmuSize@@QEAAXXZ 00000001400659f0 f   ConEmuSize.obj
 0001:00064b90       ?DoFullScreen@CConEmuSize@@QEAAXXZ 0000000140065b90 f   ConEmuSize.obj
 0001:00064c30       ?DoMaximizeRestore@CConEmuSize@@QEAAXXZ 0000000140065c30 f   ConEmuSize.obj
 0001:00064c90       ?DoMinimizeRestore@CConEmuSize@@QEAAXW4SingleInstanceShowHideType@@@Z 0000000140065c90 f   ConEmuSize.obj
 0001:00065910       ?DoForcedFullScreen@CConEmuSize@@QEAAX_N@Z 0000000140066910 f   ConEmuSize.obj
 0001:00065ba0       ?DoAlwaysOnTopSwitch@CConEmuSize@@QEAAXXZ 0000000140066ba0 f   ConEmuSize.obj
 0001:00065c90       ?DoDesktopModeSwitch@CConEmuSize@@QEAAXXZ 0000000140066c90 f   ConEmuSize.obj
 0001:00065d80       ?FindNextSiblingApp@CConEmuSize@@QEAAPEAUHWND__@@_N@Z 0000000140066d80 f   ConEmuSize.obj
 0001:00065e80       ??0StartOptions@CConEmuStart@@QEAA@XZ 0000000140066e80 f i ConEmuStart.obj
 0001:000661d0       ??1CESwitch@@QEAA@XZ       00000001400671d0 f   ConEmuStart.obj
 0001:000661e0       ?Clear@CESwitch@@QEAAXXZ   00000001400671e0 f   ConEmuStart.obj
 0001:00066260       ?SetInt@CESwitch@@QEAAXPEB_WH@Z 0000000140067260 f   ConEmuStart.obj
 0001:000662b0       ?SetStr@CESwitch@@QEAAXPEB_WW4CESwitchType@@@Z 00000001400672b0 f   ConEmuStart.obj
 0001:00066360       ??0CConEmuStart@@QEAA@PEAVCConEmuMain@@@Z 0000000140067360 f   ConEmuStart.obj
 0001:00066460       ??_ECConEmuStart@@UEAAPEAXI@Z 0000000140067460 f i * CIL library *:* CIL module *
 0001:00066460       ??_GCConEmuStart@@UEAAPEAXI@Z 0000000140067460 f i ConEmuStart.obj
 0001:000664c0       ??1StartOptions@CConEmuStart@@QEAA@XZ 00000001400674c0 f i ConEmuStart.obj
 0001:000666a0       ??1CConEmuStart@@UEAA@XZ   00000001400676a0 f   ConEmuStart.obj
 0001:000666e0       ?SetDefaultCmd@CConEmuStart@@QEAAXPEB_W@Z 00000001400676e0 f   ConEmuStart.obj
 0001:00066870       ?GetCmd@CConEmuStart@@QEAAPEB_WPEA_N_N@Z 0000000140067870 f   ConEmuStart.obj
 0001:00066db0       ?GetDefaultTask@CConEmuStart@@QEAAPEB_WXZ 0000000140067db0 f   ConEmuStart.obj
 0001:00066fa0       ?FindBashLocation@CConEmuStart@@QEAA_NAEAUCEStr@@@Z 0000000140067fa0 f   ConEmuStart.obj
 0001:000671f0       ?ResetConman@CConEmuStart@@QEAAXXZ 00000001400681f0 f   ConEmuStart.obj
 0001:00067280       ?GetCfgParm@CConEmuStart@@IEAA_NAEAPEB_WAEAUCESwitch@@H_N@Z 0000000140068280 f   ConEmuStart.obj
 0001:00067510       ?ProcessConEmuArgsVar@CConEmuStart@@IEAAXXZ 0000000140068510 f   ConEmuStart.obj
 0001:000675f0       ?ParseCommandLine@CConEmuStart@@QEAA_NPEB_WAEAH@Z 00000001400685f0 f   ConEmuStart.obj
 0001:0006b930       ?TaskDialog@@YAJPEAU_TASKDIALOGCONFIG@@PEAH1PEA_N@Z 000000014006c930 f   ConfirmDlg.obj
 0001:0006ba50       ?ConfirmCloseConsoles@@YAHAEBUConfirmCloseParam@@@Z 000000014006ca50 f   ConfirmDlg.obj
 0001:0006c2b0       ?ConfirmDialog@@YAHPEB_W000IPEAUHWND__@@000000@Z 000000014006d2b0 f   ConfirmDlg.obj
 0001:0006d340       ??$wcscpy_c@$0IA@@@YAHAEAY0IA@_WPEB_W@Z 000000014006e340 f i ConfirmDlg.obj
 0001:0006d3a0       ?Release@CAdjustProcessToken@@QEAAXXZ 000000014006e3a0 f i CreateProcess.obj
 0001:0006d470       ?Enable@CAdjustProcessToken@@QEAAHPEAPEB_WH@Z 000000014006e470 f i CreateProcess.obj
 0001:0006d700       ?Enable@CAdjustProcessToken@@QEAAHHZZ 000000014006e700 f i CreateProcess.obj
 0001:0006d880       ?CreateProcessRestricted@@YAHPEB_WPEA_WPEAU_SECURITY_ATTRIBUTES@@2HKPEAX0PEAU_STARTUPINFOW@@PEAU_PROCESS_INFORMATION@@PEAK@Z 000000014006e880 f   CreateProcess.obj
 0001:0006db20       ?CreateProcessInteractive@@YAHKPEB_WPEA_WPEAU_SECURITY_ATTRIBUTES@@2HKPEAX0PEAU_STARTUPINFOW@@PEAU_PROCESS_INFORMATION@@PEAK@Z 000000014006eb20 f   CreateProcess.obj
 0001:0006e070       ?CreateProcessDemoted@@YAHPEA_WPEAU_SECURITY_ATTRIBUTES@@1HKPEAXPEB_WPEAU_STARTUPINFOW@@PEAU_PROCESS_INFORMATION@@PEAK@Z 000000014006f070 f   CreateProcess.obj
 0001:0006e260       ??_ECustomFont@@UEAAPEAXI@Z 000000014006f260 f i * CIL library *:* CIL module *
 0001:0006e260       ??_GCustomFont@@UEAAPEAXI@Z 000000014006f260 f i CustomFonts.obj
 0001:0006e290       ?AddFont@CustomFontFamily@@QEAAXPEAVCustomFont@@@Z 000000014006f290 f   CustomFonts.obj
 0001:0006e330       ?GetFont@CustomFontFamily@@QEAAPEAVCustomFont@@HHHH@Z 000000014006f330 f   CustomFonts.obj
 0001:0006e500       ?CreateBitmap@BDFFont@@AEAAXXZ 000000014006f500 f i CustomFonts.obj
 0001:0006e650       ??1BDFFont@@UEAA@XZ        000000014006f650 f i CustomFonts.obj
 0001:0006e6d0       ?LoadBuffer@BDFFont@@SAPEADPEB_WAEAPEAD1@Z 000000014006f6d0 f i CustomFonts.obj
 0001:0006e820       ?Load@BDFFont@@SAPEAV1@PEB_W@Z 000000014006f820 f i CustomFonts.obj
 0001:0006eeb0       ?GetFamilyName@BDFFont@@SA_NPEB_WAEAY0CA@_W@Z 000000014006feb0 f i CustomFonts.obj
 0001:0006f0d0       ?GetPageType@CSetPgSizePos@@UEAA?AW4TabHwndIndex@@XZ 00000001400700d0 f i SetPgSizePos.obj
 0001:0006f0d0       _get_startup_argv_mode     00000001400700d0 f i LIBCMT:argv_mode.obj
 0001:0006f0d0       ?IsMonospace@BDFFont@@UEAAHXZ 00000001400700d0 f i CustomFonts.obj
 0001:0006f0e0       ?HasUnicode@BDFFont@@UEAAHXZ 00000001400700e0 f i CustomFonts.obj
 0001:0006f0f0       ?HasBorders@BDFFont@@UEAAHXZ 00000001400700f0 f i CustomFonts.obj
 0001:0006f100       ?GetSize@BDFFont@@UEAAHXZ  0000000140070100 f i CustomFonts.obj
 0001:0006f110       ?IsBold@BDFFont@@UEAAHXZ   0000000140070110 f i CustomFonts.obj
 0001:0006f120       ?GetBoundingBox@BDFFont@@UEAAXPEAJ0@Z 0000000140070120 f i CustomFonts.obj
 0001:0006f130       ?TextDraw@BDFFont@@UEAAXPEAUHDC__@@HHPEB_WI@Z 0000000140070130 f i CustomFonts.obj
 0001:0006f1e0       ?TextDraw@BDFFont@@UEAAXPEAK_KKKPEB_WI@Z 00000001400701e0 f i CustomFonts.obj
 0001:0006f340       ??_GBDFFont@@UEAAPEAXI@Z   0000000140070340 f i CustomFonts.obj
 0001:0006f340       ??_EBDFFont@@UEAAPEAXI@Z   0000000140070340 f i * CIL library *:* CIL module *
 0001:0006f380       ??1CachedSolidBrush@@QEAA@XZ 0000000140070380 f   CustomFonts.obj
 0001:0006f3a0       ?Get@CachedSolidBrush@@QEAAPEAUHBRUSH__@@K@Z 00000001400703a0 f   CustomFonts.obj
 0001:0006f3f0       ?Reset@CEDC@@AEAAXXZ       00000001400703f0 f   CustomFonts.obj
 0001:0006f460       ?Delete@CEDC@@QEAAXXZ      0000000140070460 f   CustomFonts.obj
 0001:0006f4e0       ?Create@CEDC@@QEAA_NII@Z   00000001400704e0 f   CustomFonts.obj
 0001:0006f700       ?SelectFont@CEDC@@QEAAXPEAVCFont@@@Z 0000000140070700 f   CustomFonts.obj
 0001:0006f810       ?SetBkMode@CEDC@@QEAAXH@Z  0000000140070810 f   CustomFonts.obj
 0001:0006f880       ?TextDraw@CEDC@@QEAA_NHHIPEBUtagRECT@@PEB_WIPEBH@Z 0000000140070880 f   CustomFonts.obj
 0001:0006fa40       ?TextDrawOem@CEDC@@QEAA_NHHIPEBUtagRECT@@PEBDIPEBH@Z 0000000140070a40 f   CustomFonts.obj
 0001:0006fbe0       ?TextExtentPoint@CEDC@@QEAA_NPEB_WHPEAUtagSIZE@@@Z 0000000140070be0 f   CustomFonts.obj
 0001:0006fd10       ??1CEDefTermOpt@@QEAA@XZ   0000000140070d10 f i DefaultTerm.obj
 0001:0006fe40       ?Serialize@CEDefTermOpt@@QEAA_N_N@Z 0000000140070e40 f i DefaultTerm.obj
 0001:00070300       ?StopHookers@CDefTermBase@@MEAAXXZ 0000000140071300 f i DefaultTerm.obj
 0001:000703f0       ??0CDefTermBase@@QEAA@_N@Z 00000001400713f0 f i DefaultTerm.obj
 0001:00070520       ?Initialize@CDefTermBase@@IEAAX_N00@Z 0000000140071520 f i DefaultTerm.obj
 0001:00070870       ?isLogging@CDefTermBase@@UEAA_NXZ 0000000140071870 f i DefaultTerm.obj
 0001:00070870       ?SelectNextItem@CSetPgBase@@UEAA_N_N0@Z 0000000140071870 f i SetPgANSI.obj
 0001:00070870       ?NotifyHookingStatus@CDefTermBase@@MEAA_NKPEB_W@Z 0000000140071870 f i DefaultTerm.obj
 0001:00070880       ?AutoClearThreads@CDefTermBase@@MEAAXXZ 0000000140071880 f i DefaultTerm.obj
 0001:00070950       ?ClearThreads@CDefTermBase@@IEAAX_N@Z 0000000140071950 f i DefaultTerm.obj
 0001:00070a60       ?PostCreatedThread@CDefTermBase@@KAKPEAX@Z 0000000140071a60 f i DefaultTerm.obj
 0001:00070aa0       ??_ECDefTermBase@@UEAAPEAXI@Z 0000000140071aa0 f i * CIL library *:* CIL module *
 0001:00070aa0       ??_GCDefTermBase@@UEAAPEAXI@Z 0000000140071aa0 f i DefaultTerm.obj
 0001:00070b00       ??_GCDefaultTerminal@@UEAAPEAXI@Z 0000000140071b00 f i DefaultTerm.obj
 0001:00070b00       ??_ECDefaultTerminal@@UEAAPEAXI@Z 0000000140071b00 f i * CIL library *:* CIL module *
 0001:00070b70       ?isDefaultTerminalAllowed@CDefaultTerminal@@UEAA_N_N@Z 0000000140071b70 f   DefaultTerm.obj
 0001:00070ba0       ?IsRegisteredOsStartup@CDefaultTerminal@@QEAA_NPEAUCEStr@@PEA_N@Z 0000000140071ba0 f   DefaultTerm.obj
 0001:00070d10       ?CheckRegisterOsStartup@CDefaultTerminal@@QEAAXXZ 0000000140071d10 f   DefaultTerm.obj
 0001:00071360       ?StartGuiDefTerm@CDefaultTerminal@@QEAAX_N0@Z 0000000140072360 f   DefaultTerm.obj
 0001:00071410       ?PreCreateThread@CDefaultTerminal@@MEAAXXZ 0000000140072410 f   DefaultTerm.obj
 0001:00071430       ?GetInterface@CDefaultTerminal@@MEAAPEAVCDefTermBase@@XZ 0000000140072430 f   DefaultTerm.obj
 0001:00071440       ?DisplayLastError@CDefaultTerminal@@MEAAHPEB_WKK0PEAUHWND__@@@Z 0000000140072440 f   DefaultTerm.obj
 0001:00071470       ?ShowTrayIconError@CDefaultTerminal@@MEAAXPEB_W@Z 0000000140072470 f   DefaultTerm.obj
 0001:00071480       ?ReloadSettings@CDefaultTerminal@@MEAAXXZ 0000000140072480 f   DefaultTerm.obj
 0001:00071630       ?AutoClearThreads@CDefaultTerminal@@MEAAXXZ 0000000140072630 f   DefaultTerm.obj
 0001:00071720       ?ConhostLocker@CDefaultTerminal@@MEAAX_NAEA_N@Z 0000000140072720 f   DefaultTerm.obj
 0001:00071790       ?NotifyHookingStatus@CDefaultTerminal@@MEAA_NKPEB_W@Z 0000000140072790 f   DefaultTerm.obj
 0001:000718f0       ?LogHookingStatus@CDefaultTerminal@@UEAAXKPEB_W@Z 00000001400728f0 f   DefaultTerm.obj
 0001:00071aa0       ?isLogging@CDefaultTerminal@@UEAA_NXZ 0000000140072aa0 f   DefaultTerm.obj
 0001:00071b00       ?enableDlgItems@CDlgItemHelper@@SAXPEAUHWND__@@PEAI_J_N@Z 0000000140072b00 f   DlgItemHelper.obj
 0001:00071e70       ?isChecked2@CDlgItemHelper@@SA_NPEAUHWND__@@G@Z 0000000140072e70 f   DlgItemHelper.obj
 0001:00071ea0       ?GetNumber@CDlgItemHelper@@SAHPEAUHWND__@@GHH@Z 0000000140072ea0 f   DlgItemHelper.obj
 0001:00071f80       ?GetString@CDlgItemHelper@@SA_JPEAUHWND__@@GPEAPEA_WPEB_W_N@Z 0000000140072f80 f   DlgItemHelper.obj
 0001:00072200       ?ProcessHyperlinkCtrl@CDlgItemHelper@@SA_NPEAUHWND__@@G@Z 0000000140073200 f   DlgItemHelper.obj
 0001:000723f0       ?setProcessDPIAwareness@CDpiAware@@SAJXZ 00000001400733f0 f   DpiAware.obj
 0001:00072470       ?UpdateStartupInfo@CDpiAware@@SAXPEAUCEStartupEnv@@@Z 0000000140073470 f   DpiAware.obj
 0001:00072550       ?IsPerMonitorDpi@CDpiAware@@SA_NXZ 0000000140073550 f   DpiAware.obj
 0001:00072640       ?QueryDpiForMonitor@CDpiAware@@SAHPEAUHMONITOR__@@PEAUDpiValue@@W4MonitorDpiType@@@Z 0000000140073640 f   DpiAware.obj
 0001:000727d0       ?GetCenteredRect@CDpiAware@@SAXPEAUHWND__@@AEAUtagRECT@@PEAUHMONITOR__@@@Z 00000001400737d0 f   DpiAware.obj
 0001:00072870       ?CenterDialog@CDpiAware@@SAXPEAUHWND__@@@Z 0000000140073870 f   DpiAware.obj
 0001:00072a40       ??0CDpiForDialog@@QEAA@XZ  0000000140073a40 f   DpiAware.obj
 0001:00072af0       ?Attach@CDpiForDialog@@QEAA_NPEAUHWND__@@0PEAVCDynDialog@@@Z 0000000140073af0 f   DpiAware.obj
 0001:00072e00       ?SetDialogDPI@CDpiForDialog@@QEAA_NAEBUDpiValue@@PEAUtagRECT@@@Z 0000000140073e00 f   DpiAware.obj
 0001:000736d0       ?Detach@CDpiForDialog@@QEAAXXZ 00000001400746d0 f   DpiAware.obj
 0001:00073810       ?ProcessDpiMessages@CDpiForDialog@@QEAA_NPEAUHWND__@@I_K_J@Z 0000000140074810 f   DpiAware.obj
 0001:00073890       ?LoadDialogItems@CDpiForDialog@@KAPEAV?$MArray@UDlgItem@CDpiForDialog@@@@PEAUHWND__@@@Z 0000000140074890 f   DpiAware.obj
 0001:00073a80       ?Set@?$MMap@HPEAV?$MArray@UDlgItem@CDpiForDialog@@@@$0A@@@QEAA_NAEBHAEBQEAV?$MArray@UDlgItem@CDpiForDialog@@@@@Z 0000000140074a80 f i DpiAware.obj
 0001:00073bc0       ??0CDragDrop@@QEAA@XZ      0000000140074bc0 f   DragDrop.obj
 0001:00073d20       ??_ECDragDrop@@UEAAPEAXI@Z 0000000140074d20 f i * CIL library *:* CIL module *
 0001:00073d20       ??_GCDragDrop@@UEAAPEAXI@Z 0000000140074d20 f i DragDrop.obj
 0001:00073d60       ??1CDragDrop@@UEAA@XZ      0000000140074d60 f   DragDrop.obj
 0001:000740c0       ?DragStart@CDragDrop@@IEAAKPEAUIDropSource@@KAEAK@Z 00000001400750c0 f   DragDrop.obj
 0001:00074410       ?Drag@CDragDrop@@QEAAXHU_COORD@@@Z 0000000140075410 f   DragDrop.obj
 0001:000745d0       ?FileCreateName@CDragDrop@@IEAAPEA_WHHPEB_W0@Z 00000001400755d0 f   DragDrop.obj
 0001:00074c30       ?FileStart@CDragDrop@@IEAAPEAXPEB_W@Z 0000000140075c30 f   DragDrop.obj
 0001:00074d90       ?FileWrite@CDragDrop@@IEAAJPEAXK0@Z 0000000140075d90 f   DragDrop.obj
 0001:00074ee0       ?DropFromStream@CDragDrop@@IEAAJPEAUIDataObject@@H@Z 0000000140075ee0 f   DragDrop.obj
 0001:00075b70       ?DropFromText@CDragDrop@@IEAAJPEAUIDataObject@@@Z 0000000140076b70 f   DragDrop.obj
 0001:00075d00       ?DropNames@CDragDrop@@IEAAJPEAUHDROP__@@HH@Z 0000000140076d00 f   DragDrop.obj
 0001:000765f0       ?DropLinks@CDragDrop@@IEAAJPEAUHDROP__@@HH@Z 00000001400775f0 f   DragDrop.obj
 0001:00076930       ?Drop@CDragDrop@@UEAAJPEAUIDataObject@@KU_POINTL@@PEAK@Z 0000000140077930 f   DragDrop.obj
 0001:00076cf0       ?DropShellOp@CDragDrop@@IEAAJPEAUIDataObject@@PEAKAEAUtagSTGMEDIUM@@HH@Z 0000000140077cf0 f   DragDrop.obj
 0001:00077390       ?ShellOpThreadProc@CDragDrop@@KAKPEAX@Z 0000000140078390 f   DragDrop.obj
 0001:00077590       ?DragOver@CDragDrop@@UEAAJKU_POINTL@@PEAK@Z 0000000140078590 f   DragDrop.obj
 0001:00077670       ?DragOverInt@CDragDrop@@IEAAJKU_POINTL@@PEAK@Z 0000000140078670 f   DragDrop.obj
 0001:00077a80       ?DragEnter@CDragDrop@@UEAAJPEAUIDataObject@@KU_POINTL@@PEAK@Z 0000000140078a80 f   DragDrop.obj
 0001:00077c30       ?DragLeave@CDragDrop@@UEAAJXZ 0000000140078c30 f   DragDrop.obj
 0001:00077c60       ?CreateLink@CDragDrop@@QEAAJPEB_W00@Z 0000000140078c60 f   DragDrop.obj
 0001:00077d30       ?ReportUnknownData@CDragDrop@@IEAAXPEAUIDataObject@@PEB_W@Z 0000000140078d30 f   DragDrop.obj
 0001:00077ff0       ??_ECDragDrop@@WBA@EAAPEAXI@Z 0000000140078ff0 f i DragDrop.obj
 0001:00078000       ??_GCDragDropData@@UEAAPEAXI@Z 0000000140079000 f i DragDropData.obj
 0001:00078000       ??_ECDragDropData@@UEAAPEAXI@Z 0000000140079000 f i * CIL library *:* CIL module *
 0001:00078040       ??1CDragDropData@@UEAA@XZ  0000000140079040 f   DragDropData.obj
 0001:00078120       ?UseTargetHelper@CDragDropData@@IEAA_N_N@Z 0000000140079120 f   DragDropData.obj
 0001:000781f0       ?UseSourceHelper@CDragDropData@@IEAA_NXZ 00000001400791f0 f   DragDropData.obj
 0001:000782c0       ?RetrieveDragFromInfo@CDragDropData@@AEAAHHU_COORD@@PEAPEA_WPEAI@Z 00000001400792c0 f   DragDropData.obj
 0001:00078980       ?AddFmt_SHELLIDLIST@CDragDropData@@AEAAHPEA_WIH@Z 0000000140079980 f   DragDropData.obj
 0001:00078d30       ?AddFmt_PREFERREDDROPEFFECT@CDragDropData@@AEAAHPEA_WIH@Z 0000000140079d30 f   DragDropData.obj
 0001:00078e20       ?AddFmt_InShellDragLoop@CDragDropData@@AEAAHPEA_WIH@Z 0000000140079e20 f   DragDropData.obj
 0001:00078ee0       ?AddFmt_HDROP@CDragDropData@@AEAAHPEA_WIH@Z 0000000140079ee0 f   DragDropData.obj
 0001:00079020       ?AddFmt_DragImageBits@CDragDropData@@AEAAHPEA_WIH@Z 000000014007a020 f   DragDropData.obj
 0001:000791c0       ?PrepareDrag@CDragDropData@@QEAAHHU_COORD@@PEAK@Z 000000014007a1c0 f   DragDropData.obj
 0001:00079550       ?EnumDragFormats@CDragDropData@@IEAAXPEAUIDataObject@@PEAX@Z 000000014007a550 f   DragDropData.obj
 0001:0007ac20       ?CheckIsUpdatePackage@CDragDropData@@IEAA_NPEAUIDataObject@@@Z 000000014007bc20 f   DragDropData.obj
 0001:0007ae10       ?NeedRefreshToInfo@CDragDropData@@QEAA_NU_POINTL@@@Z 000000014007be10 f   DragDropData.obj
 0001:0007af10       ?SetDragToInfo@CDragDropData@@QEAAXPEBUForwardedPanelInfo@@_KPEAVCRealConsole@@@Z 000000014007bf10 f   DragDropData.obj
 0001:0007b290       ?RetrieveDragToInfo@CDragDropData@@QEAAXU_POINTL@@@Z 000000014007c290 f   DragDropData.obj
 0001:0007b600       ?PaintDragImageBits@CDragDropData@@IEAAHPEA_WAEAPEAUHDC__@@AEAPEAUHBITMAP__@@2HHPEAH3PEAUtagPOINT@@_NK@Z 000000014007c600 f   DragDropData.obj
 0001:0007bb60       ?DrawImageBits@CDragDropData@@IEAAHPEAUHDC__@@PEA_WPEAHH2@Z 000000014007cb60 f   DragDropData.obj
 0001:0007bd70       ?DragFeedBack@CDragDropData@@QEAAXK@Z 000000014007cd70 f   DragDropData.obj
 0001:0007be00       ?IsDragStarting@CDragDropData@@QEAAHXZ 000000014007ce00 f   DragDropData.obj
 0001:0007be60       ?ForwardMessage@CDragDropData@@QEAAHI_K_J@Z 000000014007ce60 f   DragDropData.obj
 0001:0007bef0       ?TerminateDrag@CDragDropData@@IEAAXXZ 000000014007cef0 f   DragDropData.obj
 0001:0007c220       ??$PidlDump@PEFBU_ITEMIDLIST@@@@YAXPEFBU_ITEMIDLIST@@PEAX@Z 000000014007d220 f i DragDropData.obj
 0001:0007c420       ??_ECDwmHelper@@UEAAPEAXI@Z 000000014007d420 f i * CIL library *:* CIL module *
 0001:0007c420       ??_GCDwmHelper@@UEAAPEAXI@Z 000000014007d420 f i DwmHelper.obj
 0001:0007c460       ??1CDwmHelper@@UEAA@XZ     000000014007d460 f   DwmHelper.obj
 0001:0007c570       ?DrawType@CDwmHelper@@QEAA?AW4FrameDrawStyle@@XZ 000000014007d570 f   DwmHelper.obj
 0001:0007c600       ?InitDwm@CDwmHelper@@AEAAXXZ 000000014007d600 f   DwmHelper.obj
 0001:0007ca60       ?IsDwm@CDwmHelper@@QEAA_NXZ 000000014007da60 f   DwmHelper.obj
 0001:0007caa0       ?IsThemed@CDwmHelper@@QEAA_NXZ 000000014007daa0 f   DwmHelper.obj
 0001:0007cae0       ?ExtendWindowFrame@CDwmHelper@@QEAA_NXZ 000000014007dae0 f   DwmHelper.obj
 0001:0007cb70       ?GetDwmClientRectTopOffset@CDwmHelper@@QEAAHXZ 000000014007db70 f   DwmHelper.obj
 0001:0007cbe0       ?BeginBufferedPaint@CDwmHelper@@QEAAPEAXPEAUHDC__@@AEBUtagRECT@@AEAUPaintDC@@@Z 000000014007dbe0 f   DwmHelper.obj
 0001:0007cd50       ?EndBufferedPaint@CDwmHelper@@QEAAJAEAUPaintDC@@H@Z 000000014007dd50 f   DwmHelper.obj
 0001:0007ce10       ?ShowDialog@CDynDialog@@SAPEAV1@IPEAUHWND__@@P6A_J0I_K_J@Z2@Z 000000014007de10 f   DynDialog.obj
 0001:0007cf70       ?ExecuteDialog@CDynDialog@@SA_JIPEAUHWND__@@P6A_J0I_K_J@Z2@Z 000000014007df70 f   DynDialog.obj
 0001:0007d0d0       ??_GCDynDialog@@UEAAPEAXI@Z 000000014007e0d0 f i DynDialog.obj
 0001:0007d0d0       ??_ECDynDialog@@UEAAPEAXI@Z 000000014007e0d0 f i * CIL library *:* CIL module *
 0001:0007d110       ??1CDynDialog@@UEAA@XZ     000000014007e110 f   DynDialog.obj
 0001:0007d200       ?PrepareDlg@CDynDialog@@IEAAXP6A_JPEAUHWND__@@I_K_J@Z@Z 000000014007e200 f   DynDialog.obj
 0001:0007d2b0       ?GetDlgClass@CDynDialog@@SAPEAV1@PEAUHWND__@@@Z 000000014007e2b0 f   DynDialog.obj
 0001:0007d310       ?DynDialogBox@CDynDialog@@KA_JPEAUHWND__@@I_K_J@Z 000000014007e310 f   DynDialog.obj
 0001:0007d3d0       ?LoadTemplate@CDynDialog@@QEAA_NXZ 000000014007e3d0 f   DynDialog.obj
 0001:0007d690       ?ParseDialog@CDynDialog@@IEAA_NAEA_K@Z 000000014007e690 f   DynDialog.obj
 0001:0007d830       ?ParseItem@CDynDialog@@IEAA_NAEA_K@Z 000000014007e830 f   DynDialog.obj
 0001:0007d960       ?ParseDialogEx@CDynDialog@@IEAA_NAEA_K@Z 000000014007e960 f   DynDialog.obj
 0001:0007db30       ?ParseItemEx@CDynDialog@@IEAA_NAEA_K@Z 000000014007eb30 f   DynDialog.obj
 0001:0007dc60       ?SkipSzOrAtom@CDynDialog@@IEAAPEA_WAEA_K@Z 000000014007ec60 f   DynDialog.obj
 0001:0007dd40       ?LocalizeDialog@CDynDialog@@SAXPEAUHWND__@@I@Z 000000014007ed40 f   DynDialog.obj
 0001:0007ddc0       ?LocalizeControl@CDynDialog@@SAHPEAUHWND__@@_J@Z 000000014007edc0 f   DynDialog.obj
 0001:0007dfe0       ?Del@?$MMap@PEAUHWND__@@PEAVCDynDialog@@$0A@@@QEAA_NAEBQEAUHWND__@@@Z 000000014007efe0 f i DynDialog.obj
 0001:0007e060       ?Set@?$MMap@PEAUHWND__@@PEAVCDynDialog@@$0A@@@QEAA_NAEBQEAUHWND__@@AEBQEAVCDynDialog@@@Z 000000014007f060 f i DynDialog.obj
 0001:0007e1b0       ?FindTextDialog@CEFindDlg@@QEAAXXZ 000000014007f1b0 f   FindDlg.obj
 0001:0007e380       ?UpdateFindDlgAlpha@CEFindDlg@@QEAAX_N@Z 000000014007f380 f   FindDlg.obj
 0001:0007e460       ?findTextProc@CEFindDlg@@SA_JPEAUHWND__@@I_K_J@Z 000000014007f460 f   FindDlg.obj
 0001:0007eb40       ??0CFindPanel@@QEAA@PEAVCConEmuMain@@@Z 000000014007fb40 f   FindPanel.obj
 0001:0007ec10       ??1CFindPanel@@QEAA@XZ     000000014007fc10 f   FindPanel.obj
 0001:0007ec90       ?CreatePane@CFindPanel@@QEAAPEAUHWND__@@PEAU2@H@Z 000000014007fc90 f   FindPanel.obj
 0001:0007ed70       ?OnCreateFinished@CFindPanel@@QEAA_NXZ 000000014007fd70 f   FindPanel.obj
 0001:0007eea0       ?OnCreateFont@CFindPanel@@IEAAXXZ 000000014007fea0 f   FindPanel.obj
 0001:0007f010       ?RegisterPaneClass@CFindPanel@@IEAA_NXZ 0000000140080010 f   FindPanel.obj
 0001:0007f0b0       ?FindPaneProc@CFindPanel@@KA_JPEAUHWND__@@I_K_J@Z 00000001400800b0 f   FindPanel.obj
 0001:0007f2b0       ?EditCtrlProc@CFindPanel@@KA_JPEAUHWND__@@I_K_J@Z 00000001400802b0 f   FindPanel.obj
 0001:0007f3f0       ?OnDestroy@CFindPanel@@IEAAXXZ 00000001400803f0 f   FindPanel.obj
 0001:0007f460       ?OnSize@CFindPanel@@IEAAXPEAUtagRECT@@@Z 0000000140080460 f   FindPanel.obj
 0001:0007f590       ?OnSearch@CFindPanel@@IEAAXXZ 0000000140080590 f   FindPanel.obj
 0001:0007f650       ?StopSearch@CFindPanel@@IEAAXXZ 0000000140080650 f   FindPanel.obj
 0001:0007f6c0       ?ShowMenu@CFindPanel@@IEAAXXZ 00000001400806c0 f   FindPanel.obj
 0001:0007f8f0       ?OnKeyboard@CFindPanel@@IEAA_NI_K_JAEA_J@Z 00000001400808f0 f   FindPanel.obj
 0001:0007fb50       ?IsAvailable@CFindPanel@@QEAA_N_N@Z 0000000140080b50 f   FindPanel.obj
 0001:0007fbc0       ?Del@?$MMap@PEAUHWND__@@PEAVCFindPanel@@$0A@@@QEAA_NAEBQEAUHWND__@@@Z 0000000140080bc0 f i FindPanel.obj
 0001:0007fc30       ?Set@?$MMap@PEAUHWND__@@PEAVCFindPanel@@$0A@@@QEAA_NAEBQEAUHWND__@@AEBQEAVCFindPanel@@@Z 0000000140080c30 f i FindPanel.obj
 0001:0007fda0       ?Release@?$MMap@PEAUHWND__@@PEAVCFindPanel@@$0A@@@QEAAXXZ 0000000140080da0 f i FindPanel.obj
 0001:0007fe20       ?AllocateBlock@?$MMap@PEAUHWND__@@PEAVCFindPanel@@$0A@@@IEAAPEAUMapItems@1@XZ 0000000140080e20 f i FindPanel.obj
 0001:0007ff30       ?_Allocate@std@@YAPEAX_K0_N@Z 0000000140080f30 f i Font.obj
 0001:0007ffb0       ?_Deallocate@std@@YAXPEAX_K1@Z 0000000140080fb0 f i Font.obj
 0001:00080060       ??_GCFont@@MEAAPEAXI@Z     0000000140081060 f i Font.obj
 0001:00080060       ??_ECFont@@MEAAPEAXI@Z     0000000140081060 f i * CIL library *:* CIL module *
 0001:000800a0       ??0CFont@@QEAA@PEAUHFONT__@@@Z 00000001400810a0 f   Font.obj
 0001:00080220       ??0CFont@@QEAA@PEAVCustomFont@@@Z 0000000140081220 f   Font.obj
 0001:000803a0       ??1CFont@@MEAA@XZ          00000001400813a0 f   Font.obj
 0001:000804a0       ??0?$unordered_map@HGU?$hash@H@std@@U?$equal_to@H@2@V?$allocator@U?$pair@$$CBHG@std@@@2@@std@@QEAA@XZ 00000001400814a0 f i Font.obj
 0001:00080520       ??1?$vector@V?$_List_unchecked_iterator@V?$_List_val@U?$_List_simple_types@U?$pair@$$CBHG@std@@@std@@@std@@@std@@U?$_Wrap_alloc@V?$allocator@V?$_List_unchecked_iterator@V?$_List_val@U?$_List_simple_types@U?$pair@$$CBHG@std@@@std@@@std@@@std@@@std@@@2@@std@@QEAA@XZ 0000000140081520 f i Font.obj
 0001:00080560       ??1?$list@U?$pair@$$CBHG@std@@V?$allocator@U?$pair@$$CBHG@std@@@2@@std@@QEAA@XZ 0000000140081560 f i Font.obj
 0001:000805d0       ?_Init@?$_Hash@V?$_Umap_traits@HGV?$_Uhash_compare@HU?$hash@H@std@@U?$equal_to@H@2@@std@@V?$allocator@U?$pair@$$CBHG@std@@@2@$0A@@std@@@std@@IEAAX_K@Z 00000001400815d0 f i Font.obj
 0001:00080660       ?assign@?$vector@V?$_List_unchecked_iterator@V?$_List_val@U?$_List_simple_types@U?$pair@$$CBHG@std@@@std@@@std@@@std@@U?$_Wrap_alloc@V?$allocator@V?$_List_unchecked_iterator@V?$_List_val@U?$_List_simple_types@U?$pair@$$CBHG@std@@@std@@@std@@@std@@@std@@@2@@std@@QEAAX_KAEBV?$_List_unchecked_iterator@V?$_List_val@U?$_List_simple_types@U?$pair@$$CBHG@std@@@std@@@std@@@2@@Z 0000000140081660 f i Font.obj
 0001:00080790       ?_Xlength@?$vector@V?$_List_unchecked_iterator@V?$_List_val@U?$_List_simple_types@U?$pair@$$CBHG@std@@@std@@@std@@@std@@U?$_Wrap_alloc@V?$allocator@V?$_List_unchecked_iterator@V?$_List_val@U?$_List_simple_types@U?$pair@$$CBHG@std@@@std@@@std@@@std@@@std@@@2@@std@@CAXXZ 0000000140081790 f i Font.obj
 0001:000807b0       ?_Reallocate_exactly@?$vector@V?$_List_unchecked_iterator@V?$_List_val@U?$_List_simple_types@U?$pair@$$CBHG@std@@@std@@@std@@@std@@U?$_Wrap_alloc@V?$allocator@V?$_List_unchecked_iterator@V?$_List_val@U?$_List_simple_types@U?$pair@$$CBHG@std@@@std@@@std@@@std@@@std@@@2@@std@@AEAAX_K@Z 00000001400817b0 f i Font.obj
 0001:00080840       ??$_Fill_unchecked1@PEAV?$_List_unchecked_iterator@V?$_List_val@U?$_List_simple_types@U?$pair@$$CBHG@std@@@std@@@std@@@std@@V12@@std@@YAXPEAV?$_List_unchecked_iterator@V?$_List_val@U?$_List_simple_types@U?$pair@$$CBHG@std@@@std@@@std@@@0@0AEBV10@U?$integral_constant@_N$0A@@0@@Z 0000000140081840 f i Font.obj
 0001:000808e0       ??$_Uninit_alloc_fill_n1@PEAV?$_List_unchecked_iterator@V?$_List_val@U?$_List_simple_types@U?$pair@$$CBHG@std@@@std@@@std@@@std@@_KU?$_Wrap_alloc@V?$allocator@V?$_List_unchecked_iterator@V?$_List_val@U?$_List_simple_types@U?$pair@$$CBHG@std@@@std@@@std@@@std@@@std@@@2@@std@@YAPEAV?$_List_unchecked_iterator@V?$_List_val@U?$_List_simple_types@U?$pair@$$CBHG@std@@@std@@@std@@@0@PEAV10@_KAEBV10@AEAU?$_Wrap_alloc@U?$_Wrap_alloc@V?$allocator@V?$_List_unchecked_iterator@V?$_List_val@U?$_List_simple_types@U?$pair@$$CBHG@std@@@std@@@std@@@std@@@std@@@std@@@0@U?$integral_constant@_N$0A@@0@@Z 00000001400818e0 f i Font.obj
 0001:00080900       ??$_Uninitialized_move_al_unchecked@PEAV?$_List_unchecked_iterator@V?$_List_val@U?$_List_simple_types@U?$pair@$$CBHG@std@@@std@@@std@@@std@@PEAV12@U?$_Wrap_alloc@V?$allocator@V?$_List_unchecked_iterator@V?$_List_val@U?$_List_simple_types@U?$pair@$$CBHG@std@@@std@@@std@@@std@@@std@@@2@@std@@YAPEAV?$_List_unchecked_iterator@V?$_List_val@U?$_List_simple_types@U?$pair@$$CBHG@std@@@std@@@std@@@0@PEAV10@00AEAU?$_Wrap_alloc@U?$_Wrap_alloc@V?$allocator@V?$_List_unchecked_iterator@V?$_List_val@U?$_List_simple_types@U?$pair@$$CBHG@std@@@std@@@std@@@std@@@std@@@std@@@0@U_General_ptr_iterator_tag@0@U_Any_tag@0@@Z 0000000140081900 f i Font.obj
 0001:00080940       ?_Buynode0@?$_List_alloc@U?$_List_base_types@U?$pair@$$CBHG@std@@V?$allocator@U?$pair@$$CBHG@std@@@2@@std@@@std@@QEAAPEAU?$_List_node@U?$pair@$$CBHG@std@@PEAX@2@PEAU32@0@Z 0000000140081940 f i Font.obj
 0001:00080990       ??0CLogFont@@QEAA@PEB_WJJJEE@Z 0000000140081990 f i FontMgr.obj
 0001:00080a80       ??0CFontMgr@@QEAA@XZ       0000000140081a80 f   FontMgr.obj
 0001:00080c30       ??_FCFontPtr@@QEAAXXZ      0000000140081c30 f i FontMgr.obj
 0001:00080c40       ??1CFontMgr@@QEAA@XZ       0000000140081c40 f   FontMgr.obj
 0001:00080f00       ?FontPtrUnregister@CFontMgr@@IEAAXPEAVCFont@@@Z 0000000140081f00 f   FontMgr.obj
 0001:00080f80       ?AutoRecreateFont@CFontMgr@@QEAA_NHH@Z 0000000140081f80 f   FontMgr.obj
 0001:00081170       ?BorderFontCharSet@CFontMgr@@QEAAEXZ 0000000140082170 f   FontMgr.obj
 0001:000812b0       ?CreateOtherFont@CFontMgr@@QEAA_NPEB_WAEAVCFontPtr@@@Z 00000001400822b0 f   FontMgr.obj
 0001:000813d0       ?QueryFont@CFontMgr@@QEAA_NW4CEFontStyles@@PEAVCVirtualConsole@@AEAVCFontPtr@@@Z 00000001400823d0 f   FontMgr.obj
 0001:00081570       ?EvalFontHeight@CFontMgr@@QEAAJPEB_WJE@Z 0000000140082570 f   FontMgr.obj
 0001:00081860       ?EvalLogfontSizes@CFontMgr@@QEAAXAEAUtagLOGFONTW@@JJ@Z 0000000140082860 f   FontMgr.obj
 0001:000819a0       ?FontHeight@CFontMgr@@QEAAJXZ 00000001400829a0 f   FontMgr.obj
 0001:00081ab0       ?FontHeightHtml@CFontMgr@@QEAAJXZ 0000000140082ab0 f   FontMgr.obj
 0001:00081b50       ?FontWidth@CFontMgr@@QEAAJXZ 0000000140082b50 f   FontMgr.obj
 0001:00081be0       ?GetFontNameFromFile_TTF@CFontMgr@@QEAAHPEB_WAEAY0CA@_W1@Z 0000000140082be0 f   FontMgr.obj
 0001:000825d0       ?GetFontNameFromFile_OTF@CFontMgr@@QEAAHPEB_WAEAY0CA@_W1@Z 00000001400835d0 f   FontMgr.obj
 0001:00082d80       ?InitFont@CFontMgr@@QEAAXPEB_WHH@Z 0000000140083d80 f   FontMgr.obj
 0001:00083030       ?MacroFontSetName@CFontMgr@@QEAAXPEB_WGG@Z 0000000140084030 f   FontMgr.obj
 0001:00083340       ?MacroFontSetSize@CFontMgr@@QEAA_NHH@Z 0000000140084340 f   FontMgr.obj
 0001:00083a20       ?RecreateFontByDpi@CFontMgr@@QEAA_NHHPEAUtagRECT@@@Z 0000000140084a20 f   FontMgr.obj
 0001:00083aa0       ?RegisterFont@CFontMgr@@QEAAHPEB_WH@Z 0000000140084aa0 f   FontMgr.obj
 0001:00084c60       ?RegisterFonts@CFontMgr@@QEAAXXZ 0000000140085c60 f   FontMgr.obj
 0001:00084dd0       ?RegisterFontsDir@CFontMgr@@QEAAXPEB_W@Z 0000000140085dd0 f   FontMgr.obj
 0001:000851f0       ?UnregisterFonts@CFontMgr@@QEAAXXZ 00000001400861f0 f   FontMgr.obj
 0001:00085310       ?CreateFontGroup@CFontMgr@@AEAA_NUCLogFont@@@Z 0000000140086310 f   FontMgr.obj
 0001:000857c0       ?Create@CFontMgr@@QEAA_NUCLogFont@@AEAVCFontPtr@@PEAPEAVCustomFontFamily@@@Z 00000001400867c0 f   FontMgr.obj
 0001:00085f70       ?FindCustomFont@CFontMgr@@AEAA_NPEB_WHHHHPEAPEAVCustomFontFamily@@PEAPEAVCustomFont@@@Z 0000000140086f70 f   FontMgr.obj
 0001:000861d0       ?MacroFontSetSizeInt@CFontMgr@@AEAA_NAEAUtagLOGFONTW@@HH@Z 00000001400871d0 f   FontMgr.obj
 0001:000864a0       ?RecreateAlternativeFont@CFontMgr@@AEAAXXZ 00000001400874a0 f   FontMgr.obj
 0001:00086a00       ?RecreateFont@CFontMgr@@AEAAX_N0@Z 0000000140087a00 f   FontMgr.obj
 0001:00087080       ?ResetFontWidth@CFontMgr@@AEAAXXZ 0000000140088080 f   FontMgr.obj
 0001:000871d0       ?SaveFontSizes@CFontMgr@@AEAAX_N0@Z 00000001400881d0 f   FontMgr.obj
 0001:00087320       ?SettingsLoaded@CFontMgr@@QEAAXK@Z 0000000140088320 f   FontMgr.obj
 0001:000873e0       ?SettingsPreSave@CFontMgr@@QEAAXXZ 00000001400883e0 f   FontMgr.obj
 0001:00087460       ?IsAlmostMonospace@CFontMgr@@SA_NPEB_WPEAUtagTEXTMETRICW@@PEAU_OUTLINETEXTMETRICW@@@Z 0000000140088460 f   FontMgr.obj
 0001:000875f0       ?LoadOutline@CFontMgr@@SAPEAU_OUTLINETEXTMETRICW@@PEAUHDC__@@PEAUHFONT__@@@Z 00000001400885f0 f   FontMgr.obj
 0001:000877e0       ??1CFontPtr@@QEAA@XZ       00000001400887e0 f   FontPtr.obj
 0001:00087830       ?Release@CFontPtr@@QEAAHXZ 0000000140088830 f   FontPtr.obj
 0001:00087880       ??4CFontPtr@@QEAAAEAV0@PEAVCFont@@@Z 0000000140088880 f   FontPtr.obj
 0001:000878e0       ?IsSet@CFontPtr@@QEBA_NXZ  00000001400888e0 f   FontPtr.obj
 0001:00087910       ??_ECFrameHolder@@UEAAPEAXI@Z 0000000140088910 f i * CIL library *:* CIL module *
 0001:00087910       ??_GCFrameHolder@@UEAAPEAXI@Z 0000000140088910 f i FrameHolder.obj
 0001:00087950       ??1CFrameHolder@@UEAA@XZ   0000000140088950 f   FrameHolder.obj
 0001:00087970       ?ProcessNcMessage@CFrameHolder@@QEAA_NPEAUHWND__@@I_K_JAEA_J@Z 0000000140088970 f   FrameHolder.obj
 0001:00088280       ?NC_Redraw@CFrameHolder@@IEAAXXZ 0000000140089280 f   FrameHolder.obj
 0001:000882e0       ?NC_Wrapper@CFrameHolder@@IEAA_JPEAUHWND__@@I_K_J@Z 00000001400892e0 f   FrameHolder.obj
 0001:00088370       ?OnPaint@CFrameHolder@@IEAA_JPEAUHWND__@@PEAUHDC__@@I@Z 0000000140089370 f   FrameHolder.obj
 0001:00088a40       ?CalculateCaptionPosition@CFrameHolder@@UEAAXAEBUtagRECT@@PEAU2@@Z 0000000140089a40 f   FrameHolder.obj
 0001:00088ac0       ?CalculateTabPosition@CFrameHolder@@UEAAXAEBUtagRECT@@0PEAU2@@Z 0000000140089ac0 f   FrameHolder.obj
 0001:00088cb0       ?OnNcPaint@CFrameHolder@@IEAA_JPEAUHWND__@@I_K_J@Z 0000000140089cb0 f   FrameHolder.obj
 0001:00088ed0       ?OnNcActivate@CFrameHolder@@IEAA_JPEAUHWND__@@I_K_J@Z 0000000140089ed0 f   FrameHolder.obj
 0001:00089080       ?OnNcCalcSize@CFrameHolder@@IEAA_JPEAUHWND__@@I_K_J@Z 000000014008a080 f   FrameHolder.obj
 0001:00089290       ?OnNcHitTest@CFrameHolder@@IEAA_JPEAUHWND__@@I_K_J@Z 000000014008a290 f   FrameHolder.obj
 0001:00089490       ?RecalculateFrameSizes@CFrameHolder@@QEAAXXZ 000000014008a490 f   FrameHolder.obj
 0001:00089580       ?GetTabsHeight@CFrameHolder@@QEAAHXZ 000000014008a580 f   FrameHolder.obj
 0001:00089600       ??0CGestures@@QEAA@XZ      000000014008a600 f   GestureEngine.obj
 0001:000896d0       ??_GCGestures@@UEAAPEAXI@Z 000000014008a6d0 f i GestureEngine.obj
 0001:000896d0       ??_ECGestures@@UEAAPEAXI@Z 000000014008a6d0 f i * CIL library *:* CIL module *
 0001:00089700       ??1CGestures@@UEAA@XZ      000000014008a700 f   GestureEngine.obj
 0001:00089710       ?IsGesturesEnabled@CGestures@@QEAA_NXZ 000000014008a710 f   GestureEngine.obj
 0001:00089770       ?DumpGesture@CGestures@@AEAAXPEB_WAEBUtagGESTUREINFO@@@Z 000000014008a770 f   GestureEngine.obj
 0001:00089b70       ?ProcessGestureMessage@CGestures@@UEAA_NPEAUHWND__@@I_K_JAEA_J@Z 000000014008ab70 f   GestureEngine.obj
 0001:0008a0f0       ?SendRClick@CGestures@@AEAAXPEAUHWND__@@JJ@Z 000000014008b0f0 f   GestureEngine.obj
 0001:0008a260       ?ProcessTwoFingerTap@CGestures@@UEAAXPEAUHWND__@@JJK@Z 000000014008b260 f   GestureEngine.obj
 0001:0008a260       ?ProcessPressAndTap@CGestures@@UEAAXPEAUHWND__@@JJFF@Z 000000014008b260 f   GestureEngine.obj
 0001:0008a270       ?ProcessZoom@CGestures@@UEAAXPEAUHWND__@@NJJ@Z 000000014008b270 f   GestureEngine.obj
 0001:0008a300       ?ProcessMove@CGestures@@UEAA_NPEAUHWND__@@JJ@Z 000000014008b300 f   GestureEngine.obj
 0001:0008a480       ?ProcessRotate@CGestures@@UEAA_NPEAUHWND__@@JJJ_N@Z 000000014008b480 f   GestureEngine.obj
 0001:0008a520       ??0CGuiServer@@QEAA@XZ     000000014008b520 f   GuiServer.obj
 0001:0008a710       ??1CGuiServer@@QEAA@XZ     000000014008b710 f   GuiServer.obj
 0001:0008a730       ?Start@CGuiServer@@QEAA_NXZ 000000014008b730 f   GuiServer.obj
 0001:0008a860       ?Stop@CGuiServer@@QEAAX_N@Z 000000014008b860 f   GuiServer.obj
 0001:0008aaf0       ?GuiServerCommand@CGuiServer@@KAHPEAXPEAUCESERVER_REQ@@AEAPEAU2@AEAK3_J@Z 000000014008baf0 f   GuiServer.obj
 0001:0008bc50       ?ServerCommandFree@CRealServer@@KAXPEAUCESERVER_REQ@@_J@Z 000000014008cc50 f   RealServer.obj
 0001:0008bc50       ?GuiServerFree@CGuiServer@@KAXPEAUCESERVER_REQ@@_J@Z 000000014008cc50 f   GuiServer.obj
 0001:0008bcb0       ?StopPipeServer@?$PipeServer@UCESERVER_REQ@@@@QEAAX_NAEA_N@Z 000000014008ccb0 f i GuiServer.obj
 0001:0008c0f0       ?StartPipeServer@?$PipeServer@UCESERVER_REQ@@@@QEAA_N_NPEB_W_JPEAU_SECURITY_ATTRIBUTES@@P6AHPEAXPEAUCESERVER_REQ@@AEAPEAU3@AEAK72@ZP6AX52@ZP6AH42@ZP6AH42@ZP6AH42@Z@Z 000000014008d0f0 f i GuiServer.obj
 0001:0008c350       ?StartPipeInstance@?$PipeServer@UCESERVER_REQ@@@@IEAA_NPEAUPipeInst@1@@Z 000000014008d350 f i GuiServer.obj
 0001:0008c560       ?DumpError@?$PipeServer@UCESERVER_REQ@@@@IEAAXPEAUPipeInst@1@PEB_WH@Z 000000014008d560 f i GuiServer.obj
 0001:0008c690       ?_PipeServerThread@?$PipeServer@UCESERVER_REQ@@@@KAKPEAX@Z 000000014008d690 f i GuiServer.obj
 0001:0008c6f0       ?PipeServerThread@?$PipeServer@UCESERVER_REQ@@@@IEAAKPEAUPipeInst@1@@Z 000000014008d6f0 f i GuiServer.obj
 0001:0008caa0       ?WriteDummyAnswer@?$PipeServer@UCESERVER_REQ@@@@IEAAHPEAUPipeInst@1@@Z 000000014008daa0 f i GuiServer.obj
 0001:0008ccb0       ?WaitForClient@?$PipeServer@UCESERVER_REQ@@@@IEAA_NPEAUPipeInst@1@AEAH1@Z 000000014008dcb0 f i GuiServer.obj
 0001:0008d0e0       ?PipeServerRead@?$PipeServer@UCESERVER_REQ@@@@IEAAHPEAUPipeInst@1@@Z 000000014008e0e0 f i GuiServer.obj
 0001:0008d370       ?AllocRequestBuf@PipeInst@?$PipeServer@UCESERVER_REQ@@@@QEAAPEAUCESERVER_REQ@@K@Z 000000014008e370 f i GuiServer.obj
 0001:0008d4b0       ?WaitOverlapped@?$PipeServer@UCESERVER_REQ@@@@IEAAHPEAUPipeInst@1@PEAK@Z 000000014008e4b0 f i GuiServer.obj
 0001:0008d710       ?GetFlagsFromMod@CEVkMatch@@SAKK@Z 000000014008e710 f   HotkeyChord.obj
 0001:0008d880       ?IsEqual@ConEmuChord@@QEBA_NEK@Z 000000014008e880 f   HotkeyChord.obj
 0001:0008d8d0       ?Compare@ConEmuChord@@CA_NKK@Z 000000014008e8d0 f   HotkeyChord.obj
 0001:0008d970       ?EditHotKey@CHotKeyDialog@@SA_NPEAUHWND__@@AEAK@Z 000000014008e970 f   HotkeyDlg.obj
 0001:0008da50       ?dlgGetHotkey@CHotKeyDialog@@SAKPEAUHWND__@@II@Z 000000014008ea50 f   HotkeyDlg.obj
 0001:0008db60       ?SetHotkeyField@CHotKeyDialog@@SAXPEAUHWND__@@E@Z 000000014008eb60 f   HotkeyDlg.obj
 0001:0008dba0       ?FillModifierBoxes@CHotKeyDialog@@SAXAEBUConEmuHotKey@@PEAUHWND__@@@Z 000000014008eba0 f   HotkeyDlg.obj
 0001:0008dd20       ?hkDlgProc@CHotKeyDialog@@SA_JPEAUHWND__@@I_K_J@Z 000000014008ed20 f   HotkeyDlg.obj
 0001:0008e320       ?Add@ConEmuHotKeyList@@IEAAPEAUConEmuHotKey@@HW4ConEmuHotKeyType@@P6A_NXZPEB_WP6A_NAEBUConEmuChord@@_NPEBU2@PEAVCRealConsole@@@Z42@Z 000000014008f320 f   HotkeyList.obj
 0001:0008e440       ?UpdateNumberModifier@ConEmuHotKeyList@@QEAAXXZ 000000014008f440 f   HotkeyList.obj
 0001:0008e4a0       ?UpdateArrowModifier@ConEmuHotKeyList@@QEAAXXZ 000000014008f4a0 f   HotkeyList.obj
 0001:0008e500       ?ReleaseHotkeys@ConEmuHotKeyList@@QEAAXXZ 000000014008f500 f   HotkeyList.obj
 0001:0008e5f0       ?FindHotKey@ConEmuHotKeyList@@QEAAPEBUConEmuHotKey@@AEBUConEmuChord@@PEAVCRealConsole@@@Z 000000014008f5f0 f   HotkeyList.obj
 0001:0008e7f0       ?AllocateHotkeys@ConEmuHotKeyList@@QEAAHXZ 000000014008f7f0 f   HotkeyList.obj
 0001:00091fd0       ?GetVkMod@ConEmuHotKey@@QEBAKXZ 0000000140092fd0 f   Hotkeys.obj
 0001:000920c0       ?SetVkMod@ConEmuHotKey@@QEAAXK@Z 00000001400930c0 f   Hotkeys.obj
 0001:00092130       ?GetDescription@ConEmuHotKey@@QEBAPEB_WPEA_WH_N@Z 0000000140093130 f   Hotkeys.obj
 0001:00092300       ?TestHostkeyModifiers@ConEmuHotKey@@SAXAEAK@Z 0000000140093300 f   Hotkeys.obj
 0001:00092530       ?GetHotKeyMod@ConEmuHotKey@@SAKK@Z 0000000140093530 f   Hotkeys.obj
 0001:000926d0       ?SetModifier@ConEmuHotKey@@SAKKE_N@Z 00000001400936d0 f   Hotkeys.obj
 0001:00092900       ?GetModifier@ConEmuHotKey@@SAKKH@Z 0000000140093900 f   Hotkeys.obj
 0001:00092990       ?HasModifier@ConEmuHotKey@@SA_NKE@Z 0000000140093990 f   Hotkeys.obj
 0001:00092aa0       ?GetHotkeyName@ConEmuHotKey@@QEBAPEB_WAEAY0IA@_W_N@Z 0000000140093aa0 f   Hotkeys.obj
 0001:00092e90       ?CreateNotUniqueWarning@ConEmuHotKey@@SAPEB_WPEB_W00AEAUCEStr@@@Z 0000000140093e90 f   Hotkeys.obj
 0001:00093290       ?GetVkKeyName@ConEmuHotKey@@SAXEAEAY0CA@_W_N@Z 0000000140094290 f   Hotkeys.obj
 0001:00094a20       ?GetVkByKeyName@ConEmuHotKey@@SAIPEB_WPEAHPEAK@Z 0000000140095a20 f   Hotkeys.obj
 0001:00094b60       ?UseWinNumber@ConEmuHotKey@@SA_NXZ 0000000140095b60 f   Hotkeys.obj
 0001:00094bb0       ?UseWinArrows@ConEmuHotKey@@SA_NXZ 0000000140095bb0 f   Hotkeys.obj
 0001:00094bc0       ?InSelection@ConEmuHotKey@@SA_NXZ 0000000140095bc0 f   Hotkeys.obj
 0001:00094c90       ?UseCTSShiftArrow@ConEmuHotKey@@SA_NXZ 0000000140095c90 f   Hotkeys.obj
 0001:00094dd0       ?UseCtrlTab@ConEmuHotKey@@SA_NXZ 0000000140095dd0 f   Hotkeys.obj
 0001:00094de0       ?UseCtrlBS@ConEmuHotKey@@SA_NXZ 0000000140095de0 f   Hotkeys.obj
 0001:00094e20       ?UseDndLKey@ConEmuHotKey@@SA_NXZ 0000000140095e20 f   Hotkeys.obj
 0001:00094e40       ?UseDndRKey@ConEmuHotKey@@SA_NXZ 0000000140095e40 f   Hotkeys.obj
 0001:00094e60       ?UseWndDragKey@ConEmuHotKey@@SA_NXZ 0000000140095e60 f   Hotkeys.obj
 0001:00094e70       ?UsePromptFind@ConEmuHotKey@@SA_NXZ 0000000140095e70 f   Hotkeys.obj
 0001:00094fe0       ??0CIconList@@QEAA@XZ      0000000140095fe0 f   IconList.obj
 0001:00095080       ??1CIconList@@QEAA@XZ      0000000140096080 f   IconList.obj
 0001:000951f0       ?Initialize@CIconList@@QEAA_NXZ 00000001400961f0 f   IconList.obj
 0001:000956e0       ?CreateTabIcon@CIconList@@QEAAHPEB_W_N0@Z 00000001400966e0 f   IconList.obj
 0001:00095960       ?CreateTabIconInt@CIconList@@IEAAHPEB_W_N0@Z 0000000140096960 f   IconList.obj
 0001:00096810       ?GetIconInfoStr@CIconList@@SAPEB_WPEAUHICON__@@AEAY0FA@_W@Z 0000000140097810 f   IconList.obj
 0001:000968d0       ??1CImgButtons@@QEAA@XZ    00000001400978d0 f   ImgButton.obj
 0001:00096a10       ?Add@CImgButtons@@IEAAXPEB_WP6APEAVCToolImg@@XZI0P6AXXZ@Z 0000000140097a10 f   ImgButton.obj
 0001:00096af0       ?ImplementButtons@CImgButtons@@IEAAXXZ 0000000140097af0 f   ImgButton.obj
 0001:00096d60       ?Process@CImgButtons@@QEAA_NPEAUHWND__@@I_K_JAEA_J@Z 0000000140097d60 f   ImgButton.obj
 0001:00096f00       ?RegisterTip@CImgButtons@@IEAAXXZ 0000000140097f00 f   ImgButton.obj
 0001:000970c0       ??$SafeDelete@VCToolImg@@@@YAXAEAPEAVCToolImg@@@Z 00000001400980c0 f i ImgButton.obj
 0001:00097130       ??_ECConEmuInside@@UEAAPEAXI@Z 0000000140098130 f i * CIL library *:* CIL module *
 0001:00097130       ??_GCConEmuInside@@UEAAPEAXI@Z 0000000140098130 f i Inside.obj
 0001:00097170       ?InitInside@CConEmuInside@@SA_N_N0PEB_WKPEAUHWND__@@@Z 0000000140098170 f   Inside.obj
 0001:00097340       ??1CConEmuInside@@UEAA@XZ  0000000140098340 f   Inside.obj
 0001:000973d0       ?EnumInsideFindParent@CConEmuInside@@CAHPEAUHWND__@@_J@Z 00000001400983d0 f   Inside.obj
 0001:00097450       ?InsideFindConEmu@CConEmuInside@@AEAAPEAUHWND__@@PEAU2@@Z 0000000140098450 f   Inside.obj
 0001:00097520       ?InsideFindShellView@CConEmuInside@@AEAA_NPEAUHWND__@@@Z 0000000140098520 f   Inside.obj
 0001:00097880       ?SetInsideParentWND@CConEmuInside@@QEAAXPEAUHWND__@@@Z 0000000140098880 f   Inside.obj
 0001:000979a0       ?isInsideWndSet@CConEmuInside@@QEAA_NXZ 00000001400989a0 f   Inside.obj
 0001:000979c0       ?isParentProcess@CConEmuInside@@QEAA_NPEAUHWND__@@@Z 00000001400989c0 f   Inside.obj
 0001:00097a30       ?GetParentRoot@CConEmuInside@@QEAAPEAUHWND__@@XZ 0000000140098a30 f   Inside.obj
 0001:00097aa0       ?InsideFindParent@CConEmuInside@@QEAAPEAUHWND__@@XZ 0000000140098aa0 f   Inside.obj
 0001:00098010       ?TurnExplorerTipPane@CConEmuInside@@AEAA_NAEAY0IA@_W@Z 0000000140099010 f   Inside.obj
 0001:00098300       ?SendVkKeySequence@CConEmuInside@@AEAA_NPEAUHWND__@@PEAG@Z 0000000140099300 f   Inside.obj
 0001:000984f0       ?InsideUpdateDir@CConEmuInside@@AEAAXXZ 00000001400994f0 f   Inside.obj
 0001:00098740       ?InsideUpdatePlacement@CConEmuInside@@AEAAXXZ 0000000140099740 f   Inside.obj
 0001:00098a20       ?GetInsideRect@CConEmuInside@@QEAA_NPEAUtagRECT@@@Z 0000000140099a20 f   Inside.obj
 0001:00098b90       ?CheckInsideFocus@CConEmuInside@@QEAAPEAUHWND__@@XZ 0000000140099b90 f   Inside.obj
 0001:00098de0       ?compare@LngPredefined@@SAHPEBX0@Z 0000000140099de0 f i LngData.obj
 0001:00098df0       ??0CLngRc@@QEAA@XZ         0000000140099df0 f   LngRc.obj
 0001:00098ee0       ?Reload@CLngRc@@QEAAX_N@Z  0000000140099ee0 f   LngRc.obj
 0001:000994a0       ?Clean@CLngRc@@IEAAXAEAV?$MArray@ULngRcItem@CLngRc@@@@@Z 000000014009a4a0 f   LngRc.obj
 0001:00099550       ?LoadResources@CLngRc@@IEAA_NPEB_W0@Z 000000014009a550 f   LngRc.obj
 0001:0009a150       ?LoadSection@CLngRc@@IEAA_NPEAVMJsonValue@@AEAV?$MArray@ULngRcItem@CLngRc@@@@H@Z 000000014009b150 f   LngRc.obj
 0001:0009a5b0       ?SetResource@CLngRc@@IEAA_NAEAV?$MArray@ULngRcItem@CLngRc@@@@HPEB_W_N@Z 000000014009b5b0 f   LngRc.obj
 0001:0009a730       ?SetResource@CLngRc@@IEAA_NAEAV?$MArray@ULngRcItem@CLngRc@@@@HPEAVMJsonValue@@@Z 000000014009b730 f   LngRc.obj
 0001:0009a9d0       ?getHint@CLngRc@@SA_NIPEA_W_K@Z 000000014009b9d0 f   LngRc.obj
 0001:0009ab30       ?getRsrc@CLngRc@@SAPEB_WIPEAUCEStr@@@Z 000000014009bb30 f   LngRc.obj
 0001:0009abd0       ?loadString@CLngRc@@KA_NIPEA_W_K@Z 000000014009bbd0 f   LngRc.obj
 0001:0009ac50       ?QueryInterface@MStream@@UEAAJAEBU_GUID@@PEAPEAX@Z 000000014009bc50 f i LoadImg.obj
 0001:0009ace0       ?AddRef@MStream@@UEAAKXZ   000000014009bce0 f i LoadImg.obj
 0001:0009ad00       ?Release@MStream@@UEAAKXZ  000000014009bd00 f i LoadImg.obj
 0001:0009ad40       ?Read@MStream@@UEAAJPEAXKPEAK@Z 000000014009bd40 f i LoadImg.obj
 0001:0009add0       ?Write@MStream@@UEAAJPEBXKPEAK@Z 000000014009bdd0 f i LoadImg.obj
 0001:0009aeb0       ?Seek@MStream@@UEAAJT_LARGE_INTEGER@@KPEAT_ULARGE_INTEGER@@@Z 000000014009beb0 f i LoadImg.obj
 0001:0009af20       ?SetSize@MStream@@UEAAJT_ULARGE_INTEGER@@@Z 000000014009bf20 f i LoadImg.obj
 0001:0009afe0       ?Clone@MStream@@UEAAJPEAPEAUIStream@@@Z 000000014009bfe0 f i LoadImg.obj
 0001:0009afe0       ?Revert@MStream@@UEAAJXZ   000000014009bfe0 f i LoadImg.obj
 0001:0009afe0       ?CopyTo@MStream@@UEAAJPEAUIStream@@T_ULARGE_INTEGER@@PEAT3@2@Z 000000014009bfe0 f i LoadImg.obj
 0001:0009afe0       ?LockRegion@MStream@@UEAAJT_ULARGE_INTEGER@@0K@Z 000000014009bfe0 f i LoadImg.obj
 0001:0009afe0       ?UnlockRegion@MStream@@UEAAJT_ULARGE_INTEGER@@0K@Z 000000014009bfe0 f i LoadImg.obj
 0001:0009aff0       ?Commit@MStream@@UEAAJK@Z  000000014009bff0 f i LoadImg.obj
 0001:0009b000       ?Stat@MStream@@UEAAJPEAUtagSTATSTG@@K@Z 000000014009c000 f i LoadImg.obj
 0001:0009b080       ??_EMStream@@UEAAPEAXI@Z   000000014009c080 f i * CIL library *:* CIL module *
 0001:0009b080       ??_GMStream@@UEAAPEAXI@Z   000000014009c080 f i LoadImg.obj
 0001:0009b350       ?LoadImageGdip@@YAPEAUtagBITMAPFILEHEADER@@PEB_W@Z 000000014009c350 f   LoadImg.obj
 0001:0009b670       ?CreateSolidImage@@YAPEAUtagBITMAPFILEHEADER@@KII@Z 000000014009c670 f   LoadImg.obj
 0001:0009b840       ?LoadImageEx@@YAPEAUtagBITMAPFILEHEADER@@PEB_WAEAU_BY_HANDLE_FILE_INFORMATION@@@Z 000000014009c840 f   LoadImg.obj
 0001:0009ba20       ?SaveImageEx@@YA_NPEB_WPEAUHBITMAP__@@@Z 000000014009ca20 f   LoadImg.obj
 0001:0009bb50       ?SaveImageEx@@YA_NPEB_WPEAEK@Z 000000014009cb50 f   LoadImg.obj
 0001:0009bd30       ?GetCodecClsid@@YAHPEB_WPEAU_GUID@@@Z 000000014009cd30 f   LoadImg.obj
 0001:0009bec0       ?AsString@GuiMacro@@QEAAPEA_WXZ 000000014009cec0 f   Macro.obj
 0001:0009c3b0       ?GetRestStrArgs@GuiMacro@@QEAA_N_KAEAPEA_W@Z 000000014009d3b0 f   Macro.obj
 0001:0009c500       ?ConvertMacro@ConEmuMacro@@YAPEA_WPEB_WE_N@Z 000000014009d500 f   Macro.obj
 0001:0009c730       ?GetNextMacro@ConEmuMacro@@YAPEAUGuiMacro@@AEAPEA_W_NPEAPEA_W@Z 000000014009d730 f   Macro.obj
 0001:0009cfc0       ?ChangeContext@ConEmuMacro@@YAPEAVCRealConsole@@PEAV2@IIAEAVCVConGuard@@AEAPEA_W@Z 000000014009dfc0 f   Macro.obj
 0001:0009d370       ?ExecuteMacro@ConEmuMacro@@YAPEA_WPEA_WPEAVCRealConsole@@_NPEAUCESERVER_REQ_GUIMACRO@@@Z 000000014009e370 f   Macro.obj
 0001:0009d920       ?ConcatMacro@ConEmuMacro@@YAPEB_WAEAPEA_WPEB_W@Z 000000014009e920 f   Macro.obj
 0001:0009da00       ?SkipWhiteSpaces@ConEmuMacro@@YAXAEAPEA_W@Z 000000014009ea00 f   Macro.obj
 0001:0009da30       ?GetNextInt@ConEmuMacro@@YAPEA_WAEAPEA_WAEAUGuiMacroArg@@@Z 000000014009ea30 f   Macro.obj
 0001:0009db50       ?GetNextString@ConEmuMacro@@YAPEA_WAEAPEA_W0_NAEA_N@Z 000000014009eb50 f   Macro.obj
 0001:0009de40       ?About@ConEmuMacro@@YAPEA_WPEAUGuiMacro@@PEAVCRealConsole@@_N@Z 000000014009ee40 f   Macro.obj
 0001:0009de90       ?AffinityPriority@ConEmuMacro@@YAPEA_WPEAUGuiMacro@@PEAVCRealConsole@@_N@Z 000000014009ee90 f   Macro.obj
 0001:0009df20       ?AltNumber@ConEmuMacro@@YAPEA_WPEAUGuiMacro@@PEAVCRealConsole@@_N@Z 000000014009ef20 f   Macro.obj
 0001:0009df90       ?Attach@ConEmuMacro@@YAPEA_WPEAUGuiMacro@@PEAVCRealConsole@@_N@Z 000000014009ef90 f   Macro.obj
 0001:0009e050       ?IsConEmu@ConEmuMacro@@YAPEA_WPEAUGuiMacro@@PEAVCRealConsole@@_N@Z 000000014009f050 f   Macro.obj
 0001:0009e060       ?IsRealVisible@ConEmuMacro@@YAPEA_WPEAUGuiMacro@@PEAVCRealConsole@@_N@Z 000000014009f060 f   Macro.obj
 0001:0009e090       ?IsConsoleActive@ConEmuMacro@@YAPEA_WPEAUGuiMacro@@PEAVCRealConsole@@_N@Z 000000014009f090 f   Macro.obj
 0001:0009e0c0       ?Break@ConEmuMacro@@YAPEA_WPEAUGuiMacro@@PEAVCRealConsole@@_N@Z 000000014009f0c0 f   Macro.obj
 0001:0009e130       ?Close@ConEmuMacro@@YAPEA_WPEAUGuiMacro@@PEAVCRealConsole@@_N@Z 000000014009f130 f   Macro.obj
 0001:0009e390       ?Debug@ConEmuMacro@@YAPEA_WPEAUGuiMacro@@PEAVCRealConsole@@_N@Z 000000014009f390 f   Macro.obj
 0001:0009e440       ?Detach@ConEmuMacro@@YAPEA_WPEAUGuiMacro@@PEAVCRealConsole@@_N@Z 000000014009f440 f   Macro.obj
 0001:0009e4b0       ?Unfasten@ConEmuMacro@@YAPEA_WPEAUGuiMacro@@PEAVCRealConsole@@_N@Z 000000014009f4b0 f   Macro.obj
 0001:0009e4f0       ?Context@ConEmuMacro@@YAPEA_WPEAUGuiMacro@@PEAVCRealConsole@@_N@Z 000000014009f4f0 f   Macro.obj
 0001:0009e540       ?FindEditor@ConEmuMacro@@YAPEA_WPEAUGuiMacro@@PEAVCRealConsole@@_N@Z 000000014009f540 f   Macro.obj
 0001:0009e590       ?FindViewer@ConEmuMacro@@YAPEA_WPEAUGuiMacro@@PEAVCRealConsole@@_N@Z 000000014009f590 f   Macro.obj
 0001:0009e5e0       ?FindFarWindow@ConEmuMacro@@YAPEA_WPEAUGuiMacro@@PEAVCRealConsole@@_N@Z 000000014009f5e0 f   Macro.obj
 0001:0009e640       ?FindFarWindowHelper@ConEmuMacro@@YAPEA_WIPEA_WPEAVCRealConsole@@_N@Z 000000014009f640 f   Macro.obj
 0001:0009e890       ?Wiki@ConEmuMacro@@YAPEA_WPEAUGuiMacro@@PEAVCRealConsole@@_N@Z 000000014009f890 f   Macro.obj
 0001:0009e8d0       ?WindowFullscreen@ConEmuMacro@@YAPEA_WPEAUGuiMacro@@PEAVCRealConsole@@_N@Z 000000014009f8d0 f   Macro.obj
 0001:0009e910       ?WindowMaximize@ConEmuMacro@@YAPEA_WPEAUGuiMacro@@PEAVCRealConsole@@_N@Z 000000014009f910 f   Macro.obj
 0001:0009e9a0       ?WindowMinimize@ConEmuMacro@@YAPEA_WPEAUGuiMacro@@PEAVCRealConsole@@_N@Z 000000014009f9a0 f   Macro.obj
 0001:0009ea10       ?WindowMode@ConEmuMacro@@YAPEA_WPEAUGuiMacro@@PEAVCRealConsole@@_N@Z 000000014009fa10 f   Macro.obj
 0001:0009ee60       ?WindowPosSize@ConEmuMacro@@YAPEA_WPEAUGuiMacro@@PEAVCRealConsole@@_N@Z 000000014009fe60 f   Macro.obj
 0001:0009ef40       ?Menu@ConEmuMacro@@YAPEA_WPEAUGuiMacro@@PEAVCRealConsole@@_N@Z 000000014009ff40 f   Macro.obj
 0001:0009f090       ?MsgBox@ConEmuMacro@@YAPEA_WPEAUGuiMacro@@PEAVCRealConsole@@_N@Z 00000001400a0090 f   Macro.obj
 0001:0009f1f0       ?Flash@ConEmuMacro@@YAPEA_WPEAUGuiMacro@@PEAVCRealConsole@@_N@Z 00000001400a01f0 f   Macro.obj
 0001:0009f320       ?Zoom@ConEmuMacro@@YAPEA_WPEAUGuiMacro@@PEAVCRealConsole@@_N@Z 00000001400a0320 f   Macro.obj
 0001:0009f380       ?FontSetSize@ConEmuMacro@@YAPEA_WPEAUGuiMacro@@PEAVCRealConsole@@_N@Z 00000001400a0380 f   Macro.obj
 0001:0009f3f0       ?FontSetName@ConEmuMacro@@YAPEA_WPEAUGuiMacro@@PEAVCRealConsole@@_N@Z 00000001400a03f0 f   Macro.obj
 0001:0009f4c0       ?Copy@ConEmuMacro@@YAPEA_WPEAUGuiMacro@@PEAVCRealConsole@@_N@Z 00000001400a04c0 f   Macro.obj
 0001:0009f6a0       ?Paste@ConEmuMacro@@YAPEA_WPEAUGuiMacro@@PEAVCRealConsole@@_N@Z 00000001400a06a0 f   Macro.obj
 0001:0009f930       ?Pause@ConEmuMacro@@YAPEA_WPEAUGuiMacro@@PEAVCRealConsole@@_N@Z 00000001400a0930 f   Macro.obj
 0001:0009f9b0       ?GroupInput@ConEmuMacro@@YAPEA_WPEAUGuiMacro@@PEAVCRealConsole@@_N@Z 00000001400a09b0 f   Macro.obj
 0001:0009fa60       ?PasteExplorerPath@ConEmuMacro@@YAPEA_WPEAUGuiMacro@@PEAVCRealConsole@@_N@Z 00000001400a0a60 f   Macro.obj
 0001:0009fae0       ?PasteFile@ConEmuMacro@@YAPEA_WPEAUGuiMacro@@PEAVCRealConsole@@_N@Z 00000001400a0ae0 f   Macro.obj
 0001:0009fd00       ?Print@ConEmuMacro@@YAPEA_WPEAUGuiMacro@@PEAVCRealConsole@@_N@Z 00000001400a0d00 f   Macro.obj
 0001:0009fd90       ?Keys@ConEmuMacro@@YAPEA_WPEAUGuiMacro@@PEAVCRealConsole@@_N@Z 00000001400a0d90 f   Macro.obj
 0001:000a0170       ?Palette@ConEmuMacro@@YAPEA_WPEAUGuiMacro@@PEAVCRealConsole@@_N@Z 00000001400a1170 f   Macro.obj
 0001:000a0390       ?Progress@ConEmuMacro@@YAPEA_WPEAUGuiMacro@@PEAVCRealConsole@@_N@Z 00000001400a1390 f   Macro.obj
 0001:000a0400       ?Recreate@ConEmuMacro@@YAPEA_WPEAUGuiMacro@@PEAVCRealConsole@@_N@Z 00000001400a1400 f   Macro.obj
 0001:000a04d0       ?Rename@ConEmuMacro@@YAPEA_WPEAUGuiMacro@@PEAVCRealConsole@@_N@Z 00000001400a14d0 f   Macro.obj
 0001:000a0570       ?Scroll@ConEmuMacro@@YAPEA_WPEAUGuiMacro@@PEAVCRealConsole@@_N@Z 00000001400a1570 f   Macro.obj
 0001:000a0780       ?Select@ConEmuMacro@@YAPEA_WPEAUGuiMacro@@PEAVCRealConsole@@_N@Z 00000001400a1780 f   Macro.obj
 0001:000a09b0       ?SetDpi@ConEmuMacro@@YAPEA_WPEAUGuiMacro@@PEAVCRealConsole@@_N@Z 00000001400a19b0 f   Macro.obj
 0001:000a0a70       ?Int2Str@ConEmuMacro@@YAPEA_WI_N@Z 00000001400a1a70 f   Macro.obj
 0001:000a0ac0       ?GetInfo@ConEmuMacro@@YAPEA_WPEAUGuiMacro@@PEAVCRealConsole@@_N@Z 00000001400a1ac0 f   Macro.obj
 0001:000a1070       ?GetOption@ConEmuMacro@@YAPEA_WPEAUGuiMacro@@PEAVCRealConsole@@_N@Z 00000001400a2070 f   Macro.obj
 0001:000a11c0       ?SetOption@ConEmuMacro@@YAPEA_WPEAUGuiMacro@@PEAVCRealConsole@@_N@Z 00000001400a21c0 f   Macro.obj
 0001:000a1650       ?Settings@ConEmuMacro@@YAPEA_WPEAUGuiMacro@@PEAVCRealConsole@@_N@Z 00000001400a2650 f   Macro.obj
 0001:000a1690       ?Shell@ConEmuMacro@@YAPEA_WPEAUGuiMacro@@PEAVCRealConsole@@_N@Z 00000001400a2690 f   Macro.obj
 0001:000a2260       ?Sleep@ConEmuMacro@@YAPEA_WPEAUGuiMacro@@PEAVCRealConsole@@_N@Z 00000001400a3260 f   Macro.obj
 0001:000a23d0       ?Split@ConEmuMacro@@YAPEA_WPEAUGuiMacro@@PEAVCRealConsole@@_N@Z 00000001400a33d0 f   Macro.obj
 0001:000a2580       ?Status@ConEmuMacro@@YAPEA_WPEAUGuiMacro@@PEAVCRealConsole@@_N@Z 00000001400a3580 f   Macro.obj
 0001:000a2650       ?Tab@ConEmuMacro@@YAPEA_WPEAUGuiMacro@@PEAVCRealConsole@@_N@Z 00000001400a3650 f   Macro.obj
 0001:000a2910       ?Task@ConEmuMacro@@YAPEA_WPEAUGuiMacro@@PEAVCRealConsole@@_N@Z 00000001400a3910 f   Macro.obj
 0001:000a2b40       ?TaskAdd@ConEmuMacro@@YAPEA_WPEAUGuiMacro@@PEAVCRealConsole@@_N@Z 00000001400a3b40 f   Macro.obj
 0001:000a2d30       ?TermMode@ConEmuMacro@@YAPEA_WPEAUGuiMacro@@PEAVCRealConsole@@_N@Z 00000001400a3d30 f   Macro.obj
 0001:000a2dc0       ?HighlightMouse@ConEmuMacro@@YAPEA_WPEAUGuiMacro@@PEAVCRealConsole@@_N@Z 00000001400a3dc0 f   Macro.obj
 0001:000a2e40       ?Transparency@ConEmuMacro@@YAPEA_WPEAUGuiMacro@@PEAVCRealConsole@@_N@Z 00000001400a3e40 f   Macro.obj
 0001:000a2e80       ?TransparencyHelper@ConEmuMacro@@YAPEA_WHH@Z 00000001400a3e80 f   Macro.obj
 0001:000a3000       ?Write@ConEmuMacro@@YAPEA_WPEAUGuiMacro@@PEAVCRealConsole@@_N@Z 00000001400a4000 f   Macro.obj
 0001:000a3080       ??0?$MArray@PEAVCVConGuard@@@@QEAA@XZ 00000001400a4080 f i Macro.obj
 0001:000a30b0       ?Match@CMatch@@QEAAHW4ExpandTextRangeType@@PEB_WHHAEAVCRConDataGuard@@H@Z 00000001400a40b0 f   Match.obj
 0001:000a3220       ?IsFileLineTerminator@CMatch@@KA_NPEB_W0@Z 00000001400a4220 f   Match.obj
 0001:000a3320       ?StoreMatchText@CMatch@@IEAAXPEB_W0@Z 00000001400a4320 f   Match.obj
 0001:000a3450       ?IsValidFile@CMatch@@IEAA_NPEB_WH00AEAH@Z 00000001400a4450 f   Match.obj
 0001:000a3670       ?FindRangeStart@CMatch@@KA_NAEAH0AEA_NPEB_W22222H@Z 00000001400a4670 f   Match.obj
 0001:000a38f0       ?CheckValidUrl@CMatch@@KA_NAEAH0AEA_NPEB_W222H@Z 00000001400a48f0 f   Match.obj
 0001:000a3a30       ?MatchFileNoExt@CMatch@@IEAA_NAEAVCRConDataGuard@@H@Z 00000001400a4a30 f   Match.obj
 0001:000a3c70       ?MatchWord@CMatch@@IEAA_NPEB_WHHAEAH1AEAVCRConDataGuard@@H@Z 00000001400a4c70 f   Match.obj
 0001:000a3f80       ?GetNextLine@CMatch@@IEAA_NAEAVCRConDataGuard@@H@Z 00000001400a4f80 f   Match.obj
 0001:000a4120       ?MatchAny@CMatch@@IEAA_NAEAVCRConDataGuard@@H@Z 00000001400a5120 f   Match.obj
 0001:000a5000       ??0CConEmuMenu@@QEAA@XZ    00000001400a6000 f   Menu.obj
 0001:000a5280       ??1CConEmuMenu@@QEAA@XZ    00000001400a6280 f   Menu.obj
 0001:000a5380       ?SetMenuName@CmdTaskPopupItem@CConEmuMenu@@SAXPEA_W_JPEB_W_N32@Z 00000001400a6380 f   Menu.obj
 0001:000a56e0       ?CreateOrUpdateMenu@CConEmuMenu@@QEAA_NAEAPEAUHMENU__@@PEBUMenuItem@@_K@Z 00000001400a66e0 f   Menu.obj
 0001:000a59d0       ?OnNewConPopupMenu@CConEmuMenu@@QEAAXPEAUtagPOINT@@K_N@Z 00000001400a69d0 f   Menu.obj
 0001:000a6f70       ?OnNewConPopupMenuRClick@CConEmuMenu@@AEAAXPEAUHMENU__@@I@Z 00000001400a7f70 f   Menu.obj
 0001:000a73f0       ?OnMenuSelected_NewCon@CConEmuMenu@@AEAA_NPEAUHMENU__@@GG@Z 00000001400a83f0 f   Menu.obj
 0001:000a76e0       ?OnMenuSelected@CConEmuMenu@@QEAA_NPEAUHMENU__@@GG@Z 00000001400a86e0 f   Menu.obj
 0001:000a7810       ?ShowPopupMenu@CConEmuMenu@@QEAAXPEAVCVirtualConsole@@UtagPOINT@@K_N@Z 00000001400a8810 f   Menu.obj
 0001:000a7a80       ?ExecPopupMenuCmd@CConEmuMenu@@QEAAXW4TrackMenuPlace@@PEAVCVirtualConsole@@H@Z 00000001400a8a80 f   Menu.obj
 0001:000a8010       ?GetSysMenu@CConEmuMenu@@QEAAPEAUHMENU__@@H@Z 00000001400a9010 f   Menu.obj
 0001:000a80d0       ?UpdateSysMenu@CConEmuMenu@@AEAAXPEAUHMENU__@@@Z 00000001400a90d0 f   Menu.obj
 0001:000a8520       ?CalcTabMenuPos@CConEmuMenu@@QEAA?AUtagPOINT@@PEAVCVirtualConsole@@@Z 00000001400a9520 f   Menu.obj
 0001:000a86c0       ?FillTaskPopup@CConEmuMenu@@AEAAHPEAUHMENU__@@PEAUCmdTaskPopupItem@1@@Z 00000001400a96c0 f   Menu.obj
 0001:000a8ae0       ?OnInitMenuPopup@CConEmuMenu@@QEAA_JPEAUHWND__@@PEAUHMENU__@@_J@Z 00000001400a9ae0 f   Menu.obj
 0001:000a8e50       ?trackPopupMenu@CConEmuMenu@@QEAAHW4TrackMenuPlace@@PEAUHMENU__@@IHHPEAUHWND__@@PEAUtagRECT@@@Z 00000001400a9e50 f   Menu.obj
 0001:000a9080       ?ShowMenuHint@CConEmuMenu@@AEAAXPEB_WPEAUtagPOINT@@@Z 00000001400aa080 f   Menu.obj
 0001:000a91b0       ?ShowMenuHint@CConEmuMenu@@AEAAXPEAUHMENU__@@GG@Z 00000001400aa1b0 f   Menu.obj
 0001:000a9340       ?ShowKeyBarHint@CConEmuMenu@@AEAAXPEAUHMENU__@@GG@Z 00000001400aa340 f   Menu.obj
 0001:000a9450       ?OnNcIconLClick@CConEmuMenu@@QEAAXXZ 00000001400aa450 f   Menu.obj
 0001:000a9530       ?ShowSysmenu@CConEmuMenu@@QEAAXHHK@Z 00000001400aa530 f   Menu.obj
 0001:000a9aa0       ?CreateDebugMenuPopup@CConEmuMenu@@QEAAPEAUHMENU__@@XZ 00000001400aaaa0 f   Menu.obj
 0001:000a9c90       ?CreateVConListPopupMenu@CConEmuMenu@@QEAAPEAUHMENU__@@PEAU2@H@Z 00000001400aac90 f   Menu.obj
 0001:000aa2d0       ?CreateVConPopupMenu@CConEmuMenu@@QEAAPEAUHMENU__@@PEAVCVirtualConsole@@PEAU2@_N2@Z 00000001400ab2d0 f   Menu.obj
 0001:000aaa40       ?CreateEditMenuPopup@CConEmuMenu@@QEAAPEAUHMENU__@@PEAVCVirtualConsole@@PEAU2@@Z 00000001400aba40 f   Menu.obj
 0001:000aae10       ?CreateViewMenuPopup@CConEmuMenu@@QEAAPEAUHMENU__@@PEAVCVirtualConsole@@PEAU2@@Z 00000001400abe10 f   Menu.obj
 0001:000ab090       ?CreateHelpMenuPopup@CConEmuMenu@@QEAAPEAUHMENU__@@XZ 00000001400ac090 f   Menu.obj
 0001:000ab250       ?MenuAccel@CConEmuMenu@@AEAAPEB_WHPEB_W@Z 00000001400ac250 f   Menu.obj
 0001:000ab450       ?OnSysCommand@CConEmuMenu@@QEAA_JPEAUHWND__@@_K_JI@Z 00000001400ac450 f   Menu.obj
 0001:000ac710       ?MyOpenClipboard@@YA_NPEB_W@Z 00000001400ad710 f   MyClipboard.obj
 0001:000acac0       ?MyCloseClipboard@@YAXXZ   00000001400adac0 f   MyClipboard.obj
 0001:000acb20       ?MySetClipboardData@@YAPEAXIPEAX@Z 00000001400adb20 f   MyClipboard.obj
 0001:000acbf0       ?CopyToClipboard@@YA_NPEB_W@Z 00000001400adbf0 f   MyClipboard.obj
 0001:000acf80       ?GetCliboardText@@YAPEA_WAEAKPEA_W_J@Z 00000001400adf80 f   MyClipboard.obj
 0001:000ad1f0       ?AsString@CESize@@QEAAPEB_WXZ 00000001400ae1f0 f i Options.obj
 0001:000ad270       ?ReleasePointers@Settings@@IEAAXXZ 00000001400ae270 f   Options.obj
 0001:000ad6f0       ??1Settings@@QEAA@XZ       00000001400ae6f0 f   Options.obj
 0001:000ad710       ?InitSettings@Settings@@QEAAXXZ 00000001400ae710 f   Options.obj
 0001:000ae790       ?InitVanilla@Settings@@QEAAXXZ 00000001400af790 f   Options.obj
 0001:000ae930       ?SaveVanilla@Settings@@QEAA_NPEAUSettingsBase@@@Z 00000001400af930 f   Options.obj
 0001:000aec30       ?FreeApps@Settings@@AEAAXHPEAPEAUAppSettings@@@Z 00000001400afc30 f   Options.obj
 0001:000aed10       ?LoadAppsSettings@Settings@@AEAAXPEAUSettingsBase@@_N@Z 00000001400afd10 f   Options.obj
 0001:000af1e0       ?LoadCursorSettings@Settings@@AEAAXPEAUSettingsBase@@PEATCECursorType@@1@Z 00000001400b01e0 f   Options.obj
 0001:000af520       ?LoadAppSettings@Settings@@AEAAXPEAUSettingsBase@@PEAUAppSettings@@@Z 00000001400b0520 f   Options.obj
 0001:000afb30       ?FreeCmdTasks@Settings@@IEAAXXZ 00000001400b0b30 f   Options.obj
 0001:000afc00       ?LoadCmdTasks@Settings@@QEAAXPEAUSettingsBase@@_N@Z 00000001400b0c00 f   Options.obj
 0001:000b0100       ?SaveCmdTasks@Settings@@QEAA_NPEAUSettingsBase@@@Z 00000001400b1100 f   Options.obj
 0001:000b0420       ?SortPalettes@Settings@@IEAAXXZ 00000001400b1420 f   Options.obj
 0001:000b0560       ?FreePalettes@Settings@@IEAAXXZ 00000001400b1560 f   Options.obj
 0001:000b0630       ?CreatePredefinedPalettes@Settings@@QEAAXH@Z 00000001400b1630 f   Options.obj
 0001:000b0990       ?LoadPalettes@Settings@@QEAAXPEAUSettingsBase@@@Z 00000001400b1990 f   Options.obj
 0001:000b0f70       ?SavePalettes@Settings@@IEAAXPEAUSettingsBase@@@Z 00000001400b1f70 f   Options.obj
 0001:000b15f0       ?PaletteFindCurrent@Settings@@QEAAPEBUColorPalette@@_N@Z 00000001400b25f0 f   Options.obj
 0001:000b16c0       ?PaletteFindByColors@Settings@@QEAAPEBUColorPalette@@_NPEBU2@@Z 00000001400b26c0 f   Options.obj
 0001:000b1840       ?PaletteGetPtr@Settings@@IEAAPEAUColorPalette@@H@Z 00000001400b2840 f   Options.obj
 0001:000b1930       ?PaletteSetStdIndexes@Settings@@QEAAXXZ 00000001400b2930 f   Options.obj
 0001:000b1a20       ?PaletteGetIndex@Settings@@QEAAHPEB_W@Z 00000001400b2a20 f   Options.obj
 0001:000b1ad0       ?PaletteSetActive@Settings@@QEAAHPEB_W@Z 00000001400b2ad0 f   Options.obj
 0001:000b1ba0       ?PaletteSaveAs@Settings@@QEAAXPEB_W_NEEEEEAEAY0CA@$$CBK1@Z 00000001400b2ba0 f   Options.obj
 0001:000b1ed0       ?PaletteDelete@Settings@@QEAAXPEB_W@Z 00000001400b2ed0 f   Options.obj
 0001:000b1f80       ?FreeProgresses@Settings@@IEAAXXZ 00000001400b2f80 f   Options.obj
 0001:000b2080       ?LoadSettings@Settings@@QEAAXAEA_NPEBUSettingsStorage@@@Z 00000001400b3080 f   Options.obj
 0001:000b5a60       ?LoadSizeSettings@Settings@@IEAAXPEAUSettingsBase@@@Z 00000001400b6a60 f   Options.obj
 0001:000b5ec0       ?SaveSizeSettings@Settings@@IEAAXPEAUSettingsBase@@@Z 00000001400b6ec0 f   Options.obj
 0001:000b6280       ?SaveSettingsOnExit@Settings@@QEAAXXZ 00000001400b7280 f   Options.obj
 0001:000b6830       ?SaveStopBuzzingDate@Settings@@QEAAXXZ 00000001400b7830 f   Options.obj
 0001:000b69e0       ?SaveConsoleFont@Settings@@QEAAXXZ 00000001400b79e0 f   Options.obj
 0001:000b6af0       ?SaveFindOptions@Settings@@QEAAXPEAUSettingsBase@@@Z 00000001400b7af0 f   Options.obj
 0001:000b6c70       ?SaveAppsSettings@Settings@@QEAAXPEAUSettingsBase@@@Z 00000001400b7c70 f   Options.obj
 0001:000b6f20       ?SaveStdColors@Settings@@AEAAXPEAUSettingsBase@@@Z 00000001400b7f20 f   Options.obj
 0001:000b7100       ?SaveAppSettings@Settings@@AEAAXPEAUSettingsBase@@PEAUAppSettings@@@Z 00000001400b8100 f   Options.obj
 0001:000b7530       ?SaveStatusSettings@Settings@@IEAAXPEAUSettingsBase@@@Z 00000001400b8530 f   Options.obj
 0001:000b7730       ?SaveStartCommands@Settings@@AEAAXPEAUSettingsBase@@@Z 00000001400b8730 f   Options.obj
 0001:000b78c0       ?SaveSettings@Settings@@QEAAHHPEBUSettingsStorage@@@Z 00000001400b88c0 f   Options.obj
 0001:000babb0       ?StatusBarHeight@Settings@@QEAAHXZ 00000001400bbbb0 f   Options.obj
 0001:000bac70       ?isUseClink@Settings@@QEAAK_N@Z 00000001400bbc70 f   Options.obj
 0001:000bb040       ?HistoryLoad@Settings@@QEAAXPEAUSettingsBase@@@Z 00000001400bc040 f   Options.obj
 0001:000bb1a0       ?HistorySave@Settings@@QEAAXPEAUSettingsBase@@@Z 00000001400bc1a0 f   Options.obj
 0001:000bb2f0       ?HistoryAdd@Settings@@QEAAXPEB_W@Z 00000001400bc2f0 f   Options.obj
 0001:000bb460       ?ParseCharRanges@Settings@@QEAAHPEB_WAEAY0BAAAA@EE@Z 00000001400bc460 f   Options.obj
 0001:000bb5f0       ?CreateCharRanges@Settings@@QEAAPEA_WAEAY0BAAAA@E@Z 00000001400bc5f0 f   Options.obj
 0001:000bb790       ?CheckConsoleSettings@Settings@@QEAAXXZ 00000001400bc790 f   Options.obj
 0001:000bb930       ?GetStoragePlaceDescr@Settings@@QEAAPEA_WPEBUSettingsStorage@@PEB_W@Z 00000001400bc930 f   Options.obj
 0001:000bbe00       ?CreateSettings@Settings@@QEAAPEAUSettingsBase@@PEBUSettingsStorage@@@Z 00000001400bce00 f   Options.obj
 0001:000bc050       ?GetSettingsType@Settings@@QEAAXAEAUSettingsStorage@@AEA_N@Z 00000001400bd050 f   Options.obj
 0001:000bc1b0       ?isHideCaptionAlways@Settings@@QEAA_NXZ 00000001400bd1b0 f   Options.obj
 0001:000bc1f0       ?isAlwaysShowTrayIcon@Settings@@QEAA_NXZ 00000001400bd1f0 f   Options.obj
 0001:000bc270       ?SetMinToTray@Settings@@QEAAX_N@Z 00000001400bd270 f   Options.obj
 0001:000bc310       ?isCaptionHidden@Settings@@QEAA_NW4ConEmuWindowMode@@@Z 00000001400bd310 f   Options.obj
 0001:000bc380       ?HideCaptionAlwaysFrame@Settings@@QEAAHXZ 00000001400bd380 f   Options.obj
 0001:000bc3e0       ?isFrameHidden@Settings@@QEAA_NXZ 00000001400bd3e0 f   Options.obj
 0001:000bc440       ?GetAppSettingsId@Settings@@QEAAHPEB_W_N@Z 00000001400bd440 f   Options.obj
 0001:000bc600       ?GetAppSettings@Settings@@QEAAPEBUAppSettings@@H@Z 00000001400bd600 f   Options.obj
 0001:000bc650       ?GetAppSettingsPtr@Settings@@IEAAPEAUAppSettings@@HH@Z 00000001400bd650 f   Options.obj
 0001:000bc800       ?AppSettingsDelete@Settings@@IEAAXH@Z 00000001400bd800 f   Options.obj
 0001:000bc8c0       ?ResetFadeColors@Settings@@QEAAXXZ 00000001400bd8c0 f   Options.obj
 0001:000bc920       ?GetPaletteColors@Settings@@QEAAPEAKPEB_WH@Z 00000001400bd920 f   Options.obj
 0001:000bc9d0       ?GetColors@Settings@@QEAAPEAKHH@Z 00000001400bd9d0 f   Options.obj
 0001:000bcaa0       ?PrepareFadeColors@Settings@@QEAAXPEAK0PEA_N@Z 00000001400bdaa0 f   Options.obj
 0001:000bcc30       ?GetFadeColor@Settings@@QEAAKK@Z 00000001400bdc30 f   Options.obj
 0001:000bcd50       ?IsModifierPressed@Settings@@QEAAXHPEA_N0@Z 00000001400bdd50 f   Options.obj
 0001:000bce60       ?isLogging@Settings@@QEAAII@Z 00000001400bde60 f   Options.obj
 0001:000bcec0       ?isHideOnLastTabClose@Settings@@QEAA_NXZ 00000001400bdec0 f   Options.obj
 0001:000bcf10       ?isTabsOnTaskBar@Settings@@QEAA_NXZ 00000001400bdf10 f   Options.obj
 0001:000bcf70       ?isRClickTouchInvert@Settings@@QEAA_NXZ 00000001400bdf70 f   Options.obj
 0001:000bcff0       ?CmdTaskGet@Settings@@QEAAPEBUCommandTasks@@H@Z 00000001400bdff0 f   Options.obj
 0001:000bd170       ?CmdTaskGetByName@Settings@@QEAAPEBUCommandTasks@@PEB_W@Z 00000001400be170 f   Options.obj
 0001:000bd310       ?CmdTaskSet@Settings@@QEAAHHPEB_W00K@Z 00000001400be310 f   Options.obj
 0001:000bd980       ?CmdTaskXch@Settings@@QEAA_NHH@Z 00000001400be980 f   Options.obj
 0001:000bd9e0       ?GetDefaultTerminalApps@Settings@@QEAAPEA_WXZ 00000001400be9e0 f   Options.obj
 0001:000bdb40       ?SetDefaultTerminalApps@Settings@@QEAAXPEB_W@Z 00000001400beb40 f   Options.obj
 0001:000bdc00       ?MSZ2LineDelimited@Settings@@QEAAPEA_WPEB_W0_N@Z 00000001400bec00 f   Options.obj
 0001:000bdd70       ?LineDelimited2MSZ@Settings@@QEAAPEA_WPEB_W_N@Z 00000001400bed70 f   Options.obj
 0001:000bdec0       ?MultiLine2MSZ@Settings@@QEAAPEA_WPEB_WPEAK@Z 00000001400beec0 f   Options.obj
 0001:000be140       ?LoadMSZ@Settings@@QEAA_NPEAUSettingsBase@@PEB_WAEAPEA_W1_N@Z 00000001400bf140 f   Options.obj
 0001:000be220       ?SaveMSZ@Settings@@QEAAXPEAUSettingsBase@@PEB_W11_N@Z 00000001400bf220 f   Options.obj
 0001:000be2d0       ?GetIntelligentExceptions@Settings@@QEAAPEA_WXZ 00000001400bf2d0 f   Options.obj
 0001:000be430       ?SetIntelligentExceptions@Settings@@QEAAXPEB_W@Z 00000001400bf430 f   Options.obj
 0001:000be4b0       ?GetHotkeyById@Settings@@QEAAKHPEAPEBUConEmuHotKey@@@Z 00000001400bf4b0 f   Options.obj
 0001:000be590       ?GetHotkeyNameById@Settings@@QEAAPEB_WHAEAY0IA@_W_N@Z 00000001400bf590 f   Options.obj
 0001:000be660       ?SetHotkeyById@Settings@@QEAAXHK@Z 00000001400bf660 f   Options.obj
 0001:000be6d0       ?isModifierExist@Settings@@QEAA_NE_N@Z 00000001400bf6d0 f   Options.obj
 0001:000be770       ?LoadHotkeys@Settings@@AEAAXPEAUSettingsBase@@AEB_N11@Z 00000001400bf770 f   Options.obj
 0001:000bece0       ?CheckHotkeyUnique@Settings@@QEAAXXZ 00000001400bfce0 f   Options.obj
 0001:000bf190       ?SaveHotkeys@Settings@@AEAAXPEAUSettingsBase@@H@Z 00000001400c0190 f   Options.obj
 0001:000bf590       ?Create@CSetPgANSI@@SAPEAVCSetPgBase@@XZ 00000001400c0590 f i OptionsClass.obj
 0001:000bf5f0       ?Create@CSetPgAppear@@SAPEAVCSetPgBase@@XZ 00000001400c05f0 f i OptionsClass.obj
 0001:000bf650       ?Create@CSetPgApps@@SAPEAVCSetPgBase@@XZ 00000001400c0650 f i OptionsClass.obj
 0001:000bf6c0       ?Create@CSetPgBackgr@@SAPEAVCSetPgBase@@XZ 00000001400c06c0 f i OptionsClass.obj
 0001:000bf720       ?Create@CSetPgChildGui@@SAPEAVCSetPgBase@@XZ 00000001400c0720 f i OptionsClass.obj
 0001:000bf780       ?Create@CSetPgColors@@SAPEAVCSetPgBase@@XZ 00000001400c0780 f i OptionsClass.obj
 0001:000bf7e0       ?Create@CSetPgComspec@@SAPEAVCSetPgBase@@XZ 00000001400c07e0 f i OptionsClass.obj
 0001:000bf840       ?Create@CSetPgConfirm@@SAPEAVCSetPgBase@@XZ 00000001400c0840 f i OptionsClass.obj
 0001:000bf8a0       ?Create@CSetPgCursor@@SAPEAVCSetPgBase@@XZ 00000001400c08a0 f i OptionsClass.obj
 0001:000bf900       ?Create@CSetPgDebug@@SAPEAVCSetPgBase@@XZ 00000001400c0900 f i OptionsClass.obj
 0001:000bf960       ?Create@CSetPgDefTerm@@SAPEAVCSetPgBase@@XZ 00000001400c0960 f i OptionsClass.obj
 0001:000bf9c0       ?Create@CSetPgEnvironment@@SAPEAVCSetPgBase@@XZ 00000001400c09c0 f i OptionsClass.obj
 0001:000bfa20       ?Create@CSetPgFar@@SAPEAVCSetPgBase@@XZ 00000001400c0a20 f i OptionsClass.obj
 0001:000bfa80       ?Create@CSetPgFarMacro@@SAPEAVCSetPgBase@@XZ 00000001400c0a80 f i OptionsClass.obj
 0001:000bfae0       ?Create@CSetPgFeatures@@SAPEAVCSetPgBase@@XZ 00000001400c0ae0 f i OptionsClass.obj
 0001:000bfb40       ?Create@CSetPgFonts@@SAPEAVCSetPgBase@@XZ 00000001400c0b40 f i OptionsClass.obj
 0001:000bfba0       ?Create@CSetPgHilight@@SAPEAVCSetPgBase@@XZ 00000001400c0ba0 f i OptionsClass.obj
 0001:000bfc00       ?Create@CSetPgInfo@@SAPEAVCSetPgBase@@XZ 00000001400c0c00 f i OptionsClass.obj
 0001:000bfc60       ?Create@CSetPgIntegr@@SAPEAVCSetPgBase@@XZ 00000001400c0c60 f i OptionsClass.obj
 0001:000bfcc0       ?Create@CSetPgKeyboard@@SAPEAVCSetPgBase@@XZ 00000001400c0cc0 f i OptionsClass.obj
 0001:000bfd20       ?Create@CSetPgKeys@@SAPEAVCSetPgBase@@XZ 00000001400c0d20 f i OptionsClass.obj
 0001:000bfda0       ?Create@CSetPgMarkCopy@@SAPEAVCSetPgBase@@XZ 00000001400c0da0 f i OptionsClass.obj
 0001:000bfe00       ?Create@CSetPgMouse@@SAPEAVCSetPgBase@@XZ 00000001400c0e00 f i OptionsClass.obj
 0001:000bfe60       ?Create@CSetPgPaste@@SAPEAVCSetPgBase@@XZ 00000001400c0e60 f i OptionsClass.obj
 0001:000bfec0       ?Create@CSetPgQuake@@SAPEAVCSetPgBase@@XZ 00000001400c0ec0 f i OptionsClass.obj
 0001:000bff20       ?Create@CSetPgSizePos@@SAPEAVCSetPgBase@@XZ 00000001400c0f20 f i OptionsClass.obj
 0001:000bff80       ?Create@CSetPgStartup@@SAPEAVCSetPgBase@@XZ 00000001400c0f80 f i OptionsClass.obj
 0001:000bffe0       ?Create@CSetPgStatus@@SAPEAVCSetPgBase@@XZ 00000001400c0fe0 f i OptionsClass.obj
 0001:000c0040       ?Create@CSetPgTabs@@SAPEAVCSetPgBase@@XZ 00000001400c1040 f i OptionsClass.obj
 0001:000c00a0       ?Create@CSetPgTaskbar@@SAPEAVCSetPgBase@@XZ 00000001400c10a0 f i OptionsClass.obj
 0001:000c0100       ?Create@CSetPgTasks@@SAPEAVCSetPgBase@@XZ 00000001400c1100 f i OptionsClass.obj
 0001:000c0160       ?Create@CSetPgTransparent@@SAPEAVCSetPgBase@@XZ 00000001400c1160 f i OptionsClass.obj
 0001:000c01c0       ?Create@CSetPgUpdate@@SAPEAVCSetPgBase@@XZ 00000001400c11c0 f i OptionsClass.obj
 0001:000c0220       ?Create@CSetPgViews@@SAPEAVCSetPgBase@@XZ 00000001400c1220 f i OptionsClass.obj
 0001:000c0280       ??0CSettings@@QEAA@XZ      00000001400c1280 f   OptionsClass.obj
 0001:000c0740       ??_ECSettings@@UEAAPEAXI@Z 00000001400c1740 f i * CIL library *:* CIL module *
 0001:000c0740       ??_GCSettings@@UEAAPEAXI@Z 00000001400c1740 f i OptionsClass.obj
 0001:000c0780       ?UpdateWinHookSettings@CSettings@@QEAAXPEAUHINSTANCE__@@@Z 00000001400c1780 f   OptionsClass.obj
 0001:000c0c30       ?InitVars_Pages@CSettings@@AEAAXXZ 00000001400c1c30 f   OptionsClass.obj
 0001:000c15f0       ?InitPageNames@CSettings@@AEAAXXZ 00000001400c25f0 f   OptionsClass.obj
 0001:000c1720       ??1CSettings@@UEAA@XZ      00000001400c2720 f   OptionsClass.obj
 0001:000c1950       ?SetConfigName@CSettings@@QEAAXPEB_W@Z 00000001400c2950 f   OptionsClass.obj
 0001:000c1a90       ?SetOption@CSettings@@QEAA_NPEB_WH@Z 00000001400c2a90 f   OptionsClass.obj
 0001:000c1b60       ?SetOption@CSettings@@QEAA_NPEB_W0@Z 00000001400c2b60 f   OptionsClass.obj
 0001:000c1c70       ?SettingsLoaded@CSettings@@QEAAXKPEB_W@Z 00000001400c2c70 f   OptionsClass.obj
 0001:000c2540       ?SettingsPreSave@CSettings@@QEAAXXZ 00000001400c3540 f   OptionsClass.obj
 0001:000c27b0       ?SearchForControls@CSettings@@IEAAXXZ 00000001400c37b0 f   OptionsClass.obj
 0001:000c3460       ?OnInitDialog@CSettings@@IEAA_JXZ 00000001400c4460 f   OptionsClass.obj
 0001:000c42e0       ?CheckSelectionModifiers@CSettings@@QEAAXPEAUHWND__@@@Z 00000001400c52e0 f   OptionsClass.obj
 0001:000c4a80       ?UpdateTextColorSettings@CSettings@@QEAAXHHPEBUAppSettings@@@Z 00000001400c5a80 f   OptionsClass.obj
 0001:000c4ad0       ?ChangeCurrentPalette@CSettings@@QEAAXPEBUColorPalette@@_N@Z 00000001400c5ad0 f   OptionsClass.obj
 0001:000c5260       ?OnPage@CSettings@@IEAA_JPEAUtagNMHDR@@@Z 00000001400c6260 f   OptionsClass.obj
 0001:000c57a0       ?Dialog@CSettings@@SAXH@Z  00000001400c67a0 f   OptionsClass.obj
 0001:000c5a80       ?OnSettingsClosed@CSettings@@QEAAXXZ 00000001400c6a80 f   OptionsClass.obj
 0001:000c5c30       ?OnResetOrReload@CSettings@@IEAAX_NPEAUSettingsStorage@@@Z 00000001400c6c30 f   OptionsClass.obj
 0001:000c5f10       ?ExportSettings@CSettings@@IEAAXXZ 00000001400c6f10 f   OptionsClass.obj
 0001:000c6280       ?ImportSettings@CSettings@@IEAAXXZ 00000001400c7280 f   OptionsClass.obj
 0001:000c64c0       ?ProcessTipHelp@CSettings@@QEAA_JPEAUHWND__@@I_K_J@Z 00000001400c74c0 f   OptionsClass.obj
 0001:000c6570       ?wndOpProc@CSettings@@SA_JPEAUHWND__@@I_K_J@Z 00000001400c7570 f   OptionsClass.obj
 0001:000c6c00       ?OnCtlColorStatic@CSettings@@IEAA_JPEAUHWND__@@PEAUHDC__@@0G@Z 00000001400c7c00 f   OptionsClass.obj
 0001:000c6cb0       ?OnMeasureFontItem@CSettings@@IEAA_JPEAUHWND__@@I_K_J@Z 00000001400c7cb0 f   OptionsClass.obj
 0001:000c6d50       ?OnDrawFontItem@CSettings@@IEAA_JPEAUHWND__@@I_K_J@Z 00000001400c7d50 f   OptionsClass.obj
 0001:000c6fc0       ?UpdateWindowMode@CSettings@@QEAAXW4ConEmuWindowMode@@@Z 00000001400c7fc0 f   OptionsClass.obj
 0001:000c7070       ?UpdatePos@CSettings@@QEAAXHH_N@Z 00000001400c8070 f   OptionsClass.obj
 0001:000c7420       ?UpdateSize@CSettings@@QEAAXTCESize@@0@Z 00000001400c8420 f   OptionsClass.obj
 0001:000c7920       ?UpdateFontInfo@CSettings@@QEAAXXZ 00000001400c8920 f   OptionsClass.obj
 0001:000c79b0       ?PostUpdateCounters@CSettings@@QEAAX_N@Z 00000001400c89b0 f   OptionsClass.obj
 0001:000c8230       ?Performance@CSettings@@QEAAXIH@Z 00000001400c9230 f   OptionsClass.obj
 0001:000c8760       ?BalloonStyle@CSettings@@QEAAKXZ 00000001400c9760 f   OptionsClass.obj
 0001:000c8800       ?RegisterTipsFor@CSettings@@QEAAXPEAUHWND__@@@Z 00000001400c9800 f   OptionsClass.obj
 0001:000c8cc0       ?RegisterTipsForChild@CSettings@@CAHPEAUHWND__@@_J@Z 00000001400c9cc0 f   OptionsClass.obj
 0001:000c8e30       ?RecreateFont@CSettings@@AEAAXG@Z 00000001400c9e30 f   OptionsClass.obj
 0001:000c8f20       ?SetArgBufferHeight@CSettings@@QEAAXH@Z 00000001400c9f20 f   OptionsClass.obj
 0001:000c8fe0       ?GetDefaultCreateAction@CSettings@@QEAA?AW4RecreateActionParm@@XZ 00000001400c9fe0 f   OptionsClass.obj
 0001:000c9030       ?IsMulti@CSettings@@QEAA_NXZ 00000001400ca030 f   OptionsClass.obj
 0001:000c9070       ?IsSingleInstanceArg@CSettings@@QEAA_NXZ 00000001400ca070 f   OptionsClass.obj
 0001:000c90a0       ?ResetCmdHistory@CSettings@@QEAA_NPEAUHWND__@@@Z 00000001400ca0a0 f   OptionsClass.obj
 0001:000c9120       ?SetSaveCmdHistory@CSettings@@QEAAX_N@Z 00000001400ca120 f   OptionsClass.obj
 0001:000c91c0       ?RegisterTabs@CSettings@@AEAAXXZ 00000001400ca1c0 f   OptionsClass.obj
 0001:000c9230       ?UnregisterTabs@CSettings@@AEAAXXZ 00000001400ca230 f   OptionsClass.obj
 0001:000c9290       ?UpdateConsoleMode@CSettings@@QEAAXPEAVCRealConsole@@@Z 00000001400ca290 f   OptionsClass.obj
 0001:000c9370       ?CheckTheming@CSettings@@QEAA_NXZ 00000001400ca370 f   OptionsClass.obj
 0001:000c9440       ?CenterMoreDlg@CSettings@@CAXPEAUHWND__@@@Z 00000001400ca440 f   OptionsClass.obj
 0001:000c9500       ?OnPanelViewAppeared@CSettings@@QEAAXH@Z 00000001400ca500 f   OptionsClass.obj
 0001:000c95b0       ?IsBackgroundEnabled@CSettings@@QEAA_NPEAVCVirtualConsole@@@Z 00000001400ca5b0 f   OptionsClass.obj
 0001:000c9740       ?SetBgImageDarker@CSettings@@QEAAXE_N@Z 00000001400ca740 f   OptionsClass.obj
 0001:000c9880       ?LoadBackgroundFile@CSettings@@QEAA_NPEA_W_N@Z 00000001400ca880 f   OptionsClass.obj
 0001:000c9900       ?NeedBackgroundUpdate@CSettings@@QEAAXXZ 00000001400ca900 f   OptionsClass.obj
 0001:000c9a40       ?ShowModifierErrorTip@CSettings@@QEAAXPEB_WPEAUHWND__@@G@Z 00000001400caa40 f   OptionsClass.obj
 0001:000c9ad0       ?ShowFontErrorTip@CSettings@@QEAAXPEB_W@Z 00000001400caad0 f   OptionsClass.obj
 0001:000c9b90       ?ShowConFontErrorTip@CSettings@@QEAAXXZ 00000001400cab90 f   OptionsClass.obj
 0001:000c9bf0       ?ShowErrorTip@CSettings@@AEAAXPEA_WPEAUHWND__@@H1PEAUtagTOOLINFOW@@1K_N@Z 00000001400cabf0 f   OptionsClass.obj
 0001:000c9d80       ?EditConsoleFont@CSettings@@QEAA_NPEAUHWND__@@@Z 00000001400cad80 f   OptionsClass.obj
 0001:000c9dd0       ?CheckConsoleFontRegistry@CSettings@@KA_NPEB_W@Z 00000001400cadd0 f   OptionsClass.obj
 0001:000ca0a0       ?CheckConsoleFontFast@CSettings@@QEAA_NPEB_W@Z 00000001400cb0a0 f   OptionsClass.obj
 0001:000ca840       ?CheckConsoleFont@CSettings@@KA_NPEAUHWND__@@@Z 00000001400cb840 f   OptionsClass.obj
 0001:000caca0       ?EditConsoleFontProc@CSettings@@SA_JPEAUHWND__@@I_K_J@Z 00000001400cbca0 f   OptionsClass.obj
 0001:000cbb70       ?CreateConFontError@CSettings@@IEAAPEB_WPEB_W0@Z 00000001400ccb70 f   OptionsClass.obj
 0001:000cbec0       ?EnumConFamCallBack@CSettings@@SAHPEAUtagLOGFONTW@@PEAUtagNEWTEXTMETRICW@@KPEAX@Z 00000001400ccec0 f   OptionsClass.obj
 0001:000cc1d0       ?isDialogMessage@CSettings@@QEAA_NAEAUtagMSG@@@Z 00000001400cd1d0 f   OptionsClass.obj
 0001:000cc300       ?GetActivePage@CSettings@@QEAAPEAUHWND__@@XZ 00000001400cd300 f   OptionsClass.obj
 0001:000cc390       ?GetActivePageObj@CSettings@@QEAAPEAVCSetPgBase@@XZ 00000001400cd390 f   OptionsClass.obj
 0001:000cc420       ?ClearPages@CSettings@@AEAAXXZ 00000001400cd420 f   OptionsClass.obj
 0001:000cc510       ?InitName@?$MFileMapping@UPanelViewSetMapping@@@@QEAAPEB_WPEB_WKK@Z 00000001400cd510 f i OptionsClass.obj
 0001:000cc5a0       ?InternalOpenCreate@?$MFileMapping@UPanelViewSetMapping@@@@IEAAPEAUPanelViewSetMapping@@HHH@Z 00000001400cd5a0 f i OptionsClass.obj
 0001:000cca70       ?Fast_FindStartupTask@@YAXK@Z 00000001400cda70 f   OptionsFast.obj
 0001:000ce610       ?CheckOptionsFast@@YAXPEB_WK@Z 00000001400cf610 f   OptionsFast.obj
 0001:000cee90       ??1FoundFiles@@QEAA@XZ     00000001400cfe90 f i OptionsFast.obj
 0001:000cefa0       ?Add@FoundFiles@@QEAAXPEB_W0@Z 00000001400cffa0 f i OptionsFast.obj
 0001:000cfc90       ?Process@CVarDefs@@QEAAXHPEB_W@Z 00000001400d0c90 f i OptionsFast.obj
 0001:000d0000       ??1CVarDefs@@QEAA@XZ       00000001400d1000 f i OptionsFast.obj
 0001:000d0490       ?Free@AppInfo@AppFoundList@@QEAAXXZ 00000001400d1490 f i OptionsFast.obj
 0001:000d05d0       ?AddAppPath@AppFoundList@@MEAA_JPEB_W00_N000@Z 00000001400d15d0 f i OptionsFast.obj
 0001:000d08b0       ?Clean@AppFoundList@@IEAAXXZ 00000001400d18b0 f i OptionsFast.obj
 0001:000d0950       ?Trim@AppFoundList@@IEAA_NXZ 00000001400d1950 f i OptionsFast.obj
 0001:000d0a30       ?Add@AppFoundList@@QEAA_NPEB_W0000ZZ 00000001400d1a30 f i OptionsFast.obj
 0001:000d0ca0       ?CheckUnique@AppFoundList@@QEAA_NPEB_W@Z 00000001400d1ca0 f i OptionsFast.obj
 0001:000d0db0       ?MakeUnique@AppFoundList@@UEAAXXZ 00000001400d1db0 f i OptionsFast.obj
 0001:000d12f0       ?Commit@AppFoundList@@UEAA_NXZ 00000001400d22f0 f i OptionsFast.obj
 0001:000d19c0       ??1AppFoundList@@UEAA@XZ   00000001400d29c0 f i OptionsFast.obj
 0001:000d19c0       ??1FarVerList@@UEAA@XZ     00000001400d29c0 f i OptionsFast.obj
 0001:000d19f0       ??_EAppFoundList@@UEAAPEAXI@Z 00000001400d29f0 f i * CIL library *:* CIL module *
 0001:000d19f0       ??_GAppFoundList@@UEAAPEAXI@Z 00000001400d29f0 f i OptionsFast.obj
 0001:000d1a40       ?ScanRegistry@FarVerList@@IEAAXXZ 00000001400d2a40 f i OptionsFast.obj
 0001:000d1de0       ?FindInstalledVersions@FarVerList@@QEAAXXZ 00000001400d2de0 f i OptionsFast.obj
 0001:000d2570       ??0FarVerList@@QEAA@XZ     00000001400d3570 f i OptionsFast.obj
 0001:000d2690       ??_EFarVerList@@UEAAPEAXI@Z 00000001400d3690 f i * CIL library *:* CIL module *
 0001:000d2690       ??_GFarVerList@@UEAAPEAXI@Z 00000001400d3690 f i OptionsFast.obj
 0001:000d4c80       ??_FAppFoundList@@QEAAXXZ  00000001400d5c80 f i OptionsFast.obj
 0001:000d7080       ?CreateDefaultTasks@@YAXK@Z 00000001400d8080 f   OptionsFast.obj
 0001:000d73e0       ?sort@?$MArray@UAppInfo@AppFoundList@@@@QEAAXP6AHAEAUAppInfo@AppFoundList@@0@Z@Z 00000001400d83e0 f i OptionsFast.obj
 0001:000d7560       ?GetItemHelp@CEHelpPopup@@QEAA_NHPEAUHWND__@@PEA_WK@Z 00000001400d8560 f   OptionsHelp.obj
 0001:000d76d0       ?ShowItemHelp@CEHelpPopup@@QEAAXHPEAUHWND__@@UtagPOINT@@@Z 00000001400d86d0 f   OptionsHelp.obj
 0001:000d7850       ?helpProc@CEHelpPopup@@SA_JPEAUHWND__@@I_K_J@Z 00000001400d8850 f   OptionsHelp.obj
 0001:000d79f0       ??0CPushInfo@@QEAA@XZ      00000001400d89f0 f   PushInfo.obj
 0001:000d7c40       ?ShowNotification@CPushInfo@@QEAA_NXZ 00000001400d8c40 f   PushInfo.obj
 0001:000d7e00       ?OnNotificationClick@CPushInfo@@QEAAXXZ 00000001400d8e00 f   PushInfo.obj
 0001:000d81f0       ?isValid@CRConDataGuard@@QEAA_N_K@Z 00000001400d91f0 f   RConData.obj
 0001:000d8230       ?Allocate@CRConData@@SA_NAEAVCRConDataGuard@@PEAVCRealConsole@@_K@Z 00000001400d9230 f   RConData.obj
 0001:000d8440       ?Allocate@CRConData@@SA_NAEAVCRConDataGuard@@PEAVCRealConsole@@PEA_WPEAUtag_CharAttr@@AEBU_CONSOLE_SCREEN_BUFFER_INFO@@AEBU_COORD@@@Z 00000001400d9440 f   RConData.obj
 0001:000d85b0       ??_GCRConData@@MEAAPEAXI@Z 00000001400d95b0 f i RConData.obj
 0001:000d85b0       ??_ECRConData@@MEAAPEAXI@Z 00000001400d95b0 f i * CIL library *:* CIL module *
 0001:000d85f0       ??1CRConData@@MEAA@XZ      00000001400d95f0 f   RConData.obj
 0001:000d86d0       ?GetConsoleData@CRConData@@QEAAIPEA_WPEAUtag_CharAttr@@II_WU2@11_N4E4@Z 00000001400d96d0 f   RConData.obj
 0001:000d8ef0       ?GetConsoleLine@CRConData@@QEBA_NHAEAUConsoleLinePtr@@@Z 00000001400d9ef0 f   RConData.obj
 0001:000d8fb0       ?FindPanels@CRConData@@QEAA_NAEA_NAEAUtagRECT@@1011@Z 00000001400d9fb0 f   RConData.obj
 0001:000d96e0       ?CheckProgressInConsole@CRConData@@QEAAFI@Z 00000001400da6e0 f   RConData.obj
 0001:000d9da0       ?GetFileFromConsole@CRConFiles@@QEAAPEB_WPEB_WAEAUCEStr@@@Z 00000001400dada0 f   RConFiles.obj
 0001:000da1d0       ?CheckParentFolders@CRConFiles@@AEAA_NPEB_W0AEAUCEStr@@@Z 00000001400db1d0 f   RConFiles.obj
 0001:000da480       ??_ECRConPalette@@UEAAPEAXI@Z 00000001400db480 f i * CIL library *:* CIL module *
 0001:000da480       ??_GCRConPalette@@UEAAPEAXI@Z 00000001400db480 f i RConPalette.obj
 0001:000da4b0       ?UpdateColorTable@CRConPalette@@QEAAXPEAK_N1EEE@Z 00000001400db4b0 f   RConPalette.obj
 0001:000da9a0       ??$swprintf_s@$0MI@@@YAHAEAY0MI@_WPEB_WZZ 00000001400db9a0 f i RConPalette.obj
 0001:000daa00       ??1CFormatCopy@@UEAA@XZ    00000001400dba00 f i RealBuffer.obj
 0001:000dab20       ?LineAdd@CFormatCopy@@UEAAXPEB_WPEBGPEBK_J@Z 00000001400dbb20 f i RealBuffer.obj
 0001:000dac00       ?LineAdd@CFormatCopy@@UEAAXPEB_WPEBUtag_CharAttr@@_J@Z 00000001400dbc00 f i RealBuffer.obj
 0001:000dacf0       ?RawAdd@CFormatCopy@@IEAAXPEB_W_J@Z 00000001400dbcf0 f i RealBuffer.obj
 0001:000daf40       ?CreateResultInternal@CFormatCopy@@IEAAPEAXPEBD_J@Z 00000001400dbf40 f i RealBuffer.obj
 0001:000db0e0       ??_GCFormatCopy@@UEAAPEAXI@Z 00000001400dc0e0 f i RealBuffer.obj
 0001:000db0e0       ??_ECFormatCopy@@UEAAPEAXI@Z 00000001400dc0e0 f i * CIL library *:* CIL module *
 0001:000db120       ??0CHtmlCopy@@QEAA@_NPEB_W1HKK@Z 00000001400dc120 f i RealBuffer.obj
 0001:000db240       ?ParBegin@CHtmlCopy@@MEAAXXZ 00000001400dc240 f i RealBuffer.obj
 0001:000db290       ?ParEnd@CHtmlCopy@@MEAAXXZ 00000001400dc290 f i RealBuffer.obj
 0001:000db2c0       ?TextAdd@CHtmlCopy@@MEAAXPEB_W_JKK_N22@Z 00000001400dc2c0 f i RealBuffer.obj
 0001:000db840       ?CreateResult@CHtmlCopy@@UEAAPEAXXZ 00000001400dc840 f i RealBuffer.obj
 0001:000db9c0       ??_GCHtmlCopy@@UEAAPEAXI@Z 00000001400dc9c0 f i RealBuffer.obj
 0001:000db9c0       ??_ECHtmlCopy@@UEAAPEAXI@Z 00000001400dc9c0 f i * CIL library *:* CIL module *
 0001:000dba00       ?FormatColor@CAnsiCopy@@IEAAPEB_WKK_N00AEAY0FA@_W@Z 00000001400dca00 f i RealBuffer.obj
 0001:000dbfe0       ??0CAnsiCopy@@QEAA@PEAKKK@Z 00000001400dcfe0 f i RealBuffer.obj
 0001:000dc080       ?ParBegin@CAnsiCopy@@MEAAXXZ 00000001400dd080 f i RealBuffer.obj
 0001:000dc0d0       ?ParEnd@CAnsiCopy@@MEAAXXZ 00000001400dd0d0 f i RealBuffer.obj
 0001:000dc100       ?TextAdd@CAnsiCopy@@MEAAXPEB_W_JKK_N22@Z 00000001400dd100 f i RealBuffer.obj
 0001:000dc290       ?CreateResult@CAnsiCopy@@UEAAPEAXXZ 00000001400dd290 f i RealBuffer.obj
 0001:000dc330       ??_ECAnsiCopy@@UEAAPEAXI@Z 00000001400dd330 f i * CIL library *:* CIL module *
 0001:000dc330       ??_GCAnsiCopy@@UEAAPEAXI@Z 00000001400dd330 f i RealBuffer.obj
 0001:000dc370       ?Close@ConDumpInfo@CRealBuffer@@QEAAXXZ 00000001400dd370 f i RealBuffer.obj
 0001:000dc3f0       ??0CRealBuffer@@QEAA@PEAVCRealConsole@@W4RealBufferType@@@Z 00000001400dd3f0 f   RealBuffer.obj
 0001:000dc5b0       ??1CRConDataGuard@@UEAA@XZ 00000001400dd5b0 f i RealBuffer.obj
 0001:000dc610       ??_GCRConDataGuard@@UEAAPEAXI@Z 00000001400dd610 f i RealBuffer.obj
 0001:000dc610       ??_G?$CRefGuard@VCRConData@@@@UEAAPEAXI@Z 00000001400dd610 f i RealBuffer.obj
 0001:000dc610       ??_E?$CRefGuard@VCRConData@@@@UEAAPEAXI@Z 00000001400dd610 f i * CIL library *:* CIL module *
 0001:000dc610       ??_ECRConDataGuard@@UEAAPEAXI@Z 00000001400dd610 f i * CIL library *:* CIL module *
 0001:000dc690       ??1CRealBuffer@@QEAA@XZ    00000001400dd690 f   RealBuffer.obj
 0001:000dc820       ?DumpConsole@CRealBuffer@@QEAAXPEAX@Z 00000001400dd820 f   RealBuffer.obj
 0001:000dc980       ?LoadDumpConsole@CRealBuffer@@QEAA_NPEB_W@Z 00000001400dd980 f   RealBuffer.obj
 0001:000dcff0       ?LoadDataFromDump@CRealBuffer@@AEAA_NAEBU_CONSOLE_SCREEN_BUFFER_INFO@@PEBU_CHAR_INFO@@K@Z 00000001400ddff0 f   RealBuffer.obj
 0001:000dd460       ?LoadAlternativeConsole@CRealBuffer@@QEAA_NW4LoadAltMode@@@Z 00000001400de460 f   RealBuffer.obj
 0001:000dd9d0       ?SetConsoleSizeSrv@CRealBuffer@@AEAA_NGGGK@Z 00000001400de9d0 f   RealBuffer.obj
 0001:000de4d0       ?SetConsoleSize@CRealBuffer@@QEAA_NFFGK@Z 00000001400df4d0 f   RealBuffer.obj
 0001:000de8b0       ?SyncConsole2Window@CRealBuffer@@QEAAXFF@Z 00000001400df8b0 f   RealBuffer.obj
 0001:000dea40       ?isFarMenuOrMacro@CRealBuffer@@QEAA_NXZ 00000001400dfa40 f   RealBuffer.obj
 0001:000dec70       ?PreInit@CRealBuffer@@QEAA_NXZ 00000001400dfc70 f   RealBuffer.obj
 0001:000deee0       ?GetData@CRealBuffer@@IEAA_NAEAVCRConDataGuard@@@Z 00000001400dfee0 f   RealBuffer.obj
 0001:000df040       ?isDataValid@CRealBuffer@@IEAA_NXZ 00000001400e0040 f   RealBuffer.obj
 0001:000df120       ?InitBuffers@CRealBuffer@@AEAA_NKHHPEAVCRConDataGuard@@@Z 00000001400e0120 f   RealBuffer.obj
 0001:000df800       ?PreFillBuffers@CRealBuffer@@QEAAXXZ 00000001400e0800 f   RealBuffer.obj
 0001:000df8e0       ?BufferHeight@CRealBuffer@@QEAAHI@Z 00000001400e08e0 f   RealBuffer.obj
 0001:000df930       ?GetConWindowSize@CRealBuffer@@QEAA_NAEBU_CONSOLE_SCREEN_BUFFER_INFO@@PEAH1PEAK@Z 00000001400e0930 f   RealBuffer.obj
 0001:000dfa60       ?SetBufferHeightMode@CRealBuffer@@QEAAX_N0@Z 00000001400e0a60 f   RealBuffer.obj
 0001:000dfad0       ?ChangeBufferHeightMode@CRealBuffer@@QEAAX_N@Z 00000001400e0ad0 f   RealBuffer.obj
 0001:000dfc10       ?LoadDataFromSrv@CRealBuffer@@AEAA_NAEAVCRConDataGuard@@KPEAU_CHAR_INFO@@@Z 00000001400e0c10 f   RealBuffer.obj
 0001:000e0020       ?IsTrueColorerBufferChanged@CRealBuffer@@AEAA_NXZ 00000001400e1020 f   RealBuffer.obj
 0001:000e02d0       ?StorePausedState@CRealBuffer@@QEAAXW4CEPauseCmd@@@Z 00000001400e12d0 f   RealBuffer.obj
 0001:000e0340       ?ApplyConsoleInfo@CRealBuffer@@QEAA_NXZ 00000001400e1340 f   RealBuffer.obj
 0001:000e0510       ?ApplyConsoleInfo@CRealBuffer@@AEAAXPEBUCESERVER_REQ@@AEA_N11@Z 00000001400e1510 f   RealBuffer.obj
 0001:000e0cc0       ?BufferHeightTurnedOn@CRealBuffer@@QEAA_NPEAU_CONSOLE_SCREEN_BUFFER_INFO@@@Z 00000001400e1cc0 f   RealBuffer.obj
 0001:000e0d20       ?ResetLastMousePos@CRealBuffer@@AEAA_NXZ 00000001400e1d20 f   RealBuffer.obj
 0001:000e0d60       ?ProcessFarHyperlink@CRealBuffer@@QEAA_N_N@Z 00000001400e1d60 f   RealBuffer.obj
 0001:000e0f40       ?CanProcessHyperlink@CRealBuffer@@AEAA_NAEBU_COORD@@@Z 00000001400e1f40 f   RealBuffer.obj
 0001:000e1050       ?ProcessFarHyperlink@CRealBuffer@@QEAA_NIU_COORD@@_N@Z 00000001400e2050 f   RealBuffer.obj
 0001:000e20c0       ?PatchMouseCoords@CRealBuffer@@AEAA_NAEAH0AEAU_COORD@@@Z 00000001400e30c0 f   RealBuffer.obj
 0001:000e2400       ?OnTimerCheckSelection@CRealBuffer@@QEAAXXZ 00000001400e3400 f   RealBuffer.obj
 0001:000e2540       ?OnMouse@CRealBuffer@@QEAA_NI_KHHU_COORD@@@Z 00000001400e3540 f   RealBuffer.obj
 0001:000e3620       ?OnMouseSelection@CRealBuffer@@AEAA_NI_KHH@Z 00000001400e4620 f   RealBuffer.obj
 0001:000e3b20       ?DoCopyPaste@CRealBuffer@@QEAAX_N0@Z 00000001400e4b20 f   RealBuffer.obj
 0001:000e3bd0       ?MarkFindText@CRealBuffer@@QEAAXHPEB_W_N1@Z 00000001400e4bd0 f   RealBuffer.obj
 0001:000e4380       ?StartSelection@CRealBuffer@@QEAAX_NFF0IPEAU_COORD@@K@Z 00000001400e5380 f   RealBuffer.obj
 0001:000e4670       ?ChangeSelectionByKey@CRealBuffer@@QEAAXI_N0@Z 00000001400e5670 f   RealBuffer.obj
 0001:000e4b80       ?CorrectSelectionAnchor@CRealBuffer@@QEAAIXZ 00000001400e5b80 f   RealBuffer.obj
 0001:000e4c20       ?ExpandSelection@CRealBuffer@@QEAAXFF_N@Z 00000001400e5c20 f   RealBuffer.obj
 0001:000e51b0       ?DoSelectionStop@CRealBuffer@@QEAAXXZ 00000001400e61b0 f   RealBuffer.obj
 0001:000e5250       ?DoSelectionCopy@CRealBuffer@@QEAA_NW4CECopyMode@@EPEB_WPEAPEAX@Z 00000001400e6250 f   RealBuffer.obj
 0001:000e54f0       ?DoSelectionCopyInt@CRealBuffer@@AEAA_NW4CECopyMode@@_NHHHHEPEB_WPEAPEAX@Z 00000001400e64f0 f   RealBuffer.obj
 0001:000e65e0       ?GetSelectionCellsCount@CRealBuffer@@QEAAHXZ 00000001400e75e0 f   RealBuffer.obj
 0001:000e66c0       ?UpdateSelection@CRealBuffer@@QEAAXXZ 00000001400e76c0 f   RealBuffer.obj
 0001:000e6700       ?isConSelectMode@CRealBuffer@@QEAA_NXZ 00000001400e7700 f   RealBuffer.obj
 0001:000e6750       ?DoSelectionFinalize@CRealBuffer@@QEAA_N_NW4CECopyMode@@_KPEAPEAX@Z 00000001400e7750 f   RealBuffer.obj
 0001:000e6810       ?ProcessSelectionHotKey@CRealBuffer@@QEAAPEBUConEmuHotKey@@AEBUConEmuChord@@_NPEB_W@Z 00000001400e7810 f   RealBuffer.obj
 0001:000e6b40       ?OnKeyboard@CRealBuffer@@QEAA_NPEAUHWND__@@I_K_JPEB_W@Z 00000001400e7b40 f   RealBuffer.obj
 0001:000e6e20       ?OnKeysSending@CRealBuffer@@QEAAXXZ 00000001400e7e20 f   RealBuffer.obj
 0001:000e6ee0       ?GetDefaultNtvdmHeight@CRealBuffer@@QEAA?AU_COORD@@XZ 00000001400e7ee0 f   RealBuffer.obj
 0001:000e6f80       ?GetConsoleLine@CRealBuffer@@QEAA_NHAEAVCRConDataGuard@@AEAUConsoleLinePtr@@PEAVMSectionLock@@@Z 00000001400e7f80 f   RealBuffer.obj
 0001:000e7140       ?PrepareColorTable@CRealBuffer@@AEAAXPEBUAppSettings@@PEAPEAUtag_CharAttr@@1@Z 00000001400e8140 f   RealBuffer.obj
 0001:000e72a0       ?GetConsoleData@CRealBuffer@@QEAAXPEA_WPEAUtag_CharAttr@@HHAEAUConEmuTextRange@@@Z 00000001400e82a0 f   RealBuffer.obj
 0001:000e8150       ?GetStatusLineCount@CRealBuffer@@QEAAHH@Z 00000001400e9150 f   RealBuffer.obj
 0001:000e8290       ?PrepareTransparent@CRealBuffer@@AEAAXPEA_WPEAUtag_CharAttr@@HH@Z 00000001400e9290 f   RealBuffer.obj
 0001:000e85e0       ?FindPanels@CRealBuffer@@QEAAXXZ 00000001400e95e0 f   RealBuffer.obj
 0001:000e8a10       ?isSelectionAllowed@CRealBuffer@@QEAA_NXZ 00000001400e9a10 f   RealBuffer.obj
 0001:000e8d50       ?isMouseClickExtension@CRealBuffer@@QEAA_NXZ 00000001400e9d50 f   RealBuffer.obj
 0001:000e8db0       ?isMouseInsideSelection@CRealBuffer@@QEAA_NHH@Z 00000001400e9db0 f   RealBuffer.obj
 0001:000e8f10       ?ConsoleCursorInfo@CRealBuffer@@QEAAXPEAU_CONSOLE_CURSOR_INFO@@@Z 00000001400e9f10 f   RealBuffer.obj
 0001:000e90a0       ?QueryCellInfo@CRealBuffer@@QEAAXPEA_WH@Z 00000001400ea0a0 f   RealBuffer.obj
 0001:000e93a0       ?ConsoleCursorPos@CRealBuffer@@QEAAXPEAU_COORD@@@Z 00000001400ea3a0 f   RealBuffer.obj
 0001:000e93f0       ?ResetBuffer@CRealBuffer@@QEAAXXZ 00000001400ea3f0 f   RealBuffer.obj
 0001:000e9530       ?ExpandTextRange@CRealBuffer@@AEAA?AW4ExpandTextRangeType@@AEAU_COORD@@0W42@PEAUCEStr@@@Z 00000001400ea530 f   RealBuffer.obj
 0001:000e99d0       ?StoreLastTextRange@CRealBuffer@@AEAA_NW4ExpandTextRangeType@@@Z 00000001400ea9d0 f   RealBuffer.obj
 0001:000e9a40       ?ResetTopLeft@CRealBuffer@@QEAAXXZ 00000001400eaa40 f   RealBuffer.obj
 0001:000e9a80       ?DoScrollBuffer@CRealBuffer@@QEAA_JHFI_N@Z 00000001400eaa80 f   RealBuffer.obj
 0001:000e9c60       ?SetTopLeft@CRealBuffer@@IEAA_NHH_N0@Z 00000001400eac60 f   RealBuffer.obj
 0001:000e9e00       ?InitName@?$MFileMapping@UCESERVER_CONSAVE_MAP@@@@QEAAPEB_WPEB_WKK@Z 00000001400eae00 f i RealBuffer.obj
 0001:000e9e90       ?Transact@?$MPipe@UCESERVER_REQ_HDR@@U1@@@QEAAHPEBUCESERVER_REQ_HDR@@KPEAPEBU2@@Z 00000001400eae90 f i RealBuffer.obj
 0001:000ea340       ?Attach@?$CRefGuard@VCVConGroup@@@@UEAA_NPEAVCVConGroup@@@Z 00000001400eb340 f i VConGroup.obj
 0001:000ea340       ?Attach@?$CRefGuard@VCRConData@@@@UEAA_NPEAVCRConData@@@Z 00000001400eb340 f i RealBuffer.obj
 0001:000ea340       ?Attach@?$CRefGuard@VCVirtualConsole@@@@UEAA_NPEAVCVirtualConsole@@@Z 00000001400eb340 f i VConRelease.obj
 0001:000ea3b0       ?Release@?$CRefGuard@VCVirtualConsole@@@@UEAAXXZ 00000001400eb3b0 f i VConGroup.obj
 0001:000ea3b0       ?Release@?$CRefGuard@VCVConGroup@@@@UEAAXXZ 00000001400eb3b0 f i VConGroup.obj
 0001:000ea3b0       ?Release@?$CRefGuard@VCRConData@@@@UEAAXXZ 00000001400eb3b0 f i RealBuffer.obj
 0001:000ea410       ?InternalOpenCreate@?$MFileMapping@UCESERVER_CONSAVE_MAP@@@@IEAAPEAUCESERVER_CONSAVE_MAP@@HHH@Z 00000001400eb410 f i RealBuffer.obj
 0001:000ea5a0       ?InternalOpenCreate@?$MFileMapping@UCESERVER_CONSAVE_MAPHDR@@@@IEAAPEAUCESERVER_CONSAVE_MAPHDR@@HHH@Z 00000001400eb5a0 f i RealBuffer.obj
 0001:000ea710       ?Open@?$MPipe@UCESERVER_REQ_HDR@@U1@@@QEAAHXZ 00000001400eb710 f i RealBuffer.obj
 0001:000ea7f0       ?Close@?$MPipe@UCESERVER_REQ_HDR@@U1@@@QEAAXXZ 00000001400eb7f0 f i RealBuffer.obj
 0001:000ea890       ?AllocateBuffer@?$MPipe@UCESERVER_REQ_HDR@@U1@@@IEAAPEAUCESERVER_REQ_HDR@@KPEAU2@K@Z 00000001400eb890 f i RealBuffer.obj
 0001:000ea970       ??$SafeDelete@VCMatch@@@@YAXAEAPEAVCMatch@@@Z 00000001400eb970 f i RealBuffer.obj
 0001:000ea9f0       ??0CRealConsole@@QEAA@PEAVCVirtualConsole@@PEAVCConEmuMain@@@Z 00000001400eb9f0 f   RealConsole.obj
 0001:000eac80       ?Construct@CRealConsole@@QEAA_NPEAVCVirtualConsole@@PEAURConStartArgsEx@@@Z 00000001400ebc80 f   RealConsole.obj
 0001:000eb4c0       ??1CRealConsole@@QEAA@XZ   00000001400ec4c0 f   RealConsole.obj
 0001:000ebdc0       ?PreCreate@CRealConsole@@AEAA_NPEAURConStartArgsEx@@@Z 00000001400ecdc0 f   RealConsole.obj
 0001:000ec4c0       ?RepositionDialogWithTab@CRealConsole@@IEAAXPEAUHWND__@@@Z 00000001400ed4c0 f   RealConsole.obj
 0001:000ec6d0       ?priorityProc@CRealConsole@@KA_JPEAUHWND__@@I_K_J@Z 00000001400ed6d0 f   RealConsole.obj
 0001:000ecb30       ?ChangeAffinityPriority@CRealConsole@@QEAA_NPEB_W0@Z 00000001400edb30 f   RealConsole.obj
 0001:000ecdf0       ?LoadAlternativeConsole@CRealConsole@@AEAA_NW4LoadAltMode@@@Z 00000001400eddf0 f   RealConsole.obj
 0001:000ece90       ?SetActiveBuffer@CRealConsole@@AEAA_NPEAVCRealBuffer@@_N@Z 00000001400ede90 f   RealConsole.obj
 0001:000ecf70       ?DoLockUnlock@CRealConsole@@QEAAX_N@Z 00000001400edf70 f   RealConsole.obj
 0001:000ed1e0       ?SyncGui2Window@CRealConsole@@QEAAXUtagRECT@@@Z 00000001400ee1e0 f   RealConsole.obj
 0001:000ed360       ?SyncConsole2Window@CRealConsole@@QEAAX_NPEAUtagRECT@@@Z 00000001400ee360 f   RealConsole.obj
 0001:000ed5a0       ?AttachConemuC@CRealConsole@@QEAA_NPEAUHWND__@@KPEBUCESERVER_REQ_STARTSTOP@@AEAUCESERVER_REQ_SRVSTARTSTOPRET@@@Z 00000001400ee5a0 f   RealConsole.obj
 0001:000eda10       ?QueryStartStopRet@CRealConsole@@QEAAXAEAUCESERVER_REQ_SRVSTARTSTOPRET@@@Z 00000001400eea10 f   RealConsole.obj
 0001:000edc20       ?SetInitEnvCommands@CRealConsole@@QEAAXAEAUCESERVER_REQ_SRVSTARTSTOPRET@@@Z 00000001400eec20 f   RealConsole.obj
 0001:000edfc0       ?PasteExplorerPath@CRealConsole@@QEAAX_N0@Z 00000001400eefc0 f   RealConsole.obj
 0001:000ee0b0       ?PostPromptCmd@CRealConsole@@QEAA_N_NPEB_W@Z 00000001400ef0b0 f   RealConsole.obj
 0001:000ee630       ?PostString@CRealConsole@@IEAA_NPEA_W_K@Z 00000001400ef630 f   RealConsole.obj
 0001:000eec90       ?PostKeyPress@CRealConsole@@QEAA_NGK_WH@Z 00000001400efc90 f   RealConsole.obj
 0001:000eedd0       ?PostKeyUp@CRealConsole@@QEAA_NGK_WH@Z 00000001400efdd0 f   RealConsole.obj
 0001:000eeeb0       ?IsPromptActionAllowed@CRealConsole@@AEAA_N_NPEBUAppSettings@@@Z 00000001400efeb0 f   RealConsole.obj
 0001:000eef90       ?EvalPromptCtrlBSCount@CRealConsole@@AEAAHPEBUAppSettings@@@Z 00000001400eff90 f   RealConsole.obj
 0001:000ef340       ?EvalPromptLeftRightCount@CRealConsole@@AEAAHPEBUAppSettings@@U_COORD@@AEAG@Z 00000001400f0340 f   RealConsole.obj
 0001:000efa70       ?ChangePromptPosition@CRealConsole@@AEAA_NPEBUAppSettings@@U_COORD@@@Z 00000001400f0a70 f   RealConsole.obj
 0001:000efc90       ?DeleteWordKeyPress@CRealConsole@@QEAA_N_N@Z 00000001400f0c90 f   RealConsole.obj
 0001:000efe80       ?PostLeftClickSync@CRealConsole@@QEAA_NU_COORD@@@Z 00000001400f0e80 f   RealConsole.obj
 0001:000f0050       ?PostCtrlBreakEvent@CRealConsole@@QEAA_NKK@Z 00000001400f1050 f   RealConsole.obj
 0001:000f0170       ?PostConsoleEvent@CRealConsole@@QEAA_NPEAU_INPUT_RECORD@@_N@Z 00000001400f1170 f   RealConsole.obj
 0001:000f0420       ?isHighlighted@CRealConsole@@QEAA_NXZ 00000001400f1420 f   RealConsole.obj
 0001:000f0470       ?OnConsoleDataChanged@CRealConsole@@QEAAXXZ 00000001400f1470 f   RealConsole.obj
 0001:000f0580       ?OnTimerCheck@CRealConsole@@QEAAXXZ 00000001400f1580 f   RealConsole.obj
 0001:000f06b0       ?MonitorThread@CRealConsole@@KAKPEAX@Z 00000001400f16b0 f   RealConsole.obj
 0001:000f0950       ?MonitorThreadWorker@CRealConsole@@IEAAK_NAEA_N@Z 00000001400f1950 f   RealConsole.obj
 0001:000f1f90       ?RefreshAfterRestore@CRealConsole@@SA_NPEAVCVirtualConsole@@_J@Z 00000001400f2f90 f   RealConsole.obj
 0001:000f2170       ?StartMonitorThread@CRealConsole@@IEAA_NXZ 00000001400f3170 f   RealConsole.obj
 0001:000f2280       ?PrepareConsoleRegistryKey@CRealConsole@@AEAAPEAUHKEY__@@PEB_W@Z 00000001400f3280 f   RealConsole.obj
 0001:000f29c0       ?PrepareDefaultColors@CRealConsole@@AEAAXAEAE000_NPEAUHKEY__@@@Z 00000001400f39c0 f   RealConsole.obj
 0001:000f2de0       ?OnStartProcessAllowed@CRealConsole@@QEAAXXZ 00000001400f3de0 f   RealConsole.obj
 0001:000f2ec0       ?ConHostSearchPrepare@CRealConsole@@IEAAXXZ 00000001400f3ec0 f   RealConsole.obj
 0001:000f3010       ?ConHostSearch@CRealConsole@@IEAAK_N@Z 00000001400f4010 f   RealConsole.obj
 0001:000f3480       ?GetStartupDir@CRealConsole@@QEAAPEB_WXZ 00000001400f4480 f   RealConsole.obj
 0001:000f34d0       ?StartDebugger@CRealConsole@@QEAA_NW4StartDebugType@@@Z 00000001400f44d0 f   RealConsole.obj
 0001:000f3ba0       ?ResetVarsOnStart@CRealConsole@@AEAAXXZ 00000001400f4ba0 f   RealConsole.obj
 0001:000f3e10       ?SetRootProcessName@CRealConsole@@IEAAXPEB_W@Z 00000001400f4e10 f   RealConsole.obj
 0001:000f4230       ?UpdateRootInfo@CRealConsole@@IEAAXAEBUCESERVER_ROOT_INFO@@@Z 00000001400f5230 f   RealConsole.obj
 0001:000f43f0       ?StartProcess@CRealConsole@@IEAA_NXZ 00000001400f53f0 f   RealConsole.obj
 0001:000f5750       ?StartProcessInt@CRealConsole@@AEAA_NAEAPEB_WAEAPEA_W0_NPEAUHWND__@@AEAK44EEEEAEAU_STARTUPINFOW@@AEAU_PROCESS_INFORMATION@@4@Z 00000001400f6750 f   RealConsole.obj
 0001:000f7050       ?CreateOrRunAs@CRealConsole@@KA_NPEAV1@AEAURConStartArgsEx@@PEA_WAEAPEB_WAEAU_STARTUPINFOW@@AEAU_PROCESS_INFORMATION@@AEAPEAU_SHELLEXECUTEINFOW@@AEAK_N@Z 00000001400f8050 f   RealConsole.obj
 0001:000f7970       ?InitNames@CRealConsole@@IEAAXXZ 00000001400f8970 f   RealConsole.obj
 0001:000f7aa0       ?OnScroll@CRealConsole@@QEAAXI_KHH_N@Z 00000001400f8aa0 f   RealConsole.obj
 0001:000f7b40       ?OnMouseSelection@CRealConsole@@QEAA_NI_KHH@Z 00000001400f8b40 f   RealConsole.obj
 0001:000f7ba0       ?OnMouse@CRealConsole@@QEAA_NI_KHH_N@Z 00000001400f8ba0 f   RealConsole.obj
 0001:000f7f70       ?PostMouseEvent@CRealConsole@@AEAAXI_KU_COORD@@_N@Z 00000001400f8f70 f   RealConsole.obj
 0001:000f8620       ?OnSelectionChanged@CRealConsole@@QEAAXXZ 00000001400f9620 f   RealConsole.obj
 0001:000f88d0       ?DoSelectionCopy@CRealConsole@@QEAA_NW4CECopyMode@@EPEB_W@Z 00000001400f98d0 f   RealConsole.obj
 0001:000f8b60       ?DoFindText@CRealConsole@@QEAAXH@Z 00000001400f9b60 f   RealConsole.obj
 0001:000f8c10       ?DoEndFindText@CRealConsole@@QEAAXXZ 00000001400f9c10 f   RealConsole.obj
 0001:000f8d20       ?OpenConsoleEventPipe@CRealConsole@@QEAA_NXZ 00000001400f9d20 f   RealConsole.obj
 0001:000f8f70       ?PostConsoleEventPipe@CRealConsole@@QEAA_NPEAUMSG64@@_K@Z 00000001400f9f70 f   RealConsole.obj
 0001:000f9100       ?PostConsoleMessage@CRealConsole@@QEAA_NPEAUHWND__@@I_K_J@Z 00000001400fa100 f   RealConsole.obj
 0001:000f92e0       ?StopSignal@CRealConsole@@QEAAXXZ 00000001400fa2e0 f   RealConsole.obj
 0001:000f9490       ?StartStopTermMode@CRealConsole@@QEAA_NW4TermModeCommand@@W4ChangeTermAction@@@Z 00000001400fa490 f   RealConsole.obj
 0001:000f95e0       ?StartStopXTerm@CRealConsole@@QEAAXK_N@Z 00000001400fa5e0 f   RealConsole.obj
 0001:000f9750       ?StartStopXMouse@CRealConsole@@QEAAXKW4TermMouseMode@@@Z 00000001400fa750 f   RealConsole.obj
 0001:000f98a0       ?StartStopBracketedPaste@CRealConsole@@QEAAXK_N@Z 00000001400fa8a0 f   RealConsole.obj
 0001:000f9a00       ?StartStopAppCursorKeys@CRealConsole@@QEAAXK_N@Z 00000001400faa00 f   RealConsole.obj
 0001:000f9bc0       ?PortableStarted@CRealConsole@@QEAAXPEAUCESERVER_REQ_PORTABLESTARTED@@@Z 00000001400fabc0 f   RealConsole.obj
 0001:000f9d70       ?StopThread@CRealConsole@@QEAAX_N@Z 00000001400fad70 f   RealConsole.obj
 0001:000fa060       ?isGuiVisible@CRealConsole@@QEAA_NXZ 00000001400fb060 f   RealConsole.obj
 0001:000fa0a0       ?isGuiOverCon@CRealConsole@@QEAA_NXZ 00000001400fb0a0 f   RealConsole.obj
 0001:000fa0f0       ?isBufferHeight@CRealConsole@@QEAA_NXZ 00000001400fb0f0 f   RealConsole.obj
 0001:000fa160       ?isConSelectMode@CRealConsole@@QEAA_NXZ 00000001400fb160 f   RealConsole.obj
 0001:000fa1c0       ?GetTitle@CRealConsole@@QEAAPEB_W_N@Z 00000001400fb1c0 f   RealConsole.obj
 0001:000fa3b0       ?GetPanelTitle@CRealConsole@@QEAAPEB_WXZ 00000001400fb3b0 f   RealConsole.obj
 0001:000fa3f0       ?GetTabTitle@CRealConsole@@QEAAPEB_WAEAVCTab@@@Z 00000001400fb3f0 f   RealConsole.obj
 0001:000fa470       ?DoScroll@CRealConsole@@QEAA_JHI@Z 00000001400fb470 f   RealConsole.obj
 0001:000fa7b0       ?OnKeyboard@CRealConsole@@QEAAXPEAUHWND__@@I_K_JPEB_WPEBUtagMSG@@@Z 00000001400fb7b0 f   RealConsole.obj
 0001:000fa930       ?OnKeyboardBackCall@CRealConsole@@CA_NPEAVCVirtualConsole@@_J@Z 00000001400fb930 f   RealConsole.obj
 0001:000fa970       ?OnKeyboardInt@CRealConsole@@AEAAXPEAUHWND__@@I_K_JPEB_WPEBUtagMSG@@@Z 00000001400fb970 f   RealConsole.obj
 0001:000fad10       ?GetTermType@CRealConsole@@QEAA?AW4TermEmulationType@@XZ 00000001400fbd10 f   RealConsole.obj
 0001:000fad90       ?ProcessXtermSubst@CRealConsole@@QEAA_NAEBU_INPUT_RECORD@@@Z 00000001400fbd90 f   RealConsole.obj
 0001:000fb040       ?ProcessKeyboard@CRealConsole@@QEAAXI_K_JPEB_W@Z 00000001400fc040 f   RealConsole.obj
 0001:000fb1d0       ?OnKeyboardIme@CRealConsole@@QEAAXPEAUHWND__@@I_K_J@Z 00000001400fc1d0 f   RealConsole.obj
 0001:000fb440       ?OnDosAppStartStop@CRealConsole@@QEAAXW4StartStopType@@K@Z 00000001400fc440 f   RealConsole.obj
 0001:000fb4f0       ?OnServerStarted@CRealConsole@@QEAAPEAUHWND__@@QEAU2@KKAEAUCESERVER_REQ_SRVSTARTSTOPRET@@@Z 00000001400fc4f0 f   RealConsole.obj
 0001:000fb5d0       ?OnServerClosing@CRealConsole@@QEAAXKPEAH@Z 00000001400fc5d0 f   RealConsole.obj
 0001:000fb7b0       ?GetProcesses@CRealConsole@@QEAAHPEAPEAUConProcess@@_N@Z 00000001400fc7b0 f   RealConsole.obj
 0001:000fbba0       ?isServerAlive@CRealConsole@@QEAA_NXZ 00000001400fcba0 f   RealConsole.obj
 0001:000fbbe0       ?isServerClosing@CRealConsole@@QEAA_N_N@Z 00000001400fcbe0 f   RealConsole.obj
 0001:000fbc10       ?SetMainSrvPID@CRealConsole@@IEAAXKPEAX@Z 00000001400fcc10 f   RealConsole.obj
 0001:000fbdb0       ?SetAltSrvPID@CRealConsole@@IEAAXK@Z 00000001400fcdb0 f   RealConsole.obj
 0001:000fbe90       ?InitAltServer@CRealConsole@@IEAA_NK@Z 00000001400fce90 f   RealConsole.obj
 0001:000fc120       ?ReopenServerPipes@CRealConsole@@IEAA_NXZ 00000001400fd120 f   RealConsole.obj
 0001:000fc4f0       ?isServerCreated@CRealConsole@@QEAA_N_N@Z 00000001400fd4f0 f   RealConsole.obj
 0001:000fc510       ?GetFarPID@CRealConsole@@QEAAK_N@Z 00000001400fd510 f   RealConsole.obj
 0001:000fc550       ?SetFarPID@CRealConsole@@QEAAXK@Z 00000001400fd550 f   RealConsole.obj
 0001:000fcbc0       ?SetFarPluginPID@CRealConsole@@QEAAXK@Z 00000001400fdbc0 f   RealConsole.obj
 0001:000fd230       ?GetConsoleInfo@CRealConsole@@QEAAPEB_WPEB_WAEAUCEStr@@@Z 00000001400fe230 f   RealConsole.obj
 0001:000fd6b0       ?GetActiveProcessInfo@CRealConsole@@QEAAPEB_WAEAUCEStr@@@Z 00000001400fe6b0 f   RealConsole.obj
 0001:000fda30       ?GetProcessInformation@CRealConsole@@QEAA_NKPEAUConProcess@@@Z 00000001400fea30 f   RealConsole.obj
 0001:000fdd70       ?GetLoadedPID@CRealConsole@@QEAAKXZ 00000001400fed70 f   RealConsole.obj
 0001:000fdf50       ?GetRunningPID@CRealConsole@@QEAAKXZ 00000001400fef50 f   RealConsole.obj
 0001:000fe0d0       ?GetActiveProcessName@CRealConsole@@QEAAPEB_WXZ 00000001400ff0d0 f   RealConsole.obj
 0001:000fe0f0       ?GetDefaultAppSettingsId@CRealConsole@@AEAAHXZ 00000001400ff0f0 f   RealConsole.obj
 0001:000fe4f0       ?GetActiveAppSettingsId@CRealConsole@@QEAAH_N@Z 00000001400ff4f0 f   RealConsole.obj
 0001:000fe5e0       ?SetActivePID@CRealConsole@@AEAAXPEBUConProcess@@@Z 00000001400ff5e0 f   RealConsole.obj
 0001:000fe720       ?SetAppDistinctPID@CRealConsole@@AEAAXPEBUConProcess@@@Z 00000001400ff720 f   RealConsole.obj
 0001:000fe8a0       ?ProcessUpdateFlags@CRealConsole@@AEAA_N_N@Z 00000001400ff8a0 f   RealConsole.obj
 0001:000ff4f0       ?ProcessUpdate@CRealConsole@@AEAA_NPEBKI@Z 00000001401004f0 f   RealConsole.obj
 0001:00100040       ?ProcessCheckName@CRealConsole@@AEAAXAEAUConProcess@@PEA_W@Z 0000000140101040 f   RealConsole.obj
 0001:00100290       ?ShowConsoleOrGuiClient@CRealConsole@@QEAAXH@Z 0000000140101290 f   RealConsole.obj
 0001:001002f0       ?ShowGuiClientInt@CRealConsole@@QEAAX_N@Z 00000001401012f0 f   RealConsole.obj
 0001:001003d0       ?ChildSystemMenu@CRealConsole@@QEAAXXZ 00000001401013d0 f   RealConsole.obj
 0001:001004b0       ?ShowGuiClientExt@CRealConsole@@QEAAXH_N@Z 00000001401014b0 f   RealConsole.obj
 0001:001006e0       ?ShowConsole@CRealConsole@@QEAAXH@Z 00000001401016e0 f   RealConsole.obj
 0001:00100830       ?SetHwnd@CRealConsole@@AEAAXPEAUHWND__@@_N@Z 0000000140101830 f   RealConsole.obj
 0001:001009f0       ?CheckVConRConPointer@CRealConsole@@AEAAX_N@Z 00000001401019f0 f   RealConsole.obj
 0001:00100aa0       ?OnFocus@CRealConsole@@QEAAX_N@Z 0000000140101aa0 f   RealConsole.obj
 0001:00100b30       ?CreateLogFiles@CRealConsole@@AEAAXXZ 0000000140101b30 f   RealConsole.obj
 0001:00100d90       ?isLogging@CRealConsole@@QEAAII@Z 0000000140101d90 f   RealConsole.obj
 0001:00100e00       ?LogString@CRealConsole@@QEAAXPEB_W@Z 0000000140101e00 f   RealConsole.obj
 0001:00100eb0       ?LogString@CRealConsole@@QEAAXPEBD@Z 0000000140101eb0 f   RealConsole.obj
 0001:00100f60       ?LogInput@CRealConsole@@QEAAXI_K_JPEB_W@Z 0000000140101f60 f   RealConsole.obj
 0001:00101260       ?LogInput@CRealConsole@@AEAAXPEAU_INPUT_RECORD@@@Z 0000000140102260 f   RealConsole.obj
 0001:001016d0       ?RecreateProcess@CRealConsole@@QEAA_NPEAURConStartArgsEx@@@Z 00000001401026d0 f   RealConsole.obj
 0001:00101e40       ?RecreateProcessStart@CRealConsole@@AEAA_NXZ 0000000140102e40 f   RealConsole.obj
 0001:00101fc0       ?IsFarHyperlinkAllowed@CRealConsole@@QEAA_N_N@Z 0000000140102fc0 f   RealConsole.obj
 0001:00102090       ?SetFullScreen@CRealConsole@@QEAA_NXZ 0000000140103090 f   RealConsole.obj
 0001:00102190       ?ShowOtherWindow@CRealConsole@@QEAA_NPEAUHWND__@@H_N@Z 0000000140103190 f   RealConsole.obj
 0001:00102330       ?SetOtherWindowPos@CRealConsole@@QEAA_NPEAUHWND__@@0HHHHI@Z 0000000140103330 f   RealConsole.obj
 0001:00102660       ?SetOtherWindowParent@CRealConsole@@QEAAPEAUHWND__@@PEAU2@0@Z 0000000140103660 f   RealConsole.obj
 0001:001027e0       ?SetOtherWindowRgn@CRealConsole@@QEAA_NPEAUHWND__@@HPEAUtagRECT@@_N@Z 00000001401037e0 f   RealConsole.obj
 0001:00102980       ?OnActivate@CRealConsole@@QEAAXHH@Z 0000000140103980 f   RealConsole.obj
 0001:00102d00       ?OnDeactivate@CRealConsole@@QEAAXH@Z 0000000140103d00 f   RealConsole.obj
 0001:00102e40       ?OnGuiFocused@CRealConsole@@QEAAX_N0@Z 0000000140103e40 f   RealConsole.obj
 0001:00102fa0       ?UpdateServerActive@CRealConsole@@QEAAX_N@Z 0000000140103fa0 f   RealConsole.obj
 0001:001031c0       ?UpdateScrollInfo@CRealConsole@@QEAAXXZ 00000001401041c0 f   RealConsole.obj
 0001:00103420       ?RefreshFarPID@_TabsInfo@CRealConsole@@QEAA_NK@Z 0000000140104420 f   RealConsole.obj
 0001:001034d0       ?StoreActiveTab@_TabsInfo@CRealConsole@@QEAAXHAEAVCTab@@@Z 00000001401044d0 f   RealConsole.obj
 0001:001035b0       ?SetTabs@CRealConsole@@QEAAXPEAUConEmuTab@@HK@Z 00000001401045b0 f   RealConsole.obj
 0001:001041a0       ?renameProc@CRealConsole@@CA_JPEAUHWND__@@I_K_J@Z 00000001401051a0 f   RealConsole.obj
 0001:00104530       ?DoRenameTab@CRealConsole@@QEAAXXZ 0000000140105530 f   RealConsole.obj
 0001:001045e0       ?DuplicateRoot@CRealConsole@@QEAA_N_N0PEB_W11@Z 00000001401055e0 f   RealConsole.obj
 0001:00104f50       ?RenameTab@CRealConsole@@QEAAXPEB_W@Z 0000000140105f50 f   RealConsole.obj
 0001:001050a0       ?RenameWindow@CRealConsole@@QEAAXPEB_W@Z 00000001401060a0 f   RealConsole.obj
 0001:001051e0       ?GetActiveTab@CRealConsole@@QEAAHXZ 00000001401061e0 f   RealConsole.obj
 0001:001051f0       ?GetTab@CRealConsole@@QEAA_NHAEAVCTab@@@Z 00000001401061f0 f   RealConsole.obj
 0001:001052f0       ?GetModifiedEditors@CRealConsole@@QEAAHXZ 00000001401062f0 f   RealConsole.obj
 0001:00105460       ?CheckPanelTitle@CRealConsole@@AEAAXXZ 0000000140106460 f   RealConsole.obj
 0001:001054f0       ?CanActivateFarWindow@CRealConsole@@QEAAKH@Z 00000001401064f0 f   RealConsole.obj
 0001:00105760       ?GetActivateFarWindowError@CRealConsole@@QEAAPEB_WPEA_W_K@Z 0000000140106760 f   RealConsole.obj
 0001:00105830       ?ActivateFarWindow@CRealConsole@@QEAA_NH@Z 0000000140106830 f   RealConsole.obj
 0001:00105c70       ?PrepareOutputFileCreate@CRealConsole@@AEAAPEAXPEA_W@Z 0000000140106c70 f   RealConsole.obj
 0001:00105d20       ?PrepareOutputFile@CRealConsole@@AEAA_N_NPEA_W@Z 0000000140106d20 f   RealConsole.obj
 0001:00106280       ?SwitchKeyboardLayout@CRealConsole@@QEAAX_K0@Z 0000000140107280 f   RealConsole.obj
 0001:00106440       ?Paste@CRealConsole@@QEAAXW4CEPasteMode@@PEB_W_NE@Z 0000000140107440 f   RealConsole.obj
 0001:00106b80       ?Write@CRealConsole@@QEAA_NPEB_WHPEAK@Z 0000000140107b80 f   RealConsole.obj
 0001:00106cd0       ?isConsoleClosing@CRealConsole@@QEAA_NXZ 0000000140107cd0 f   RealConsole.obj
 0001:00106da0       ?isConsoleReady@CRealConsole@@QEAA_NXZ 0000000140107da0 f   RealConsole.obj
 0001:00106dd0       ?isCloseTabConfirmed@CRealConsole@@QEAA_NIPEB_W_N@Z 0000000140107dd0 f   RealConsole.obj
 0001:00106fe0       ?CloseConsoleWindow@CRealConsole@@QEAAX_N@Z 0000000140107fe0 f   RealConsole.obj
 0001:00107030       ?TerminateAllButShell@CRealConsole@@QEAA_N_N@Z 0000000140108030 f   RealConsole.obj
 0001:00107500       ?TerminateActiveProcessConfirm@CRealConsole@@QEAA_NK@Z 0000000140108500 f   RealConsole.obj
 0001:00107690       ?TerminateActiveProcess@CRealConsole@@QEAA_N_NK@Z 0000000140108690 f   RealConsole.obj
 0001:00107870       ?CloseConsole@CRealConsole@@QEAAX_N00@Z 0000000140108870 f   RealConsole.obj
 0001:00107b00       ?CloseTab@CRealConsole@@QEAAXXZ 0000000140108b00 f   RealConsole.obj
 0001:00107db0       ?TextWidth@CRealConsole@@QEAAIXZ 0000000140108db0 f   RealConsole.obj
 0001:00107de0       ?TextHeight@CRealConsole@@QEAAIXZ 0000000140108de0 f   RealConsole.obj
 0001:00107e10       ?OnBufferHeight@CRealConsole@@QEAAXXZ 0000000140108e10 f   RealConsole.obj
 0001:00107e40       ?isActive@CRealConsole@@QEAA_N_N@Z 0000000140108e40 f   RealConsole.obj
 0001:00107e70       ?isVisible@CRealConsole@@QEAA_NXZ 0000000140108e70 f   RealConsole.obj
 0001:00107ea0       ?CheckFarStates@CRealConsole@@AEAAXXZ 0000000140108ea0 f   RealConsole.obj
 0001:00108170       ?CheckProgressInTitle@CRealConsole@@IEAAFXZ 0000000140109170 f   RealConsole.obj
 0001:001083b0       ?OnTitleChanged@CRealConsole@@AEAAXXZ 00000001401093b0 f   RealConsole.obj
 0001:001089d0       ?isFarPanelAllowed@CRealConsole@@QEAA_NXZ 00000001401099d0 f   RealConsole.obj
 0001:00108be0       ?isFilePanel@CRealConsole@@QEAA_N_N00@Z 0000000140109be0 f   RealConsole.obj
 0001:00108d90       ?SetPaletteName@CRealConsole@@QEAAXPEB_W@Z 0000000140109d90 f   RealConsole.obj
 0001:00108e30       ?CreateCommandLine@CRealConsole@@QEAAPEA_W_N@Z 0000000140109e30 f   RealConsole.obj
 0001:001090b0       ?logProgress@CRealConsole@@IEAAXPEB_WHH@Z 000000014010a0b0 f   RealConsole.obj
 0001:00109170       ?setPreWarningProgress@CRealConsole@@IEAAXF@Z 000000014010a170 f   RealConsole.obj
 0001:001091b0       ?setAppProgress@CRealConsole@@IEAAXFF@Z 000000014010a1b0 f   RealConsole.obj
 0001:00109210       ?SetProgress@CRealConsole@@QEAA_NFFPEB_W@Z 000000014010a210 f   RealConsole.obj
 0001:00109320       ?UpdateGuiInfoMapping@CRealConsole@@QEAAXPEBUConEmuGuiMapping@@@Z 000000014010a320 f   RealConsole.obj
 0001:00109430       ?UpdateFarSettings@CRealConsole@@QEAAXKPEAUFAR_REQ_FARSETCHANGED@@@Z 000000014010a430 f   RealConsole.obj
 0001:001097c0       ?UpdateTextColorSettings@CRealConsole@@QEAAX_N0PEBUAppSettings@@@Z 000000014010a7c0 f   RealConsole.obj
 0001:00109a90       ?FindPicViewFrom@CRealConsole@@AEAAPEAUHWND__@@PEAU2@@Z 000000014010aa90 f   RealConsole.obj
 0001:00109b50       ?FindChildGuiWindowProc@CRealConsole@@CAHPEAUHWND__@@_J@Z 000000014010ab50 f   RealConsole.obj
 0001:00109bb0       ?isPictureView@CRealConsole@@QEAAPEAUHWND__@@_N@Z 000000014010abb0 f   RealConsole.obj
 0001:00109f30       ?GetView@CRealConsole@@QEAAPEAUHWND__@@XZ 000000014010af30 f   RealConsole.obj
 0001:00109f50       ?GuiWnd@CRealConsole@@QEAAPEAUHWND__@@XZ 000000014010af50 f   RealConsole.obj
 0001:00109f70       ?GuiNotifyChildWindow@CRealConsole@@QEAAXXZ 000000014010af70 f   RealConsole.obj
 0001:0010a0c0       ?GuiWndFocusStore@CRealConsole@@QEAAXXZ 000000014010b0c0 f   RealConsole.obj
 0001:0010a2d0       ?GuiWndFocusRestore@CRealConsole@@QEAAX_N@Z 000000014010b2d0 f   RealConsole.obj
 0001:0010a500       ?SetGuiMode@CRealConsole@@QEAAXKPEAUHWND__@@KKPEB_WKHUtagRECT@@@Z 000000014010b500 f   RealConsole.obj
 0001:0010af40       ?CorrectGuiChildRect@CRealConsole@@SAXKKAEAUtagRECT@@PEB_W@Z 000000014010bf40 f   RealConsole.obj
 0001:0010b0b0       ?CoordInPanel@CRealConsole@@QEAAHU_COORD@@_N@Z 000000014010c0b0 f   RealConsole.obj
 0001:0010b1a0       ?GetMntPrefix@CRealConsole@@QEAAPEB_WXZ 000000014010c1a0 f   RealConsole.obj
 0001:0010b250       ?isUnixFS@CRealConsole@@QEAA_NXZ 000000014010c250 f   RealConsole.obj
 0001:0010b290       ?isFarBufferSupported@CRealConsole@@QEAA_NXZ 000000014010c290 f   RealConsole.obj
 0001:0010b2e0       ?isFarKeyBarShown@CRealConsole@@QEAA_NXZ 000000014010c2e0 f   RealConsole.obj
 0001:0010b360       ?isPaused@CRealConsole@@QEAA_NXZ 000000014010c360 f   RealConsole.obj
 0001:0010b380       ?Pause@CRealConsole@@QEAA?AW4CEPauseCmd@@W42@@Z 000000014010c380 f   RealConsole.obj
 0001:0010b530       ?QueryTermModes@CRealConsole@@QEAAXPEA_WH_N@Z 000000014010c530 f   RealConsole.obj
 0001:0010bbd0       ?QueryRConModes@CRealConsole@@QEAAXPEA_WH_N@Z 000000014010cbd0 f   RealConsole.obj
 0001:0010bc80       ?GetConsoleScreenBufferInfo@CRealConsole@@QEAAXPEAU_CONSOLE_SCREEN_BUFFER_INFO@@@Z 000000014010cc80 f   RealConsole.obj
 0001:0010bcd0       ?GetFileFromConsole@CRealConsole@@QEAAPEB_WPEB_WAEAUCEStr@@@Z 000000014010ccd0 f   RealConsole.obj
 0001:0010bdd0       ?ReloadFarWorkDir@CRealConsole@@IEAA_NXZ 000000014010cdd0 f   RealConsole.obj
 0001:0010bf30       ?GetConsoleCurDir@CRealConsole@@QEAAPEB_WAEAUCEStr@@_N@Z 000000014010cf30 f   RealConsole.obj
 0001:0010c0b0       ?StoreCurWorkDir@CRealConsole@@IEAAXPEAUCESERVER_REQ_STORECURDIR@@@Z 000000014010d0b0 f   RealConsole.obj
 0001:0010c370       ?isAdministrator@CRealConsole@@QEAA_NXZ 000000014010d370 f   RealConsole.obj
 0001:0010c3b0       ?OnConsoleLangChange@CRealConsole@@QEAAX_K@Z 000000014010d3b0 f   RealConsole.obj
 0001:0010c510       ?CloseColorMapping@CRealConsole@@AEAAXXZ 000000014010d510 f   RealConsole.obj
 0001:0010c5a0       ?CreateColorMapping@CRealConsole@@AEAAXXZ 000000014010d5a0 f   RealConsole.obj
 0001:0010c770       ?OpenFarMapData@CRealConsole@@AEAA_NXZ 000000014010d770 f   RealConsole.obj
 0001:0010ca60       ?OpenMapHeader@CRealConsole@@AEAA_N_N@Z 000000014010da60 f   RealConsole.obj
 0001:0010cc50       ?CloseFarMapData@CRealConsole@@AEAAXPEAVMSectionLock@@@Z 000000014010dc50 f   RealConsole.obj
 0001:0010cdd0       ?CloseMapHeader@CRealConsole@@AEAAXXZ 000000014010ddd0 f   RealConsole.obj
 0001:0010cef0       ?isAlive@CRealConsole@@QEAA_NXZ 000000014010def0 f   RealConsole.obj
 0001:0010cf70       ?GetConStatus@CRealConsole@@QEAAPEB_WXZ 000000014010df70 f   RealConsole.obj
 0001:0010cf90       ?SetConStatus@CRealConsole@@QEAAXPEB_WK@Z 000000014010df90 f   RealConsole.obj
 0001:0010d1f0       ?GetConsoleInfo@CRealConsole@@QEAAXPEAUConsoleInfoArg@@@Z 000000014010e1f0 f   RealConsole.obj
 0001:0010d290       ?PostMacroThread@CRealConsole@@CAKPEAX@Z 000000014010e290 f   RealConsole.obj
 0001:0010d450       ?PostCommand@CRealConsole@@AEAAXKKPEBX@Z 000000014010e450 f   RealConsole.obj
 0001:0010d630       ?PostDragCopy@CRealConsole@@QEAAX_N@Z 000000014010e630 f   RealConsole.obj
 0001:0010d850       ?IsFarLua@CRealConsole@@QEAA_NXZ 000000014010e850 f   RealConsole.obj
 0001:0010d8e0       ?PostMacro@CRealConsole@@QEAAXPEB_W_N@Z 000000014010e8e0 f   RealConsole.obj
 0001:0010e110       ?ProcessPostponedMacro@CRealConsole@@AEAAXXZ 000000014010f110 f   RealConsole.obj
 0001:0010e2b0       ?InitiateDetach@CRealConsole@@AEAAKXZ 000000014010f2b0 f   RealConsole.obj
 0001:0010e380       ?DetachRCon@CRealConsole@@QEAA_N_N00@Z 000000014010f380 f   RealConsole.obj
 0001:0010e810       ?Unfasten@CRealConsole@@QEAAXXZ 000000014010f810 f   RealConsole.obj
 0001:0010ecd0       ?InRecreate@CRealConsole@@QEAA_NXZ 000000014010fcd0 f   RealConsole.obj
 0001:0010ecf0       ?GetRunTime@CRealConsole@@AEAAKXZ 000000014010fcf0 f   RealConsole.obj
 0001:0010ed30       ?GuiAppAttachAllowed@CRealConsole@@QEAA_NKPEB_WK@Z 000000014010fd30 f   RealConsole.obj
 0001:0010f080       ?ShowPropertiesDialog@CRealConsole@@QEAAXXZ 0000000140110080 f   RealConsole.obj
 0001:0010f1c0       ?setGuiWndPID@CRealConsole@@AEAAXPEAUHWND__@@KHPEB_W@Z 00000001401101c0 f   RealConsole.obj
 0001:0010f330       ?CtrlWinAltSpace@CRealConsole@@QEAAXXZ 0000000140110330 f   RealConsole.obj
 0001:0010f390       ?AutoCopyTimer@CRealConsole@@QEAAXXZ 0000000140110390 f   RealConsole.obj
 0001:0010f400       ?InitName@?$MFileMapping@UAnnotationHeader@@@@QEAAPEB_WPEB_WKK@Z 0000000140110400 f i RealConsole.obj
 0001:0010f490       ?InitName@?$MFileMapping@$$CBUCEFAR_INFO_MAPPING@@@@QEAAPEB_WPEB_WKK@Z 0000000140110490 f i RealConsole.obj
 0001:0010f520       ?InitName@?$MFileMapping@UCESERVER_CONSOLE_APP_MAPPING@@@@QEAAPEB_WPEB_WKK@Z 0000000140110520 f i RealConsole.obj
 0001:0010f5b0       ??0?$MPipe@UCESERVER_REQ_HDR@@U1@@@QEAA@XZ 00000001401105b0 f i RealConsole.obj
 0001:0010f710       ?Set@?$MMap@KH$0A@@@QEAA_NAEBKAEBH@Z 0000000140110710 f i RealConsole.obj
 0001:0010f850       ?Init@?$MMap@KH$0A@@@QEAA_N_K_N@Z 0000000140110850 f i RealConsole.obj
 0001:0010f890       ??_E?$MPipe@UCESERVER_REQ_HDR@@U1@@@UEAAPEAXI@Z 0000000140110890 f i * CIL library *:* CIL module *
 0001:0010f890       ??_G?$MPipe@UCESERVER_REQ_HDR@@U1@@@UEAAPEAXI@Z 0000000140110890 f i RealConsole.obj
 0001:0010f910       ?InternalOpenCreate@?$MFileMapping@UAnnotationHeader@@@@IEAAPEAUAnnotationHeader@@HHH@Z 0000000140110910 f i RealConsole.obj
 0001:0010fab0       ?InternalOpenCreate@?$MFileMapping@$$CBUCEFAR_INFO_MAPPING@@@@IEAAPEBUCEFAR_INFO_MAPPING@@HHH@Z 0000000140110ab0 f i RealConsole.obj
 0001:0010fc20       ?InternalOpenCreate@?$MFileMapping@UCESERVER_CONSOLE_APP_MAPPING@@@@IEAAPEAUCESERVER_CONSOLE_APP_MAPPING@@HHH@Z 0000000140110c20 f i RealConsole.obj
 0001:0010fd90       ?AllocateBlock@?$MMap@KH$0A@@@IEAAPEAUMapItems@1@XZ 0000000140110d90 f i RealConsole.obj
 0001:0010feb0       ??$SafeDelete@VCTab@@@@YAXAEAPEAVCTab@@@Z 0000000140110eb0 f i RealConsole.obj
 0001:0010ff50       ??$xf_interlocked_new@UTermX@@@@YAPEAUTermX@@AEAPEAU0@$$QEAPEAU0@PEBDH@Z 0000000140110f50 f i RealConsole.obj
 0001:00110010       ??$wcscpy_c@$0IAAA@@@YAHAEAY0IAAA@_WPEB_W@Z 0000000140111010 f i RealConsole.obj
 0001:00110070       ??1CRealServer@@QEAA@XZ    0000000140111070 f   RealServer.obj
 0001:00110120       ?Init@CRealServer@@QEAAXPEAVCRealConsole@@@Z 0000000140111120 f   RealServer.obj
 0001:00110240       ?Start@CRealServer@@QEAA_NXZ 0000000140111240 f   RealServer.obj
 0001:00110350       ?cmdStartStop@CRealServer@@IEAAPEAUCESERVER_REQ@@PEAXPEAU2@I@Z 0000000140111350 f   RealServer.obj
 0001:001111d0       ?cmdTabsChanged@CRealServer@@IEAAPEAUCESERVER_REQ@@PEAXPEAU2@I@Z 00000001401121d0 f   RealServer.obj
 0001:00111450       ?cmdGuiMacro@CRealServer@@IEAAPEAUCESERVER_REQ@@PEAXPEAU2@I@Z 0000000140112450 f   RealServer.obj
 0001:00111550       ?cmdResources@CRealServer@@IEAAPEAUCESERVER_REQ@@PEAXPEAU2@I@Z 0000000140112550 f   RealServer.obj
 0001:00111750       ?cmdSetForeground@CRealServer@@IEAAPEAUCESERVER_REQ@@PEAXPEAU2@I@Z 0000000140112750 f   RealServer.obj
 0001:001117f0       ?cmdRegPanelView@CRealServer@@IEAAPEAUCESERVER_REQ@@PEAXPEAU2@I@Z 00000001401127f0 f   RealServer.obj
 0001:001118e0       ?cmdSetBackground@CRealServer@@IEAAPEAUCESERVER_REQ@@PEAXPEAU2@I@Z 00000001401128e0 f   RealServer.obj
 0001:00111980       ?cmdOnPeekReadInput@CRealServer@@IEAAPEAUCESERVER_REQ@@PEAXPEAU2@I@Z 0000000140112980 f   RealServer.obj
 0001:00111ac0       ?cmdGetAllTabs@CRealServer@@IEAAPEAUCESERVER_REQ@@PEAXPEAU2@I@Z 0000000140112ac0 f   RealServer.obj
 0001:00111b90       ?cmdGetAllPanels@CRealServer@@IEAAPEAUCESERVER_REQ@@PEAXPEAU2@I@Z 0000000140112b90 f   RealServer.obj
 0001:00111c70       ?cmdActivateTab@CRealServer@@IEAAPEAUCESERVER_REQ@@PEAXPEAU2@I@Z 0000000140112c70 f   RealServer.obj
 0001:00111e00       ?cmdStartXTerm@CRealServer@@IEAAPEAUCESERVER_REQ@@PEAXPEAU2@I@Z 0000000140112e00 f   RealServer.obj
 0001:00111ef0       ?cmdQueryPalette@CRealServer@@IEAAPEAUCESERVER_REQ@@PEAXPEAU2@I@Z 0000000140112ef0 f   RealServer.obj
 0001:00111f90       ?cmdGetTaskCmd@CRealServer@@IEAAPEAUCESERVER_REQ@@PEAXPEAU2@I@Z 0000000140112f90 f   RealServer.obj
 0001:00112390       ?cmdIsAnsiExecAllowed@CRealServer@@IEAAPEAUCESERVER_REQ@@PEAXPEAU2@I@Z 0000000140113390 f   RealServer.obj
 0001:00112740       ?ServerCommand@CRealServer@@KAHPEAXPEAUCESERVER_REQ@@AEAPEAU2@AEAK3_J@Z 0000000140113740 f   RealServer.obj
 0001:00112d90       ?ServerThreadReady@CRealServer@@KAHPEAX_J@Z 0000000140113d90 f   RealServer.obj
 0001:00112de0       ?DelayedWrite@?$PipeServer@UCESERVER_REQ@@@@QEAA_NPEAXPEBXK@Z 0000000140113de0 f i RealServer.obj
 0001:00112ed0       ?RecreateDlg@CRecreateDlg@@QEAAHPEAURConStartArgsEx@@_N@Z 0000000140113ed0 f   Recreate.obj
 0001:001130c0       ?OnInitDialog@CRecreateDlg@@IEAA_JPEAUHWND__@@I_K_J@Z 00000001401140c0 f   Recreate.obj
 0001:00114510       ?OnFillCmdList@CRecreateDlg@@IEAA_JPEAUHWND__@@I_K_J@Z 0000000140115510 f   Recreate.obj
 0001:001146e0       ?OnUserControls@CRecreateDlg@@IEAA_JPEAUHWND__@@I_K_J@Z 00000001401156e0 f   Recreate.obj
 0001:00114ae0       ?OnSysCommand@CRecreateDlg@@IEAA_JPEAUHWND__@@I_K_J@Z 0000000140115ae0 f   Recreate.obj
 0001:00114cb0       ?OnButtonClicked@CRecreateDlg@@IEAA_JPEAUHWND__@@I_K_J@Z 0000000140115cb0 f   Recreate.obj
 0001:001157d0       ?RecreateDlgProc@CRecreateDlg@@SA_JPEAUHWND__@@I_K_J@Z 00000001401167d0 f   Recreate.obj
 0001:00115aa0       ?BrowseCallbackProc@CRecreateDlg@@SAHPEAUHWND__@@I_J1@Z 0000000140116aa0 f   Recreate.obj
 0001:00115ad0       ?InitVars@CRecreateDlg@@IEAAXXZ 0000000140116ad0 f   Recreate.obj
 0001:00115e10       ?FreeVars@CRecreateDlg@@IEAAXXZ 0000000140116e10 f   Recreate.obj
 0001:00115f60       ?AddCommandList@CRecreateDlg@@IEAAXPEB_W_J@Z 0000000140116f60 f   Recreate.obj
 0001:00115ff0       ??_ESettingsBase@@UEAAPEAXI@Z 0000000140116ff0 f i * CIL library *:* CIL module *
 0001:00115ff0       ??_GSettingsBase@@UEAAPEAXI@Z 0000000140116ff0 f i Registry.obj
 0001:00116020       ?Load@SettingsBase@@QEAA_NPEB_WAEAUtagRECT@@@Z 0000000140117020 f   Registry.obj
 0001:00116150       ?Save@SettingsBase@@QEAAXPEB_WAEBUtagRECT@@@Z 0000000140117150 f   Registry.obj
 0001:001161f0       ??0SettingsRegistry@@QEAA@XZ 00000001401171f0 f   Registry.obj
 0001:00116240       ??_ESettingsRegistry@@UEAAPEAXI@Z 0000000140117240 f i * CIL library *:* CIL module *
 0001:00116240       ??_GSettingsRegistry@@UEAAPEAXI@Z 0000000140117240 f i Registry.obj
 0001:001162a0       ?OpenKey@SettingsRegistry@@UEAA_NPEB_WIH@Z 00000001401172a0 f   Registry.obj
 0001:00116310       ?CloseKey@SettingsRegistry@@UEAAXXZ 0000000140117310 f   Registry.obj
 0001:00116340       ?Load@SettingsRegistry@@UEAA_NPEB_WPEAEK@Z 0000000140117340 f   Registry.obj
 0001:001163f0       ?Load@SettingsRegistry@@UEAA_NPEB_WPEAPEA_W@Z 00000001401173f0 f   Registry.obj
 0001:00116500       ?Load@SettingsRegistry@@UEAA_NPEB_WPEA_WH@Z 0000000140117500 f   Registry.obj
 0001:001165b0       ?Delete@SettingsRegistry@@UEAAXPEB_W@Z 00000001401175b0 f   Registry.obj
 0001:001165c0       ?Save@SettingsRegistry@@UEAAXPEB_WPEBEKK@Z 00000001401175c0 f   Registry.obj
 0001:00116600       ??_ESettingsXML@@UEAAPEAXI@Z 0000000140117600 f i * CIL library *:* CIL module *
 0001:00116600       ??_GSettingsXML@@UEAAPEAXI@Z 0000000140117600 f i Registry.obj
 0001:00116660       ?CreateDomDocument@SettingsXML@@KAPEAUIXMLDOMDocument@@AEAPEA_W@Z 0000000140117660 f   Registry.obj
 0001:00116940       ?IsXmlAllowed@SettingsXML@@SA_NXZ 0000000140117940 f   Registry.obj
 0001:001169f0       ?OpenStorage@SettingsXML@@IEAA_NIAEAPEA_W@Z 00000001401179f0 f   Registry.obj
 0001:00116ea0       ?OpenKey@SettingsXML@@UEAA_NPEB_WIH@Z 0000000140117ea0 f   Registry.obj
 0001:00117370       ?TouchKey@SettingsXML@@IEAAXPEAUIXMLDOMNode@@@Z 0000000140118370 f   Registry.obj
 0001:001174b0       ?CloseStorage@SettingsXML@@IEAAXXZ 00000001401184b0 f   Registry.obj
 0001:00117660       ?CloseKey@SettingsXML@@UEAAXXZ 0000000140118660 f   Registry.obj
 0001:001176b0       ?GetAttr@SettingsXML@@IEAAPEA_WPEAUIXMLDOMNode@@PEAUIXMLDOMNamedNodeMap@@PEB_W@Z 00000001401186b0 f   Registry.obj
 0001:00117750       ?SetAttr@SettingsXML@@IEAA_NPEAUIXMLDOMNode@@PEB_W1@Z 0000000140118750 f   Registry.obj
 0001:001177e0       ?SetAttr@SettingsXML@@IEAA_NPEAUIXMLDOMNode@@PEAUIXMLDOMNamedNodeMap@@PEB_W2@Z 00000001401187e0 f   Registry.obj
 0001:001179c0       ?AppendIndent@SettingsXML@@IEAAXPEAUIXMLDOMNode@@H@Z 00000001401189c0 f   Registry.obj
 0001:00117b60       ?AppendNewLine@SettingsXML@@IEAAXPEAUIXMLDOMNode@@@Z 0000000140118b60 f   Registry.obj
 0001:00117bb0       ?AppendText@SettingsXML@@IEAAXPEAUIXMLDOMNode@@PEA_W@Z 0000000140118bb0 f   Registry.obj
 0001:00117cb0       ?FindItem@SettingsXML@@IEAAPEAUIXMLDOMNode@@PEAU2@PEB_W1_N@Z 0000000140118cb0 f   Registry.obj
 0001:001181b0       ?Load@SettingsXML@@UEAA_NPEB_WPEAPEA_W@Z 00000001401191b0 f   Registry.obj
 0001:00118620       ?Load@SettingsXML@@UEAA_NPEB_WPEA_WH@Z 0000000140119620 f   Registry.obj
 0001:001186c0       ?Load@SettingsXML@@UEAA_NPEB_WPEAEK@Z 00000001401196c0 f   Registry.obj
 0001:001189b0       ?Delete@SettingsXML@@UEAAXPEB_W@Z 00000001401199b0 f   Registry.obj
 0001:001189d0       ?SetMultiLine@SettingsXML@@IEAA_NPEAUIXMLDOMNode@@PEB_WJ@Z 00000001401199d0 f   Registry.obj
 0001:00118d30       ?ClearChildrenTail@SettingsXML@@IEAAXPEAUIXMLDOMNode@@0@Z 0000000140119d30 f   Registry.obj
 0001:00118e50       ?Save@SettingsXML@@UEAAXPEB_WPEBEKK@Z 0000000140119e50 f   Registry.obj
 0001:00119420       ??0CRunQueue@@QEAA@XZ      000000014011a420 f   RunQueue.obj
 0001:001194e0       ??1CRunQueue@@QEAA@XZ      000000014011a4e0 f   RunQueue.obj
 0001:00119560       ?StartQueue@CRunQueue@@QEAAXXZ 000000014011a560 f   RunQueue.obj
 0001:001195e0       ?Terminate@CRunQueue@@QEAAXXZ 000000014011a5e0 f   RunQueue.obj
 0001:00119650       ?RequestRConStartup@CRunQueue@@QEAAXPEAVCRealConsole@@@Z 000000014011a650 f   RunQueue.obj
 0001:001197c0       ?RunQueueThreadHelper@CRunQueue@@CAKPEAX@Z 000000014011a7c0 f   RunQueue.obj
 0001:001197d0       ?RunQueueThread@CRunQueue@@AEAAKXZ 000000014011a7d0 f   RunQueue.obj
 0001:00119890       ?ProcessRunQueue@CRunQueue@@AEAAXXZ 000000014011a890 f   RunQueue.obj
 0001:00119b70       ?LoadScreen@@YAHPEAUHDC__@@HHHHPEAPEAEPEAK_N@Z 000000014011ab70 f   ScreenDump.obj
 0001:00119f80       ?DumpImage@@YAHPEAUHDC__@@PEAUHBITMAP__@@HHHHPEB_W_N@Z 000000014011af80 f   ScreenDump.obj
 0001:0011aea0       ?EditIconHint_ResChanged@@YAXPEAUHWND__@@@Z 000000014011bea0 f   SearchCtrl.obj
 0001:0011af30       ?EditIconHint_Process@@YA_NPEAUHWND__@@I_K_JAEA_J@Z 000000014011bf30 f   SearchCtrl.obj
 0001:0011b580       ?EditIconHint_Set@@YAXPEAUHWND__@@0_NPEB_W1IG@Z 000000014011c580 f   SearchCtrl.obj
 0001:0011ba30       ?Set@?$MMap@HUCEIconDrawHandles@@$0A@@@QEAA_NAEBHAEBUCEIconDrawHandles@@@Z 000000014011ca30 f i SearchCtrl.obj
 0001:0011bb90       ?Set@?$MMap@PEAUHWND__@@UCEIconHintOthers@@$0A@@@QEAA_NAEBQEAUHWND__@@AEBUCEIconHintOthers@@@Z 000000014011cb90 f i SearchCtrl.obj
 0001:0011bd00       ?Set@?$MMap@PEAUHWND__@@UCEIconHintInfo@@$0A@@@QEAA_NAEBQEAUHWND__@@AEBUCEIconHintInfo@@@Z 000000014011cd00 f i SearchCtrl.obj
 0001:0011bfd0       ?GetNext@?$MMap@PEAUHWND__@@UCEIconHintInfo@@$0A@@@QEAA_NPEBQEAUHWND__@@PEAPEAU2@PEAUCEIconHintInfo@@@Z 000000014011cfd0 f i SearchCtrl.obj
 0001:0011c130       ?Get@?$MMap@PEAUHWND__@@UCEIconHintInfo@@$0A@@@QEAA_NAEBQEAUHWND__@@PEAUCEIconHintInfo@@_N@Z 000000014011d130 f i SearchCtrl.obj
 0001:0011c260       ?AllocateBlock@?$MMap@PEAUHWND__@@UTabPanelWinMap@@$0A@@@IEAAPEAUMapItems@1@XZ 000000014011d260 f i WinObjBase.obj
 0001:0011c260       ?AllocateBlock@?$MMap@PEAUHWND__@@UCEIconHintOthers@@$0A@@@IEAAPEAUMapItems@1@XZ 000000014011d260 f i SearchCtrl.obj
 0001:0011c380       ?AllocateBlock@?$MMap@PEAUHWND__@@UCEIconHintInfo@@$0A@@@IEAAPEAUMapItems@1@XZ 000000014011d380 f i SearchCtrl.obj
 0001:0011c4a0       ?SetNames@AppSettings@@QEAAXPEB_W@Z 000000014011d4a0 f   SetAppSettings.obj
 0001:0011c720       ?FreeApps@AppSettings@@QEAAXXZ 000000014011d720 f   SetAppSettings.obj
 0001:0011c7c0       ?FreePtr@CommandTasks@@QEAAXXZ 000000014011d7c0 f   SetCmdTask.obj
 0001:0011c8c0       ?SetName@CommandTasks@@QEAAXPEB_WH@Z 000000014011d8c0 f   SetCmdTask.obj
 0001:0011cb10       ?SetGuiArg@CommandTasks@@QEAAXPEB_W@Z 000000014011db10 f   SetCmdTask.obj
 0001:0011cc80       ?SetCommands@CommandTasks@@QEAAXPEB_W@Z 000000014011dc80 f   SetCmdTask.obj
 0001:0011cdf0       ?ParseGuiArgs@CommandTasks@@QEBAXPEAURConStartArgsEx@@@Z 000000014011ddf0 f   SetCmdTask.obj
 0001:0011d380       ?LoadCmdTask@CommandTasks@@QEAA_NPEAUSettingsBase@@H@Z 000000014011e380 f   SetCmdTask.obj
 0001:0011d820       ?SaveCmdTask@CommandTasks@@QEAA_NPEAUSettingsBase@@_N@Z 000000014011e820 f   SetCmdTask.obj
 0001:0011dad0       ?FreePtr@ColorPalette@@QEAAXXZ 000000014011ead0 f   SetColorPalette.obj
 0001:0011db60       ?ProcessButtonClick@CSetDlgButtons@@KA_NPEAUHWND__@@GE@Z 000000014011eb60 f   SetDlgButtons.obj
 0001:001200b0       ?OnButtonClicked_Cursor@CSetDlgButtons@@KAXPEAUHWND__@@GEPEAUAppSettings@@@Z 00000001401210b0 f   SetDlgButtons.obj
 0001:00120200       ?CheckButtonMacro@CSetDlgButtons@@SAPEA_WGE@Z 0000000140121200 f   SetDlgButtons.obj
 0001:00120320       ?OnButtonClicked@CSetDlgButtons@@KA_JPEAUHWND__@@_K_J@Z 0000000140121320 f   SetDlgButtons.obj
 0001:001203b0       ?OnBtn_CmdTasksFlags@CSetDlgButtons@@KAXPEAUHWND__@@GE@Z 00000001401213b0 f   SetDlgButtons.obj
 0001:00120580       ?OnBtn_CmdTasksAdd@CSetDlgButtons@@KAXPEAUHWND__@@GE@Z 0000000140121580 f   SetDlgButtons.obj
 0001:001206a0       ?OnBtn_CmdTasksDup@CSetDlgButtons@@KAXPEAUHWND__@@GE@Z 00000001401216a0 f   SetDlgButtons.obj
 0001:001207f0       ?OnBtn_CmdTasksDel@CSetDlgButtons@@KAXPEAUHWND__@@GE@Z 00000001401217f0 f   SetDlgButtons.obj
 0001:00120cb0       ?OnBtn_CmdTasksUpDown@CSetDlgButtons@@KAXPEAUHWND__@@GE@Z 0000000140121cb0 f   SetDlgButtons.obj
 0001:00120d80       ?OnBtn_CmdGroupKey@CSetDlgButtons@@KAXPEAUHWND__@@GE@Z 0000000140121d80 f   SetDlgButtons.obj
 0001:00120f10       ?OnBtn_CmdGroupApp@CSetDlgButtons@@KAXPEAUHWND__@@GE@Z 0000000140121f10 f   SetDlgButtons.obj
 0001:00121290       ?OnBtn_CmdTasksParm@CSetDlgButtons@@KAXPEAUHWND__@@GE@Z 0000000140122290 f   SetDlgButtons.obj
 0001:00121470       ?OnBtn_CmdTasksDir@CSetDlgButtons@@KAXPEAUHWND__@@GE@Z 0000000140122470 f   SetDlgButtons.obj
 0001:00121750       ?OnBtn_AddDefaults@CSetDlgButtons@@KAXPEAUHWND__@@GE@Z 0000000140122750 f   SetDlgButtons.obj
 0001:00121880       ?OnBtn_CmdTasksReload@CSetDlgButtons@@KAXPEAUHWND__@@GE@Z 0000000140122880 f   SetDlgButtons.obj
 0001:00121990       ?OnBtn_NormalFullscreenMaximized@CSetDlgButtons@@KAXPEAUHWND__@@GE@Z 0000000140122990 f   SetDlgButtons.obj
 0001:00121a20       ?OnBtn_ApplyPos@CSetDlgButtons@@KAXPEAUHWND__@@GE@Z 0000000140122a20 f   SetDlgButtons.obj
 0001:00122120       ?OnBtn_CascadeFixed@CSetDlgButtons@@KAXPEAUHWND__@@GE@Z 0000000140123120 f   SetDlgButtons.obj
 0001:00122200       ?OnBtn_UseCurrentSizePos@CSetDlgButtons@@KAXPEAUHWND__@@GE@Z 0000000140123200 f   SetDlgButtons.obj
 0001:001222b0       ?OnBtn_UnicodeRangesApply@CSetDlgButtons@@KAXPEAUHWND__@@GE@Z 00000001401232b0 f   SetDlgButtons.obj
 0001:001223f0       ?OnBtn_ComspecRadio@CSetDlgButtons@@KAXPEAUHWND__@@GE@Z 00000001401233f0 f   SetDlgButtons.obj
 0001:001224c0       ?OnBtn_ComspecExplicit@CSetDlgButtons@@KAXPEAUHWND__@@GE@Z 00000001401234c0 f   SetDlgButtons.obj
 0001:001226a0       ?OnBtn_ComspecTest@CSetDlgButtons@@KAXPEAUHWND__@@GE@Z 00000001401236a0 f   SetDlgButtons.obj
 0001:00122730       ?OnBtn_CmdAutoActions@CSetDlgButtons@@KAXPEAUHWND__@@GE@Z 0000000140123730 f   SetDlgButtons.obj
 0001:001227e0       ?OnBtn_BgImageEnable@CSetDlgButtons@@KAXPEAUHWND__@@GE@Z 00000001401237e0 f   SetDlgButtons.obj
 0001:00122910       ?OnBtn_BgImageChoose@CSetDlgButtons@@KAXPEAUHWND__@@GE@Z 0000000140123910 f   SetDlgButtons.obj
 0001:00122c50       ?OnBtn_HideCaptionAlways@CSetDlgButtons@@KAXPEAUHWND__@@GE@Z 0000000140123c50 f   SetDlgButtons.obj
 0001:00122d10       ?OnBtn_ScrollbarStyle@CSetDlgButtons@@KAXPEAUHWND__@@GE@Z 0000000140123d10 f   SetDlgButtons.obj
 0001:00122e90       ?OnBtn_DebugLog@CSetDlgButtons@@KAXPEAUHWND__@@GE@Z 0000000140123e90 f   SetDlgButtons.obj
 0001:00122fc0       ?OnBtn_TabsRadioAuto@CSetDlgButtons@@KAXPEAUHWND__@@GE@Z 0000000140123fc0 f   SetDlgButtons.obj
 0001:001230e0       ?OnBtn_OneTabPerGroup@CSetDlgButtons@@KAXPEAUHWND__@@GE@Z 00000001401240e0 f   SetDlgButtons.obj
 0001:00123640       ?OnBtn_TaskbarBtnRadio@CSetDlgButtons@@KAXPEAUHWND__@@GE@Z 0000000140124640 f   SetDlgButtons.obj
 0001:001236d0       ?OnBtn_ExtendFonts@CSetDlgButtons@@KAXPEAUHWND__@@GE@Z 00000001401246d0 f   SetDlgButtons.obj
 0001:00123790       ?OnBtn_UseClink@CSetDlgButtons@@KAXPEAUHWND__@@GE@Z 0000000140124790 f   SetDlgButtons.obj
 0001:00123860       ?OnBtn_AdminSuffixOrShield@CSetDlgButtons@@KAXPEAUHWND__@@GE@Z 0000000140124860 f   SetDlgButtons.obj
 0001:00123ee0       ?OnBtn_HideInactiveConTabs@CSetDlgButtons@@KAXPEAUHWND__@@GE@Z 0000000140124ee0 f   SetDlgButtons.obj
 0001:00124440       ?OnBtn_ShowFarWindows@CSetDlgButtons@@KAXPEAUHWND__@@GE@Z 0000000140125440 f   SetDlgButtons.obj
 0001:001249a0       ?OnBtn_CloseConEmuOptions@CSetDlgButtons@@KAXPEAUHWND__@@GE@Z 00000001401259a0 f   SetDlgButtons.obj
 0001:00124de0       ?OnBtn_HideOrMinOnLastTabClose@CSetDlgButtons@@KAXPEAUHWND__@@GE@Z 0000000140125de0 f   SetDlgButtons.obj
 0001:00125040       ?OnBtn_SendConsoleSpecials@CSetDlgButtons@@KAXPEAUHWND__@@GE@Z 0000000140126040 f   SetDlgButtons.obj
 0001:00125110       ?OnBtn_DosBox@CSetDlgButtons@@KAXPEAUHWND__@@GE@Z 0000000140126110 f   SetDlgButtons.obj
 0001:00125250       ?OnBtn_DebugActivityRadio@CSetDlgButtons@@KAXPEAUHWND__@@GE@Z 0000000140126250 f   SetDlgButtons.obj
 0001:00125310       ?OnBtn_ColorFormat@CSetDlgButtons@@KAXPEAUHWND__@@GE@Z 0000000140126310 f   SetDlgButtons.obj
 0001:001253c0       ?OnBtn_ExtendColors@CSetDlgButtons@@KAXPEAUHWND__@@GE@Z 00000001401263c0 f   SetDlgButtons.obj
 0001:00125470       ?OnBtn_ColorResetExt@CSetDlgButtons@@KAXPEAUHWND__@@GE@Z 0000000140126470 f   SetDlgButtons.obj
 0001:00125550       ?OnBtn_ColorSchemeSaveDelete@CSetDlgButtons@@KAXPEAUHWND__@@GE@Z 0000000140126550 f   SetDlgButtons.obj
 0001:001255e0       ?OnBtn_Transparent@CSetDlgButtons@@KAXPEAUHWND__@@GE@Z 00000001401265e0 f   SetDlgButtons.obj
 0001:001256c0       ?OnBtn_TransparentSeparate@CSetDlgButtons@@KAXPEAUHWND__@@GE@Z 00000001401266c0 f   SetDlgButtons.obj
 0001:001257d0       ?OnBtn_CTSEndCopyAuto@CSetDlgButtons@@KAXPEAUHWND__@@GE@Z 00000001401267d0 f   SetDlgButtons.obj
 0001:00125920       ?OnBtn_UpdateInetTool@CSetDlgButtons@@KAXPEAUHWND__@@GE@Z 0000000140126920 f   SetDlgButtons.obj
 0001:001259c0       ?OnBtn_UpdateInetToolCmd@CSetDlgButtons@@KAXPEAUHWND__@@GE@Z 00000001401269c0 f   SetDlgButtons.obj
 0001:00126180       ?OnBtn_UpdateUseProxy@CSetDlgButtons@@KAXPEAUHWND__@@GE@Z 0000000140127180 f   SetDlgButtons.obj
 0001:00126220       ?OnBtn_UpdateArcCmdLine@CSetDlgButtons@@KAXPEAUHWND__@@GE@Z 0000000140127220 f   SetDlgButtons.obj
 0001:00126470       ?OnBtn_UpdateDownloadPath@CSetDlgButtons@@KAXPEAUHWND__@@GE@Z 0000000140127470 f   SetDlgButtons.obj
 0001:00126600       ?OnBtn_UpdateApplyAndCheck@CSetDlgButtons@@KAXPEAUHWND__@@GE@Z 0000000140127600 f   SetDlgButtons.obj
 0001:00126730       ?OnBtn_DefTerm@CSetDlgButtons@@KAXPEAUHWND__@@GE@Z 0000000140127730 f   SetDlgButtons.obj
 0001:00126a60       ?OnBtn_GotoEditorCmd@CSetDlgButtons@@KAXPEAUHWND__@@GE@Z 0000000140127a60 f   SetDlgButtons.obj
 0001:00126ca0       ?OnBtn_ColorField@CSetDlgButtons@@KAXPEAUHWND__@@GE@Z 0000000140127ca0 f   SetDlgButtons.obj
 0001:00126e80       ?OnBtn_StatusVertSep@CSetDlgButtons@@KAXPEAUHWND__@@GE@Z 0000000140127e80 f   SetDlgButtons.obj
 0001:00126f00       ?OnBtn_StatusSystemColors@CSetDlgButtons@@KAXPEAUHWND__@@GE@Z 0000000140127f00 f   SetDlgButtons.obj
 0001:00126ff0       ?OnBtn_StatusAddDel@CSetDlgButtons@@KAXPEAUHWND__@@GE@Z 0000000140127ff0 f   SetDlgButtons.obj
 0001:00127220       ??$GetPageObj@VCSetPgTasks@@@CSettings@@QEAA_NAEAPEAVCSetPgTasks@@@Z 0000000140128220 f i SetDlgButtons.obj
 0001:001272a0       ?GetColorById@CSetDlgColors@@SA_NGPEAK@Z 00000001401282a0 f   SetDlgColors.obj
 0001:001273b0       ?SetColorById@CSetDlgColors@@SA_NGK@Z 00000001401283b0 f   SetDlgColors.obj
 0001:001275c0       ?ColorBoxProc@CSetDlgColors@@KA_JPEAUHWND__@@I_K_J@Z 00000001401285c0 f   SetDlgColors.obj
 0001:001278a0       ?ColorSetEdit@CSetDlgColors@@SAXPEAUHWND__@@G@Z 00000001401288a0 f   SetDlgColors.obj
 0001:00127a80       ?ColorEditDialog@CSetDlgColors@@SA_NPEAUHWND__@@G@Z 0000000140128a80 f   SetDlgColors.obj
 0001:00127b70       ?FillBgImageColors@CSetDlgColors@@SAXPEAUHWND__@@@Z 0000000140128b70 f   SetDlgColors.obj
 0001:00127c90       ?ColorCtlStatic@CSetDlgColors@@SA_JPEAUHWND__@@G0@Z 0000000140128c90 f   SetDlgColors.obj
 0001:00127e50       ?ReleaseHandles@CSetDlgColors@@SAXXZ 0000000140128e50 f   SetDlgColors.obj
 0001:00127ec0       ?Set@?$MMap@PEAUHWND__@@P6A_JPEAU1@I_K_J@Z$0A@@@QEAA_NAEBQEAUHWND__@@AEBQ6A_JPEAU2@I_K_J@Z@Z 0000000140128ec0 f i SetDlgColors.obj
 0001:00128030       ?Get@?$MMap@PEAUHWND__@@P6A_JPEAU1@I_K_J@Z$0A@@@QEAA_NAEBQEAUHWND__@@PEAP6A_JPEAU2@I_K_J@Z_N@Z 0000000140129030 f i SetDlgColors.obj
 0001:001280e0       ?Release@?$MMap@PEAUHWND__@@P6A_JPEAU1@I_K_J@Z$0A@@@QEAAXXZ 00000001401290e0 f i SetDlgColors.obj
 0001:00128160       ?AllocateBlock@?$MMap@PEAUHWND__@@P6A_JPEAU1@I_K_J@Z$0A@@@IEAAPEAUMapItems@1@XZ 0000000140129160 f i SetDlgColors.obj
 0001:00128270       ?EnumFamCallBack@CSetDlgFonts@@KAHPEAUtagLOGFONTW@@PEAUtagNEWTEXTMETRICW@@KPEAX@Z 0000000140129270 f   SetDlgFonts.obj
 0001:001283b0       ?EnumFontCallBackEx@CSetDlgFonts@@KAHPEAUtagENUMLOGFONTEXW@@PEAUtagNEWTEXTMETRICEXW@@K_J@Z 00000001401293b0 f   SetDlgFonts.obj
 0001:00128410       ?EnumFontsThread@CSetDlgFonts@@CAKPEAX@Z 0000000140129410 f   SetDlgFonts.obj
 0001:001288a0       ?GetListItems@CSetDlgLists@@SAIW4eFillListBoxItems@1@AEAPEBUListBoxItem@@@Z 00000001401298a0 f   SetDlgLists.obj
 0001:00128a60       ?GetListItems@CSetDlgLists@@SAIW4eWordItems@1@AEAPEBK@Z 0000000140129a60 f   SetDlgLists.obj
 0001:00128b50       ?FillListBoxItems@CSetDlgLists@@SAXPEAUHWND__@@W4eFillListBoxItems@1@AEAI_N@Z 0000000140129b50 f   SetDlgLists.obj
 0001:00128c80       ?FillListBoxItems@CSetDlgLists@@SAXPEAUHWND__@@W4eWordItems@1@AEAI_N@Z 0000000140129c80 f   SetDlgLists.obj
 0001:00128dd0       ?GetListBoxItem@CSetDlgLists@@SA_NPEAUHWND__@@GW4eFillListBoxItems@1@AEAI@Z 0000000140129dd0 f   SetDlgLists.obj
 0001:00128e90       ?GetListBoxItem@CSetDlgLists@@SA_NPEAUHWND__@@GW4eWordItems@1@AEAI@Z 0000000140129e90 f   SetDlgLists.obj
 0001:00128f50       ?GetSelectedString@CSetDlgLists@@SA_JPEAUHWND__@@GPEAPEA_W@Z 0000000140129f50 f   SetDlgLists.obj
 0001:00129100       ?SelectStringExact@CSetDlgLists@@SAHPEAUHWND__@@GPEB_W@Z 000000014012a100 f   SetDlgLists.obj
 0001:001292c0       ?GetListboxCurSel@CSetDlgLists@@SAHPEAUHWND__@@I_N@Z 000000014012a2c0 f   SetDlgLists.obj
 0001:00129370       ?GetListboxSelection@CSetDlgLists@@SAHPEAUHWND__@@IAEAPEAH@Z 000000014012a370 f   SetDlgLists.obj
 0001:00129470       ?ListBoxMultiSel@CSetDlgLists@@SAXPEAUHWND__@@IH@Z 000000014012a470 f   SetDlgLists.obj
 0001:001294e0       ?FillCBList@CSetDlgLists@@SAXPEAUHWND__@@_NPEAPEB_WPEB_W@Z 000000014012a4e0 f   SetDlgLists.obj
 0001:001295c0       ?GetPageType@CSetPgANSI@@UEAA?AW4TabHwndIndex@@XZ 000000014012a5c0 f i SetPgANSI.obj
 0001:001295d0       ??_GCSetPgANSI@@UEAAPEAXI@Z 000000014012a5d0 f i SetPgANSI.obj
 0001:001295d0       ??_ECSetPgANSI@@UEAAPEAXI@Z 000000014012a5d0 f i * CIL library *:* CIL module *
 0001:00129610       ?OnInitDialog@CSetPgANSI@@UEAA_JPEAUHWND__@@_N@Z 000000014012a610 f   SetPgANSI.obj
 0001:00129690       ?OnEditChanged@CSetPgANSI@@UEAA_JPEAUHWND__@@G@Z 000000014012a690 f   SetPgANSI.obj
 0001:00129710       ?GetPageType@CSetPgAppear@@UEAA?AW4TabHwndIndex@@XZ 000000014012a710 f i SetPgAppear.obj
 0001:00129720       ??_ECSetPgAppear@@UEAAPEAXI@Z 000000014012a720 f i * CIL library *:* CIL module *
 0001:00129720       ??_GCSetPgAppear@@UEAAPEAXI@Z 000000014012a720 f i SetPgAppear.obj
 0001:00129760       ?OnInitDialog@CSetPgAppear@@UEAA_JPEAUHWND__@@_N@Z 000000014012a760 f   SetPgAppear.obj
 0001:00129ab0       ?OnEditChanged@CSetPgAppear@@UEAA_JPEAUHWND__@@G@Z 000000014012aab0 f   SetPgAppear.obj
 0001:00129cb0       ?GetPageType@CSetPgApps@@UEAA?AW4TabHwndIndex@@XZ 000000014012acb0 f i SetPgApps.obj
 0001:00129cc0       ??_ECSetPgApps@@UEAAPEAXI@Z 000000014012acc0 f i * CIL library *:* CIL module *
 0001:00129cc0       ??_GCSetPgApps@@UEAAPEAXI@Z 000000014012acc0 f i SetPgApps.obj
 0001:00129d00       ??1CSetPgApps@@UEAA@XZ     000000014012ad00 f   SetPgApps.obj
 0001:00129d80       ?OnInitDialog@CSetPgApps@@UEAA_JPEAUHWND__@@_N@Z 000000014012ad80 f   SetPgApps.obj
 0001:0012a100       ?SetListAppName@CSetPgApps@@IEAA_JPEBUAppSettings@@H_J@Z 000000014012b100 f   SetPgApps.obj
 0001:0012a280       ?ProcessDpiChange@CSetPgApps@@UEAAXPEBVCDpiForDialog@@@Z 000000014012b280 f   SetPgApps.obj
 0001:0012a340       ?pageOpProc_AppsChild@CSetPgApps@@SA_JPEAUHWND__@@I_K_J@Z 000000014012b340 f   SetPgApps.obj
 0001:0012a610       ?PageDlgProc@CSetPgApps@@UEAA_JPEAUHWND__@@I_K_J@Z 000000014012b610 f   SetPgApps.obj
 0001:0012a830       ?DoAppAdd@CSetPgApps@@IEAAXXZ 000000014012b830 f   SetPgApps.obj
 0001:0012a910       ?DoAppDel@CSetPgApps@@IEAAXXZ 000000014012b910 f   SetPgApps.obj
 0001:0012aa60       ?DoAppMove@CSetPgApps@@IEAAX_N@Z 000000014012ba60 f   SetPgApps.obj
 0001:0012abd0       ?OnButtonClicked@CSetPgApps@@UEAA_JPEAUHWND__@@0G@Z 000000014012bbd0 f   SetPgApps.obj
 0001:0012b2c0       ?CreateChildDlg@CSetPgApps@@IEAA_NXZ 000000014012c2c0 f   SetPgApps.obj
 0001:0012b5d0       ?DoFillControls@CSetPgApps@@QEAAXPEBUAppSettings@@@Z 000000014012c5d0 f   SetPgApps.obj
 0001:0012bb20       ?DoEnableControls@CSetPgApps@@QEAAXG@Z 000000014012cb20 f   SetPgApps.obj
 0001:0012bcf0       ?OnEditChanged@CSetPgApps@@UEAA_JPEAUHWND__@@G@Z 000000014012ccf0 f   SetPgApps.obj
 0001:0012be80       ?OnComboBox@CSetPgApps@@UEAA_JPEAUHWND__@@GG@Z 000000014012ce80 f   SetPgApps.obj
 0001:0012c1c0       ?OnAppSelectionChanged@CSetPgApps@@IEAAXXZ 000000014012d1c0 f   SetPgApps.obj
 0001:0012c2e0       ??$GetPageObj@VCSetPgApps@@@CSettings@@QEAA_NAEAPEAVCSetPgApps@@@Z 000000014012d2e0 f i SetPgApps.obj
 0001:0012c360       ?GetPageType@CSetPgBackgr@@UEAA?AW4TabHwndIndex@@XZ 000000014012d360 f i SetPgBackgr.obj
 0001:0012c370       ??_GCSetPgBackgr@@UEAAPEAXI@Z 000000014012d370 f i SetPgBackgr.obj
 0001:0012c370       ??_ECSetPgBackgr@@UEAAPEAXI@Z 000000014012d370 f i * CIL library *:* CIL module *
 0001:0012c3b0       ?OnInitDialog@CSetPgBackgr@@UEAA_JPEAUHWND__@@_N@Z 000000014012d3b0 f   SetPgBackgr.obj
 0001:0012c610       ?OnComboBox@CSetPgBackgr@@UEAA_JPEAUHWND__@@GG@Z 000000014012d610 f   SetPgBackgr.obj
 0001:0012c6e0       ?OnEditChanged@CSetPgBackgr@@UEAA_JPEAUHWND__@@G@Z 000000014012d6e0 f   SetPgBackgr.obj
 0001:0012c9a0       ??_GCSetPgBase@@UEAAPEAXI@Z 000000014012d9a0 f i SetPgBase.obj
 0001:0012c9a0       ??_ECSetPgBase@@UEAAPEAXI@Z 000000014012d9a0 f i * CIL library *:* CIL module *
 0001:0012c9e0       ??1CSetPgBase@@UEAA@XZ     000000014012d9e0 f   SetPgBase.obj
 0001:0012ca60       ?CreatePage@CSetPgBase@@SAPEAUHWND__@@PEAUConEmuSetupPages@@PEAU2@IPEBVCDpiForDialog@@@Z 000000014012da60 f   SetPgBase.obj
 0001:0012cb90       ?InitObject@CSetPgBase@@UEAAXPEAUHWND__@@IPEBVCDpiForDialog@@PEAUConEmuSetupPages@@@Z 000000014012db90 f   SetPgBase.obj
 0001:0012cc00       ?OnDpiChanged@CSetPgBase@@UEAAXPEBVCDpiForDialog@@@Z 000000014012dc00 f   SetPgBase.obj
 0001:0012cc50       ?ProcessDpiChange@CSetPgBase@@UEAAXPEBVCDpiForDialog@@@Z 000000014012dc50 f   SetPgBase.obj
 0001:0012ccf0       ?OnCtlColorStatic@CSetPgBase@@UEAA_JPEAUHWND__@@PEAUHDC__@@0G@Z 000000014012dcf0 f   SetPgBase.obj
 0001:0012cdc0       ?OnSetCursor@CSetPgBase@@UEAA_JPEAUHWND__@@0GGG@Z 000000014012ddc0 f   SetPgBase.obj
 0001:0012ce30       ?OnButtonClicked@CSetPgBase@@UEAA_JPEAUHWND__@@0G@Z 000000014012de30 f   SetPgBase.obj
 0001:0012ce40       ?pageOpProc@CSetPgBase@@SA_JPEAUHWND__@@I_K_J@Z 000000014012de40 f   SetPgBase.obj
 0001:0012d7b0       ?setHotkeyCheckbox@CSetPgBase@@SAXPEAUHWND__@@GHPEB_W1I@Z 000000014012e7b0 f   SetPgBase.obj
 0001:0012dbf0       ?setCtrlTitleByHotkey@CSetPgBase@@SAXPEAUHWND__@@GHPEB_W1@Z 000000014012ebf0 f   SetPgBase.obj
 0001:0012e010       ??$GetPageObj@VCSetPgFonts@@@CSettings@@QEAA_NAEAPEAVCSetPgFonts@@@Z 000000014012f010 f i SetPgBase.obj
 0001:0012e090       ?GetPageType@CSetPgChildGui@@UEAA?AW4TabHwndIndex@@XZ 000000014012f090 f i SetPgChildGui.obj
 0001:0012e0a0       ??_ECSetPgChildGui@@UEAAPEAXI@Z 000000014012f0a0 f i * CIL library *:* CIL module *
 0001:0012e0a0       ??_GCSetPgChildGui@@UEAAPEAXI@Z 000000014012f0a0 f i SetPgChildGui.obj
 0001:0012e0e0       ?OnInitDialog@CSetPgChildGui@@UEAA_JPEAUHWND__@@_N@Z 000000014012f0e0 f   SetPgChildGui.obj
 0001:0012e130       ?GetPageType@CSetPgColors@@UEAA?AW4TabHwndIndex@@XZ 000000014012f130 f i SetPgColors.obj
 0001:0012e140       ??_GCSetPgColors@@UEAAPEAXI@Z 000000014012f140 f i SetPgColors.obj
 0001:0012e140       ??_ECSetPgColors@@UEAAPEAXI@Z 000000014012f140 f i * CIL library *:* CIL module *
 0001:0012e180       ?OnInitDialog@CSetPgColors@@UEAA_JPEAUHWND__@@_N@Z 000000014012f180 f   SetPgColors.obj
 0001:0012ea10       ?OnComboBox@CSetPgColors@@UEAA_JPEAUHWND__@@GG@Z 000000014012fa10 f   SetPgColors.obj
 0001:0012ed90       ?OnEditChanged@CSetPgColors@@UEAA_JPEAUHWND__@@G@Z 000000014012fd90 f   SetPgColors.obj
 0001:0012ef00       ?ColorSchemeSaveDelete@CSetPgColors@@QEAAXGE@Z 000000014012ff00 f   SetPgColors.obj
 0001:0012f090       ?GetPageType@CSetPgComspec@@UEAA?AW4TabHwndIndex@@XZ 0000000140130090 f i SetPgComspec.obj
 0001:0012f0a0       ??_ECSetPgComspec@@UEAAPEAXI@Z 00000001401300a0 f i * CIL library *:* CIL module *
 0001:0012f0a0       ??_GCSetPgComspec@@UEAAPEAXI@Z 00000001401300a0 f i SetPgComspec.obj
 0001:0012f0e0       ?OnInitDialog@CSetPgComspec@@UEAA_JPEAUHWND__@@_N@Z 00000001401300e0 f   SetPgComspec.obj
 0001:0012f200       ?ReloadAutorun@CSetPgComspec@@QEAAXXZ 0000000140130200 f   SetPgComspec.obj
 0001:0012f320       ?LoadAutorunValue@CSetPgComspec@@QEAAPEA_WPEAUHKEY__@@_N@Z 0000000140130320 f   SetPgComspec.obj
 0001:0012f5c0       ?RegisterCmdAutorun@CSetPgComspec@@QEAAX_N0@Z 00000001401305c0 f   SetPgComspec.obj
 0001:0012f920       ?OnEditChanged@CSetPgComspec@@UEAA_JPEAUHWND__@@G@Z 0000000140130920 f   SetPgComspec.obj
 0001:0012f960       ?GetPageType@CSetPgConfirm@@UEAA?AW4TabHwndIndex@@XZ 0000000140130960 f i SetPgConfirm.obj
 0001:0012f970       ??_ECSetPgConfirm@@UEAAPEAXI@Z 0000000140130970 f i * CIL library *:* CIL module *
 0001:0012f970       ??_GCSetPgConfirm@@UEAAPEAXI@Z 0000000140130970 f i SetPgConfirm.obj
 0001:0012f9b0       ?OnInitDialog@CSetPgConfirm@@UEAA_JPEAUHWND__@@_N@Z 00000001401309b0 f   SetPgConfirm.obj
 0001:0012fb00       ?GetPageType@CSetPgCursor@@UEAA?AW4TabHwndIndex@@XZ 0000000140130b00 f i SetPgCursor.obj
 0001:0012fb10       ??_ECSetPgCursor@@UEAAPEAXI@Z 0000000140130b10 f i * CIL library *:* CIL module *
 0001:0012fb10       ??_GCSetPgCursor@@UEAAPEAXI@Z 0000000140130b10 f i SetPgCursor.obj
 0001:0012fb50       ?InitCursorCtrls@CSetPgCursor@@SAXPEAUHWND__@@PEBUAppSettings@@@Z 0000000140130b50 f   SetPgCursor.obj
 0001:0012fd00       ?OnEditChangedCursor@CSetPgCursor@@SA_NPEAUHWND__@@GPEAUAppSettings@@@Z 0000000140130d00 f   SetPgCursor.obj
 0001:0012fe40       ?OnInitDialog@CSetPgCursor@@UEAA_JPEAUHWND__@@_N@Z 0000000140130e40 f   SetPgCursor.obj
 0001:0012fe70       ?OnEditChanged@CSetPgCursor@@UEAA_JPEAUHWND__@@G@Z 0000000140130e70 f   SetPgCursor.obj
 0001:0012fed0       ?GetPageType@CSetPgDebug@@UEAA?AW4TabHwndIndex@@XZ 0000000140130ed0 f i SetPgDebug.obj
 0001:0012fee0       ??_ECSetPgDebug@@UEAAPEAXI@Z 0000000140130ee0 f i * CIL library *:* CIL module *
 0001:0012fee0       ??_GCSetPgDebug@@UEAAPEAXI@Z 0000000140130ee0 f i SetPgDebug.obj
 0001:0012ff20       ?OnInitDialog@CSetPgDebug@@UEAA_JPEAUHWND__@@_N@Z 0000000140130f20 f   SetPgDebug.obj
 0001:001300e0       ?GetActivityLoggingType@CSetPgDebug@@SA?AW4GuiLoggingType@@XZ 00000001401310e0 f   SetPgDebug.obj
 0001:00130140       ?SetLoggingType@CSetPgDebug@@QEAAXW4GuiLoggingType@@@Z 0000000140131140 f   SetPgDebug.obj
 0001:001311b0       ?debugLogShell@CSetPgDebug@@SAXKPEAUCESERVER_REQ_ONCREATEPROCESS@@@Z 00000001401321b0 f   SetPgDebug.obj
 0001:00131960       ?debugLogShell@CSetPgDebug@@QEAAXPEAUDebugLogShellActivity@1@@Z 0000000140132960 f   SetPgDebug.obj
 0001:00131ea0       ?debugLogShellText@CSetPgDebug@@KAXAEAPEA_WPEB_W@Z 0000000140132ea0 f   SetPgDebug.obj
 0001:00132230       ?debugLogString@CSetPgDebug@@QEAAXPEAULogRConString@1@@Z 0000000140133230 f   SetPgDebug.obj
 0001:001324b0       ?debugLogInfo@CSetPgDebug@@QEAAXPEAUCESERVER_REQ_PEEKREADINFO@@@Z 00000001401334b0 f   SetPgDebug.obj
 0001:001330a0       ?debugLogCommand@CSetPgDebug@@SAXPEAUCESERVER_REQ@@HKKPEB_W0@Z 00000001401340a0 f   SetPgDebug.obj
 0001:00133420       ?debugLogCommand@CSetPgDebug@@QEAAXPEAULogCommandsData@1@@Z 0000000140134420 f   SetPgDebug.obj
 0001:00133720       ?OnActivityLogNotify@CSetPgDebug@@QEAA_J_K_J@Z 0000000140134720 f   SetPgDebug.obj
 0001:00133970       ?OnSaveActivityLogFile@CSetPgDebug@@QEAAXXZ 0000000140134970 f   SetPgDebug.obj
 0001:00133d00       ?GetPageType@CSetPgDefTerm@@UEAA?AW4TabHwndIndex@@XZ 0000000140134d00 f i SetPgDefTerm.obj
 0001:00133d10       ??_ECSetPgDefTerm@@UEAAPEAXI@Z 0000000140134d10 f i * CIL library *:* CIL module *
 0001:00133d10       ??_GCSetPgDefTerm@@UEAAPEAXI@Z 0000000140134d10 f i SetPgDefTerm.obj
 0001:00133d50       ?OnInitDialog@CSetPgDefTerm@@UEAA_JPEAUHWND__@@_N@Z 0000000140134d50 f   SetPgDefTerm.obj
 0001:00133f20       ?OnEditChanged@CSetPgDefTerm@@UEAA_JPEAUHWND__@@G@Z 0000000140134f20 f   SetPgDefTerm.obj
 0001:00134070       ?GetPageType@CSetPgEnvironment@@UEAA?AW4TabHwndIndex@@XZ 0000000140135070 f i SetPgEnvironment.obj
 0001:00134080       ??_ECSetPgEnvironment@@UEAAPEAXI@Z 0000000140135080 f i * CIL library *:* CIL module *
 0001:00134080       ??_GCSetPgEnvironment@@UEAAPEAXI@Z 0000000140135080 f i SetPgEnvironment.obj
 0001:001340c0       ?OnInitDialog@CSetPgEnvironment@@UEAA_JPEAUHWND__@@_N@Z 00000001401350c0 f   SetPgEnvironment.obj
 0001:00134140       ?OnEditChanged@CSetPgEnvironment@@UEAA_JPEAUHWND__@@G@Z 0000000140135140 f   SetPgEnvironment.obj
 0001:001341c0       ?GetPageType@CSetPgFar@@UEAA?AW4TabHwndIndex@@XZ 00000001401351c0 f i SetPgFar.obj
 0001:001341d0       ??_ECSetPgFar@@UEAAPEAXI@Z 00000001401351d0 f i * CIL library *:* CIL module *
 0001:001341d0       ??_GCSetPgFar@@UEAAPEAXI@Z 00000001401351d0 f i SetPgFar.obj
 0001:00134210       ?OnInitDialog@CSetPgFar@@UEAA_JPEAUHWND__@@_N@Z 0000000140135210 f   SetPgFar.obj
 0001:00134610       ?OnComboBox@CSetPgFar@@UEAA_JPEAUHWND__@@GG@Z 0000000140135610 f   SetPgFar.obj
 0001:001346f0       ?OnEditChanged@CSetPgFar@@UEAA_JPEAUHWND__@@G@Z 00000001401356f0 f   SetPgFar.obj
 0001:00134920       ?GetPageType@CSetPgFarMacro@@UEAA?AW4TabHwndIndex@@XZ 0000000140135920 f i SetPgFarMacro.obj
 0001:00134930       ??_GCSetPgFarMacro@@UEAAPEAXI@Z 0000000140135930 f i SetPgFarMacro.obj
 0001:00134930       ??_ECSetPgFarMacro@@UEAAPEAXI@Z 0000000140135930 f i * CIL library *:* CIL module *
 0001:00134970       ?OnInitDialog@CSetPgFarMacro@@UEAA_JPEAUHWND__@@_N@Z 0000000140135970 f   SetPgFarMacro.obj
 0001:00134bb0       ?OnComboBox@CSetPgFarMacro@@UEAA_JPEAUHWND__@@GG@Z 0000000140135bb0 f   SetPgFarMacro.obj
 0001:00134c80       ?GetPageType@CSetPgFeatures@@UEAA?AW4TabHwndIndex@@XZ 0000000140135c80 f i SetPgFeatures.obj
 0001:00134c90       ??_ECSetPgFeatures@@UEAAPEAXI@Z 0000000140135c90 f i * CIL library *:* CIL module *
 0001:00134c90       ??_GCSetPgFeatures@@UEAAPEAXI@Z 0000000140135c90 f i SetPgFeatures.obj
 0001:00134cd0       ?OnInitDialog@CSetPgFeatures@@UEAA_JPEAUHWND__@@_N@Z 0000000140135cd0 f   SetPgFeatures.obj
 0001:00135000       ?UpdateLogLocation@CSetPgFeatures@@IEAAXXZ 0000000140136000 f   SetPgFeatures.obj
 0001:00135270       ?OnEditChanged@CSetPgFeatures@@UEAA_JPEAUHWND__@@G@Z 0000000140136270 f   SetPgFeatures.obj
 0001:00135370       ??_GCSetPgFonts@@UEAAPEAXI@Z 0000000140136370 f i SetPgFonts.obj
 0001:00135370       ??_ECSetPgFonts@@UEAAPEAXI@Z 0000000140136370 f i * CIL library *:* CIL module *
 0001:001353b0       ?OnInitDialog@CSetPgFonts@@UEAA_JPEAUHWND__@@_N@Z 00000001401363b0 f   SetPgFonts.obj
 0001:00135d20       ?CopyFontsTo@CSetPgFonts@@QEAAXPEAUHWND__@@HZZ 0000000140136d20 f   SetPgFonts.obj
 0001:00135fc0       ?OnComboBox@CSetPgFonts@@UEAA_JPEAUHWND__@@GG@Z 0000000140136fc0 f   SetPgFonts.obj
 0001:001361c0       ?GetPageType@CSetPgHilight@@UEAA?AW4TabHwndIndex@@XZ 00000001401371c0 f i SetPgHilight.obj
 0001:001361d0       ??_ECSetPgHilight@@UEAAPEAXI@Z 00000001401371d0 f i * CIL library *:* CIL module *
 0001:001361d0       ??_GCSetPgHilight@@UEAAPEAXI@Z 00000001401371d0 f i SetPgHilight.obj
 0001:00136210       ?OnInitDialog@CSetPgHilight@@UEAA_JPEAUHWND__@@_N@Z 0000000140137210 f   SetPgHilight.obj
 0001:00136400       ?OnComboBox@CSetPgHilight@@UEAA_JPEAUHWND__@@GG@Z 0000000140137400 f   SetPgHilight.obj
 0001:00136510       ?GetPageType@CSetPgInfo@@UEAA?AW4TabHwndIndex@@XZ 0000000140137510 f i SetPgInfo.obj
 0001:00136520       ??_ECSetPgInfo@@UEAAPEAXI@Z 0000000140137520 f i * CIL library *:* CIL module *
 0001:00136520       ??_GCSetPgInfo@@UEAAPEAXI@Z 0000000140137520 f i SetPgInfo.obj
 0001:00136560       ?OnInitDialog@CSetPgInfo@@UEAA_JPEAUHWND__@@_N@Z 0000000140137560 f   SetPgInfo.obj
 0001:00136770       ?OnPostLocalize@CSetPgInfo@@UEAAXPEAUHWND__@@@Z 0000000140137770 f   SetPgInfo.obj
 0001:00136840       ?FillFontInfo@CSetPgInfo@@QEAAXPEAUHWND__@@@Z 0000000140137840 f   SetPgInfo.obj
 0001:00136af0       ?FillConsoleMode@CSetPgInfo@@QEAAXPEAUHWND__@@PEAVCRealConsole@@@Z 0000000140137af0 f   SetPgInfo.obj
 0001:00136fd0       ?FillCursorInfo@CSetPgInfo@@QEAAXPEAUHWND__@@PEBUConsoleInfoArg@@@Z 0000000140137fd0 f   SetPgInfo.obj
 0001:00137060       ?GetPageType@CSetPgIntegr@@UEAA?AW4TabHwndIndex@@XZ 0000000140138060 f i SetPgIntegr.obj
 0001:00137070       ?ReleaseVectors@SwitchParser@@QEAAXXZ 0000000140138070 f i SetPgIntegr.obj
 0001:00137190       ?IsIgnored@SwitchParser@@QEAA_NPEAUSwitch@@PEAPEB_W@Z 0000000140138190 f i SetPgIntegr.obj
 0001:00137220       ?IsIgnored@SwitchParser@@QEAA_NPEAUSwitch@@AEAV?$MArray@PEAUSwitch@@@@@Z 0000000140138220 f i SetPgIntegr.obj
 0001:001372e0       ?GetNextSwitch@SwitchParser@@QEAAPEAUSwitch@@AEAPEB_WAEAUCEStr@@@Z 00000001401382e0 f i SetPgIntegr.obj
 0001:00137550       ?GetNextPair@SwitchParser@@QEAAPEAUSwitch@@AEAPEB_W@Z 0000000140138550 f i SetPgIntegr.obj
 0001:001376d0       ?ParseStdSwitches@SwitchParser@@QEAAXXZ 00000001401386d0 f i SetPgIntegr.obj
 0001:00137a70       ?StripDupSwitches@SwitchParser@@QEAAXPEB_W@Z 0000000140138a70 f i SetPgIntegr.obj
 0001:00138400       ?CreateCommand@SwitchParser@@QEAAPEB_WAEAUCEStr@@@Z 0000000140139400 f i SetPgIntegr.obj
 0001:00138630       ??_ECSetPgIntegr@@UEAAPEAXI@Z 0000000140139630 f i * CIL library *:* CIL module *
 0001:00138630       ??_GCSetPgIntegr@@UEAAPEAXI@Z 0000000140139630 f i SetPgIntegr.obj
 0001:00138670       ?OnInitDialog@CSetPgIntegr@@UEAA_JPEAUHWND__@@_N@Z 0000000140139670 f   SetPgIntegr.obj
 0001:001389c0       ?PageDlgProc@CSetPgIntegr@@UEAA_JPEAUHWND__@@I_K_J@Z 00000001401399c0 f   SetPgIntegr.obj
 0001:00138c30       ?RegisterShell@CSetPgIntegr@@SAXPEB_W0000@Z 0000000140139c30 f   SetPgIntegr.obj
 0001:001397f0       ?UnregisterShell@CSetPgIntegr@@SAXPEB_W@Z 000000014013a7f0 f   SetPgIntegr.obj
 0001:00139890       ?UnregisterShellInvalids@CSetPgIntegr@@SAXXZ 000000014013a890 f   SetPgIntegr.obj
 0001:00139da0       ?ShellIntegration@CSetPgIntegr@@QEAAXPEAUHWND__@@W4ShellIntegrType@1@_N2@Z 000000014013ada0 f   SetPgIntegr.obj
 0001:0013a150       ?ReloadHereList@CSetPgIntegr@@IEAA_NPEAH0@Z 000000014013b150 f   SetPgIntegr.obj
 0001:0013a960       ?FillHereValues@CSetPgIntegr@@IEAAXG@Z 000000014013b960 f   SetPgIntegr.obj
 0001:0013b020       ??$SafeDelete@USwitch@@@@YAXAEAPEAUSwitch@@@Z 000000014013c020 f i SetPgIntegr.obj
 0001:0013b0a0       ?GetPageType@CSetPgKeyboard@@UEAA?AW4TabHwndIndex@@XZ 000000014013c0a0 f i SetPgKeyboard.obj
 0001:0013b0b0       ??_GCSetPgKeyboard@@UEAAPEAXI@Z 000000014013c0b0 f i SetPgKeyboard.obj
 0001:0013b0b0       ??_ECSetPgKeyboard@@UEAAPEAXI@Z 000000014013c0b0 f i * CIL library *:* CIL module *
 0001:0013b0f0       ?OnInitDialog@CSetPgKeyboard@@UEAA_JPEAUHWND__@@_N@Z 000000014013c0f0 f   SetPgKeyboard.obj
 0001:0013b2d0       ?GetPageType@CSetPgKeys@@UEAA?AW4TabHwndIndex@@XZ 000000014013c2d0 f i SetPgKeys.obj
 0001:0013b2e0       ??_GCSetPgKeys@@UEAAPEAXI@Z 000000014013c2e0 f i SetPgKeys.obj
 0001:0013b2e0       ??_ECSetPgKeys@@UEAAPEAXI@Z 000000014013c2e0 f i * CIL library *:* CIL module *
 0001:0013b330       ?OnInitDialog@CSetPgKeys@@UEAA_JPEAUHWND__@@_N@Z 000000014013c330 f   SetPgKeys.obj
 0001:0013b8a0       ?FillHotKeysList@CSetPgKeys@@QEAAXPEAUHWND__@@_N@Z 000000014013c8a0 f   SetPgKeys.obj
 0001:0013c110       ?OnHotkeysNotify@CSetPgKeys@@QEAA_JPEAUHWND__@@_K_J@Z 000000014013d110 f   SetPgKeys.obj
 0001:0013c8a0       ?HotkeysCompare@CSetPgKeys@@SAH_J00@Z 000000014013d8a0 f   SetPgKeys.obj
 0001:0013ca10       ?PageDlgProc@CSetPgKeys@@UEAA_JPEAUHWND__@@I_K_J@Z 000000014013da10 f   SetPgKeys.obj
 0001:0013cbc0       ?ReInitHotkeys@CSetPgKeys@@SAXXZ 000000014013dbc0 f   SetPgKeys.obj
 0001:0013cc50       ?QueryDialogCancel@CSetPgKeys@@UEAA_NXZ 000000014013dc50 f   SetPgKeys.obj
 0001:0013ccd0       ?OnEditChanged@CSetPgKeys@@UEAA_JPEAUHWND__@@G@Z 000000014013dcd0 f   SetPgKeys.obj
 0001:0013ce30       ?OnButtonClicked@CSetPgKeys@@UEAA_JPEAUHWND__@@0G@Z 000000014013de30 f   SetPgKeys.obj
 0001:0013ce80       ?OnComboBox@CSetPgKeys@@UEAA_JPEAUHWND__@@GG@Z 000000014013de80 f   SetPgKeys.obj
 0001:0013d4d0       ?SetHotkeyVkMod@CSetPgKeys@@QEAAXPEAUConEmuHotKey@@K@Z 000000014013e4d0 f   SetPgKeys.obj
 0001:0013d530       ?GetPageType@CSetPgMarkCopy@@UEAA?AW4TabHwndIndex@@XZ 000000014013e530 f i SetPgMarkCopy.obj
 0001:0013d540       ??_GCSetPgMarkCopy@@UEAAPEAXI@Z 000000014013e540 f i SetPgMarkCopy.obj
 0001:0013d540       ??_ECSetPgMarkCopy@@UEAAPEAXI@Z 000000014013e540 f i * CIL library *:* CIL module *
 0001:0013d580       ?OnInitDialog@CSetPgMarkCopy@@UEAA_JPEAUHWND__@@_N@Z 000000014013e580 f   SetPgMarkCopy.obj
 0001:0013dd70       ?MarkCopyPreviewProc@CSetPgMarkCopy@@KA_JPEAUHWND__@@I_K_J@Z 000000014013ed70 f   SetPgMarkCopy.obj
 0001:0013e0e0       ?OnComboBox@CSetPgMarkCopy@@UEAA_JPEAUHWND__@@GG@Z 000000014013f0e0 f   SetPgMarkCopy.obj
 0001:0013e500       ?OnEditChanged@CSetPgMarkCopy@@UEAA_JPEAUHWND__@@G@Z 000000014013f500 f   SetPgMarkCopy.obj
 0001:0013e5f0       ?GetPageType@CSetPgMouse@@UEAA?AW4TabHwndIndex@@XZ 000000014013f5f0 f i SetPgMouse.obj
 0001:0013e600       ??_GCSetPgMouse@@UEAAPEAXI@Z 000000014013f600 f i SetPgMouse.obj
 0001:0013e600       ??_ECSetPgMouse@@UEAAPEAXI@Z 000000014013f600 f i * CIL library *:* CIL module *
 0001:0013e640       ?OnInitDialog@CSetPgMouse@@UEAA_JPEAUHWND__@@_N@Z 000000014013f640 f   SetPgMouse.obj
 0001:0013e9d0       ?OnComboBox@CSetPgMouse@@UEAA_JPEAUHWND__@@GG@Z 000000014013f9d0 f   SetPgMouse.obj
 0001:0013ec50       ?OnPostLocalize@CSetPgMouse@@UEAAXPEAUHWND__@@@Z 000000014013fc50 f   SetPgMouse.obj
 0001:0013ec80       ?GetPageType@CSetPgPaste@@UEAA?AW4TabHwndIndex@@XZ 000000014013fc80 f i SetPgPaste.obj
 0001:0013ec90       ??_GCSetPgPaste@@UEAAPEAXI@Z 000000014013fc90 f i SetPgPaste.obj
 0001:0013ec90       ??_ECSetPgPaste@@UEAAPEAXI@Z 000000014013fc90 f i * CIL library *:* CIL module *
 0001:0013ecd0       ?OnInitDialog@CSetPgPaste@@UEAA_JPEAUHWND__@@_N@Z 000000014013fcd0 f   SetPgPaste.obj
 0001:0013ee20       ?OnPostLocalize@CSetPgPaste@@UEAAXPEAUHWND__@@@Z 000000014013fe20 f   SetPgPaste.obj
 0001:0013ee80       ?OnBtn_ClipConfirmLimit@CSetPgPaste@@SAXPEAUHWND__@@GE@Z 000000014013fe80 f   SetPgPaste.obj
 0001:0013ef00       ?OnEditChanged@CSetPgPaste@@UEAA_JPEAUHWND__@@G@Z 000000014013ff00 f   SetPgPaste.obj
 0001:0013eff0       ?GetPageType@CSetPgQuake@@UEAA?AW4TabHwndIndex@@XZ 000000014013fff0 f i SetPgQuake.obj
 0001:0013f000       ??_ECSetPgQuake@@UEAAPEAXI@Z 0000000140140000 f i * CIL library *:* CIL module *
 0001:0013f000       ??_GCSetPgQuake@@UEAAPEAXI@Z 0000000140140000 f i SetPgQuake.obj
 0001:0013f040       ?OnInitDialog@CSetPgQuake@@UEAA_JPEAUHWND__@@_N@Z 0000000140140040 f   SetPgQuake.obj
 0001:0013f1b0       ?OnEditChanged@CSetPgQuake@@UEAA_JPEAUHWND__@@G@Z 00000001401401b0 f   SetPgQuake.obj
 0001:0013f320       ??_GCSetPgSizePos@@UEAAPEAXI@Z 0000000140140320 f i SetPgSizePos.obj
 0001:0013f320       ??_ECSetPgSizePos@@UEAAPEAXI@Z 0000000140140320 f i * CIL library *:* CIL module *
 0001:0013f360       ?OnInitDialog@CSetPgSizePos@@UEAA_JPEAUHWND__@@_N@Z 0000000140140360 f   SetPgSizePos.obj
 0001:0013f800       ?FillSizeControls@CSetPgSizePos@@QEAAXPEAUHWND__@@@Z 0000000140140800 f   SetPgSizePos.obj
 0001:0013f930       ?EnablePosSizeControls@CSetPgSizePos@@QEAAXPEAUHWND__@@@Z 0000000140140930 f   SetPgSizePos.obj
 0001:0013fa30       ?OnComboBox@CSetPgSizePos@@UEAA_JPEAUHWND__@@GG@Z 0000000140140a30 f   SetPgSizePos.obj
 0001:0013fab0       ?OnPostLocalize@CSetPgSizePos@@UEAAXPEAUHWND__@@@Z 0000000140140ab0 f   SetPgSizePos.obj
 0001:0013fd40       ?OnEditChanged@CSetPgSizePos@@UEAA_JPEAUHWND__@@G@Z 0000000140140d40 f   SetPgSizePos.obj
 0001:00140080       ?GetPageType@CSetPgStartup@@UEAA?AW4TabHwndIndex@@XZ 0000000140141080 f i SetPgStartup.obj
 0001:00140090       ??_GCSetPgStartup@@UEAAPEAXI@Z 0000000140141090 f i SetPgStartup.obj
 0001:00140090       ??_ECSetPgStartup@@UEAAPEAXI@Z 0000000140141090 f i * CIL library *:* CIL module *
 0001:001400d0       ?OnInitDialog@CSetPgStartup@@UEAA_JPEAUHWND__@@_N@Z 00000001401410d0 f   SetPgStartup.obj
 0001:00140100       ?PageDlgProc@CSetPgStartup@@UEAA_JPEAUHWND__@@I_K_J@Z 0000000140141100 f   SetPgStartup.obj
 0001:001409a0       ?GetPageType@CSetPgStatus@@UEAA?AW4TabHwndIndex@@XZ 00000001401419a0 f i SetPgStatus.obj
 0001:001409b0       ??_ECSetPgStatus@@UEAAPEAXI@Z 00000001401419b0 f i * CIL library *:* CIL module *
 0001:001409b0       ??_GCSetPgStatus@@UEAAPEAXI@Z 00000001401419b0 f i SetPgStatus.obj
 0001:001409f0       ?OnInitDialog@CSetPgStatus@@UEAA_JPEAUHWND__@@_N@Z 00000001401419f0 f   SetPgStatus.obj
 0001:00140ce0       ?UpdateStatusItems@CSetPgStatus@@QEAAXPEAUHWND__@@@Z 0000000140141ce0 f   SetPgStatus.obj
 0001:00140e80       ?OnComboBox@CSetPgStatus@@UEAA_JPEAUHWND__@@GG@Z 0000000140141e80 f   SetPgStatus.obj
 0001:00140ff0       ?OnEditChanged@CSetPgStatus@@UEAA_JPEAUHWND__@@G@Z 0000000140141ff0 f   SetPgStatus.obj
 0001:001410f0       ?GetPageType@CSetPgTabs@@UEAA?AW4TabHwndIndex@@XZ 00000001401420f0 f i SetPgTabs.obj
 0001:00141100       ??_GCSetPgTabs@@UEAAPEAXI@Z 0000000140142100 f i SetPgTabs.obj
 0001:00141100       ??_ECSetPgTabs@@UEAAPEAXI@Z 0000000140142100 f i * CIL library *:* CIL module *
 0001:00141140       ?OnInitDialog@CSetPgTabs@@UEAA_JPEAUHWND__@@_N@Z 0000000140142140 f   SetPgTabs.obj
 0001:00141710       ?OnComboBox@CSetPgTabs@@UEAA_JPEAUHWND__@@GG@Z 0000000140142710 f   SetPgTabs.obj
 0001:00141960       ?OnEditChanged@CSetPgTabs@@UEAA_JPEAUHWND__@@G@Z 0000000140142960 f   SetPgTabs.obj
 0001:00141c80       ?GetPageType@CSetPgTaskbar@@UEAA?AW4TabHwndIndex@@XZ 0000000140142c80 f i SetPgTaskbar.obj
 0001:00141c90       ??_GCSetPgTaskbar@@UEAAPEAXI@Z 0000000140142c90 f i SetPgTaskbar.obj
 0001:00141c90       ??_ECSetPgTaskbar@@UEAAPEAXI@Z 0000000140142c90 f i * CIL library *:* CIL module *
 0001:00141cd0       ?OnInitDialog@CSetPgTaskbar@@UEAA_JPEAUHWND__@@_N@Z 0000000140142cd0 f   SetPgTaskbar.obj
 0001:001421f0       ?GetPageType@CSetPgTasks@@UEAA?AW4TabHwndIndex@@XZ 00000001401431f0 f i SetPgTasks.obj
 0001:00142200       ??_GCSetPgTasks@@UEAAPEAXI@Z 0000000140143200 f i SetPgTasks.obj
 0001:00142200       ??_ECSetPgTasks@@UEAAPEAXI@Z 0000000140143200 f i * CIL library *:* CIL module *
 0001:00142240       ?OnInitDialog@CSetPgTasks@@UEAA_JPEAUHWND__@@_N@Z 0000000140143240 f   SetPgTasks.obj
 0001:00142790       ?OnEditChanged@CSetPgTasks@@UEAA_JPEAUHWND__@@G@Z 0000000140143790 f   SetPgTasks.obj
 0001:00142a30       ?OnComboBox@CSetPgTasks@@UEAA_JPEAUHWND__@@GG@Z 0000000140143a30 f   SetPgTasks.obj
 0001:00142d30       ?SelectNextItem@CSetPgTasks@@UEAA_N_N0@Z 0000000140143d30 f   SetPgTasks.obj
 0001:00142de0       ?GetPageType@CSetPgTransparent@@UEAA?AW4TabHwndIndex@@XZ 0000000140143de0 f i SetPgTransparent.obj
 0001:00142df0       ??_GCSetPgTransparent@@UEAAPEAXI@Z 0000000140143df0 f i SetPgTransparent.obj
 0001:00142df0       ??_ECSetPgTransparent@@UEAAPEAXI@Z 0000000140143df0 f i * CIL library *:* CIL module *
 0001:00142e30       ?OnInitDialog@CSetPgTransparent@@UEAA_JPEAUHWND__@@_N@Z 0000000140143e30 f   SetPgTransparent.obj
 0001:00143010       ?GetPageType@CSetPgUpdate@@UEAA?AW4TabHwndIndex@@XZ 0000000140144010 f i SetPgUpdate.obj
 0001:00143020       ??_GCSetPgUpdate@@UEAAPEAXI@Z 0000000140144020 f i SetPgUpdate.obj
 0001:00143020       ??_ECSetPgUpdate@@UEAAPEAXI@Z 0000000140144020 f i * CIL library *:* CIL module *
 0001:00143060       ?OnInitDialog@CSetPgUpdate@@UEAA_JPEAUHWND__@@_N@Z 0000000140144060 f   SetPgUpdate.obj
 0001:001434c0       ?OnEditChanged@CSetPgUpdate@@UEAA_JPEAUHWND__@@G@Z 00000001401444c0 f   SetPgUpdate.obj
 0001:00143600       ?GetPageType@CSetPgViews@@UEAA?AW4TabHwndIndex@@XZ 0000000140144600 f i SetPgViews.obj
 0001:00143610       ??_GCSetPgViews@@UEAAPEAXI@Z 0000000140144610 f i SetPgViews.obj
 0001:00143610       ??_ECSetPgViews@@UEAAPEAXI@Z 0000000140144610 f i * CIL library *:* CIL module *
 0001:00143650       ?OnInitDialog@CSetPgViews@@UEAA_JPEAUHWND__@@_N@Z 0000000140144650 f   SetPgViews.obj
 0001:00143f00       ?OnComboBox@CSetPgViews@@UEAA_JPEAUHWND__@@GG@Z 0000000140144f00 f   SetPgViews.obj
 0001:00144220       ?OnEditChanged@CSetPgViews@@UEAA_JPEAUHWND__@@G@Z 0000000140145220 f   SetPgViews.obj
 0001:001444c0       ??0CStatus@@QEAA@XZ        00000001401454c0 f   Status.obj
 0001:001448a0       ??_GCStatus@@UEAAPEAXI@Z   00000001401458a0 f i Status.obj
 0001:001448a0       ??_ECStatus@@UEAAPEAXI@Z   00000001401458a0 f i * CIL library *:* CIL module *
 0001:00144910       ?LoadActiveProcess@CStatus@@AEAA_NPEAVCRealConsole@@PEA_WH@Z 0000000140145910 f   Status.obj
 0001:00144a30       ?PaintStatus@CStatus@@QEAAXPEAUHDC__@@PEAUtagRECT@@@Z 0000000140145a30 f   Status.obj
 0001:00146200       ?SetStatus@CStatus@@QEAAXPEB_W@Z 0000000140147200 f   Status.obj
 0001:00146360       ?UpdateStatusBar@CStatus@@QEAAX_N0@Z 0000000140147360 f   Status.obj
 0001:00146420       ?InvalidateStatusBar@CStatus@@QEAAXPEAUtagRECT@@@Z 0000000140147420 f   Status.obj
 0001:001464f0       ?OnTimer@CStatus@@QEAAXXZ  00000001401474f0 f   Status.obj
 0001:00146880       ?SetClickedItemDesc@CStatus@@AEAAXW4CEStatusItems@@@Z 0000000140147880 f   Status.obj
 0001:00146910       ?IsResizeAllowed@CStatus@@QEAA_NXZ 0000000140147910 f   Status.obj
 0001:00146970       ?DoStatusResize@CStatus@@AEAAXAEBUtagPOINT@@@Z 0000000140147970 f   Status.obj
 0001:00146a90       ?ProcessStatusMessage@CStatus@@QEAA_NPEAUHWND__@@I_K_JUtagPOINT@@AEA_J@Z 0000000140147a90 f   Status.obj
 0001:001472d0       ?ShowStatusSetupMenu@CStatus@@AEAAXXZ 00000001401482d0 f   Status.obj
 0001:00147940       ?OnDataChanged@CStatus@@AEAA_NPEAW4CEStatusItems@@_K_N@Z 0000000140148940 f   Status.obj
 0001:00147a50       ?OnWindowReposition@CStatus@@QEAAXPEBUtagRECT@@@Z 0000000140148a50 f   Status.obj
 0001:00147f10       ?OnConsoleChanged@CStatus@@QEAAXPEBU_CONSOLE_SCREEN_BUFFER_INFO@@PEBU_CONSOLE_CURSOR_INFO@@PEBUTOPLEFTCOORD@@_N@Z 0000000140148f10 f   Status.obj
 0001:001484f0       ?OnCursorChanged@CStatus@@QEAAXPEBU_COORD@@PEBU_CONSOLE_CURSOR_INFO@@HH@Z 00000001401494f0 f   Status.obj
 0001:001489a0       ?OnConsoleBufferChanged@CStatus@@QEAAXPEAVCRealConsole@@@Z 00000001401499a0 f   Status.obj
 0001:00148bd0       ?OnActiveVConChanged@CStatus@@QEAAXHPEAVCRealConsole@@@Z 0000000140149bd0 f   Status.obj
 0001:00148f50       ?OnServerChanged@CStatus@@QEAAXKK@Z 0000000140149f50 f   Status.obj
 0001:001491c0       ?IsTimeChanged@CStatus@@AEAA_NXZ 000000014014a1c0 f   Status.obj
 0001:00149290       ?IsKeyboardChanged@CStatus@@AEAA_NXZ 000000014014a290 f   Status.obj
 0001:001493d0       ?IsWindowChanged@CStatus@@AEAA_NXZ 000000014014a3d0 f   Status.obj
 0001:00149580       ?OnKeyboardChanged@CStatus@@QEAAXXZ 000000014014a580 f   Status.obj
 0001:001495f0       ?OnTransparency@CStatus@@QEAAXXZ 000000014014a5f0 f   Status.obj
 0001:001497a0       ?ProcessMenuHighlight@CStatus@@QEAAXPEAUHMENU__@@GG@Z 000000014014a7a0 f   Status.obj
 0001:00149930       ?ProcessTransparentMenuId@CStatus@@AEAA_NG_N@Z 000000014014a930 f   Status.obj
 0001:00149a70       ?ProcessTermModeMenuId@CStatus@@AEAA_NG@Z 000000014014aa70 f   Status.obj
 0001:00149b80       ?ShowTransparencyMenu@CStatus@@AEAAXUtagPOINT@@@Z 000000014014ab80 f   Status.obj
 0001:00149ca0       ?ShowZoomMenu@CStatus@@AEAAXUtagPOINT@@@Z 000000014014aca0 f   Status.obj
 0001:00149d90       ?GetStatusBarItemRect@CStatus@@QEAA_NW4CEStatusItems@@PEAUtagRECT@@@Z 000000014014ad90 f   Status.obj
 0001:00149e40       ?CreateStatusMenu@CStatus@@IEAAPEAUHMENU__@@PEAUStatusMenuOptions@1@_K@Z 000000014014ae40 f   Status.obj
 0001:00149f80       ?Transparent_IsMenuChecked@CStatus@@SAHHPEAH@Z 000000014014af80 f   Status.obj
 0001:0014a050       ?Zoom_IsMenuChecked@CStatus@@SAHHPEAH@Z 000000014014b050 f   Status.obj
 0001:0014a0d0       ?TermMode_IsMenuChecked@CStatus@@SAHHPEAH@Z 000000014014b0d0 f   Status.obj
 0001:0014a1f0       ?ShowStatusBarMenu@CStatus@@IEAAHUtagPOINT@@PEAUHMENU__@@W4CEStatusItems@@@Z 000000014014b1f0 f   Status.obj
 0001:0014a320       ??0CTabBarClass@@QEAA@XZ   000000014014b320 f   TabBar.obj
 0001:0014a440       ??_GCTabBarClass@@UEAAPEAXI@Z 000000014014b440 f i TabBar.obj
 0001:0014a440       ??_ECTabBarClass@@UEAAPEAXI@Z 000000014014b440 f i * CIL library *:* CIL module *
 0001:0014a480       ??1CTabBarClass@@UEAA@XZ   000000014014b480 f   TabBar.obj
 0001:0014a6e0       ?SelectTab@CTabBarClass@@AEAAXH@Z 000000014014b6e0 f   TabBar.obj
 0001:0014a870       ?GetCurSel@CTabBarClass@@QEAAHXZ 000000014014b870 f   TabBar.obj
 0001:0014a920       ?GetItemCount@CTabBarClass@@AEAAHXZ 000000014014b920 f   TabBar.obj
 0001:0014a9b0       ?CountActiveTabs@CTabBarClass@@AEAAHH@Z 000000014014b9b0 f   TabBar.obj
 0001:0014ac10       ?DeleteItem@CTabBarClass@@AEAAXH@Z 000000014014bc10 f   TabBar.obj
 0001:0014acc0       ?RequestPostUpdate@CTabBarClass@@AEAAXXZ 000000014014bcc0 f   TabBar.obj
 0001:0014ad50       ?GetVConFromTab@CTabBarClass@@QEAA_NHPEAVCVConGuard@@PEAK@Z 000000014014bd50 f   TabBar.obj
 0001:0014af40       ?HighlightTab@CTabBarClass@@QEAAXPEBVCTabID@@_N@Z 000000014014bf40 f   TabBar.obj
 0001:0014b120       ?GetFirstLastVConTab@CTabBarClass@@IEAAHPEAVCVirtualConsole@@_NH@Z 000000014014c120 f   TabBar.obj
 0001:0014b210       ?IsTabsShown@CTabBarClass@@QEAA_NXZ 000000014014c210 f   TabBar.obj
 0001:0014b270       ?Activate@CTabBarClass@@QEAAXH@Z 000000014014c270 f   TabBar.obj
 0001:0014b2d0       ?ActivateSearchPane@CTabBarClass@@QEAAPEAUHWND__@@_N@Z 000000014014c2d0 f   TabBar.obj
 0001:0014b330       ?Recreate@CTabBarClass@@QEAAXXZ 000000014014c330 f   TabBar.obj
 0001:0014b8c0       ?CheckRebarCreated@CTabBarClass@@QEAAXXZ 000000014014c8c0 f   TabBar.obj
 0001:0014b9a0       ?UpdateAddTab@CTabBarClass@@AEAAHPEAXAEAH1AEA_NPEAVCVirtualConsole@@K@Z 000000014014c9a0 f   TabBar.obj
 0001:0014bd20       ?Update@CTabBarClass@@QEAAXH@Z 000000014014cd20 f   TabBar.obj
 0001:0014c6f0       ?UpdatePosition@CTabBarClass@@QEAAXXZ 000000014014d6f0 f   TabBar.obj
 0001:0014c7c0       ?OnNotify@CTabBarClass@@QEAA_NPEAUtagNMHDR@@AEA_J@Z 000000014014d7c0 f   TabBar.obj
 0001:0014cc70       ?OnCommand@CTabBarClass@@QEAAX_K_J@Z 000000014014dc70 f   TabBar.obj
 0001:0014d280       ?OnCaptionHidden@CTabBarClass@@QEAAXXZ 000000014014e280 f   TabBar.obj
 0001:0014d300       ?OnConsoleActivated@CTabBarClass@@QEAAXH@Z 000000014014e300 f   TabBar.obj
 0001:0014d360       ?OnBufferHeight@CTabBarClass@@QEAAXH@Z 000000014014e360 f   TabBar.obj
 0001:0014d420       ?OnAlternative@CTabBarClass@@QEAAXH@Z 000000014014e420 f   TabBar.obj
 0001:0014d4e0       ?GetTabbarHeight@CTabBarClass@@QEAAHXZ 000000014014e4e0 f   TabBar.obj
 0001:0014d520       ?PrepareTab@CTabBarClass@@AEAAHAEAVCTab@@PEAVCVirtualConsole@@@Z 000000014014e520 f   TabBar.obj
 0001:0014e1e0       ?GetNextTab@CTabBarClass@@AEAAH_N0@Z 000000014014f1e0 f   TabBar.obj
 0001:0014e590       ?Switch@CTabBarClass@@QEAAX_N0@Z 000000014014f590 f   TabBar.obj
 0001:0014e650       ?SwitchCommit@CTabBarClass@@QEAAXXZ 000000014014f650 f   TabBar.obj
 0001:0014eda0       ?SwitchRollback@CTabBarClass@@QEAAXXZ 000000014014fda0 f   TabBar.obj
 0001:0014f2e0       ?CheckStack@CTabBarClass@@IEAA_NXZ 00000001401502e0 f   TabBar.obj
 0001:0014f590       ?AddStack@CTabBarClass@@IEAA_NAEAVCTab@@@Z 0000000140150590 f   TabBar.obj
 0001:0014f660       ?CanActivateTab@CTabBarClass@@AEAA_NH@Z 0000000140150660 f   TabBar.obj
 0001:0014f750       ?OnKeyboard@CTabBarClass@@QEAA_NI_K_J@Z 0000000140150750 f   TabBar.obj
 0001:0014f840       ?OnChooseTabPopup@CTabBarClass@@QEAAXXZ 0000000140150840 f   TabBar.obj
 0001:0014f8b0       ?ActiveTabByName@CTabBarClass@@QEAAHHPEB_WPEAVCVConGuard@@@Z 00000001401508b0 f   TabBar.obj
 0001:0014fbd0       ?GetTabFromPoint@CTabBarClass@@QEAAHPEAUtagPOINT@@_N1@Z 0000000140150bd0 f   TabBar.obj
 0001:0014fc50       ?Set@?$MMap@PEAUHWND__@@PEAVCVirtualConsole@@$0A@@@QEAA_NAEBQEAUHWND__@@AEBQEAVCVirtualConsole@@@Z 0000000140150c50 f i VConChild.obj
 0001:0014fc50       ?Set@?$MMap@PEAVCVConGroup@@PEAVCVirtualConsole@@$0A@@@QEAA_NAEBQEAVCVConGroup@@AEBQEAVCVirtualConsole@@@Z 0000000140150c50 f i TabBar.obj
 0001:0014fd90       ?Get@?$MMap@PEAVCVConGroup@@PEAVCVirtualConsole@@$0A@@@QEAA_NAEBQEAVCVConGroup@@PEAPEAVCVirtualConsole@@_N@Z 0000000140150d90 f i TabBar.obj
 0001:0014fe00       ?Release@?$MMap@PEAVCVConGroup@@PEAVCVirtualConsole@@$0A@@@QEAAXXZ 0000000140150e00 f i TabBar.obj
 0001:0014fea0       ?Init@?$MMap@PEAVCVConGroup@@PEAVCVirtualConsole@@$0A@@@QEAA_N_K_N@Z 0000000140150ea0 f i TabBar.obj
 0001:0014ff00       ??1?$MMap@PEAVCVConGroup@@PEAVCVirtualConsole@@$0A@@@QEAA@XZ 0000000140150f00 f i TabBar.obj
 0001:0014ff20       ?insert@?$MArray@PEAVCTabID@@@@QEAAX_JAEBQEAVCTabID@@@Z 0000000140150f20 f i TabBar.obj
 0001:0014ffd0       ??0CTabPanelBase@@QEAA@PEAVCTabBarClass@@@Z 0000000140150fd0 f   TabCtrlBase.obj
 0001:00150070       ??_ECTabPanelBase@@UEAAPEAXI@Z 0000000140151070 f i * CIL library *:* CIL module *
 0001:00150070       ??_GCTabPanelBase@@UEAAPEAXI@Z 0000000140151070 f i TabCtrlBase.obj
 0001:001500d0       ?UpdateTabFontInt@CTabPanelBase@@QEAAXXZ 00000001401510d0 f   TabCtrlBase.obj
 0001:001502d0       ?ShowTabErrorInt@CTabPanelBase@@QEAAXPEB_WH@Z 00000001401512d0 f   TabCtrlBase.obj
 0001:00150410       ?OnTimerInt@CTabPanelBase@@UEAA_N_K@Z 0000000140151410 f   TabCtrlBase.obj
 0001:00150470       ?InitTooltips@CTabPanelBase@@IEAAXPEAUHWND__@@@Z 0000000140151470 f   TabCtrlBase.obj
 0001:00150650       ?FarSendChangeTab@CTabPanelBase@@QEAA_NHPEAVCVConGuard@@@Z 0000000140151650 f   TabCtrlBase.obj
 0001:00151060       ?OnMouseRebar@CTabPanelBase@@QEAA_JIHH@Z 0000000140152060 f   TabCtrlBase.obj
 0001:001512c0       ?DoTabDrag@CTabPanelBase@@IEAAXI@Z 00000001401522c0 f   TabCtrlBase.obj
 0001:00151a30       ?EndTabDrag@CTabPanelBase@@IEAAXXZ 0000000140152a30 f   TabCtrlBase.obj
 0001:00151a70       ?OnMouseTabbar@CTabPanelBase@@QEAA_JIHHH@Z 0000000140152a70 f   TabCtrlBase.obj
 0001:001521b0       ?OnMouseToolbar@CTabPanelBase@@QEAA_JIHHH@Z 00000001401531b0 f   TabCtrlBase.obj
 0001:00152350       ?OnSetCursorRebar@CTabPanelBase@@QEAA_NXZ 0000000140153350 f   TabCtrlBase.obj
 0001:00152400       ??0CTabPanelWin@@QEAA@PEAVCTabBarClass@@@Z 0000000140153400 f   TabCtrlWin.obj
 0001:001524d0       ??_ECTabPanelWin@@UEAAPEAXI@Z 00000001401534d0 f i * CIL library *:* CIL module *
 0001:001524d0       ??_GCTabPanelWin@@UEAAPEAXI@Z 00000001401534d0 f i TabCtrlWin.obj
 0001:00152510       ??1CTabPanelWin@@UEAA@XZ   0000000140153510 f   TabCtrlWin.obj
 0001:001525c0       ?_ReBarProc@CTabPanelWin@@CA_JPEAUHWND__@@I_K_J@Z 00000001401535c0 f   TabCtrlWin.obj
 0001:00152690       ?ReBarProc@CTabPanelWin@@AEAA_JPEAUHWND__@@I_K_JP6A_J0I12@Z@Z 0000000140153690 f   TabCtrlWin.obj
 0001:00152810       ?_TabProc@CTabPanelWin@@CA_JPEAUHWND__@@I_K_J@Z 0000000140153810 f   TabCtrlWin.obj
 0001:001528e0       ?TabProc@CTabPanelWin@@AEAA_JPEAUHWND__@@I_K_JP6A_J0I12@Z@Z 00000001401538e0 f   TabCtrlWin.obj
 0001:00152a90       ?_ToolProc@CTabPanelWin@@CA_JPEAUHWND__@@I_K_J@Z 0000000140153a90 f   TabCtrlWin.obj
 0001:00152b60       ?ToolProc@CTabPanelWin@@AEAA_JPEAUHWND__@@I_K_JP6A_J0I12@Z@Z 0000000140153b60 f   TabCtrlWin.obj
 0001:00152d90       ?IsSearchShownInt@CTabPanelWin@@UEAA_N_N@Z 0000000140153d90 f   TabCtrlWin.obj
 0001:00152e20       ?ActivateSearchPaneInt@CTabPanelWin@@UEAAPEAUHWND__@@_N@Z 0000000140153e20 f   TabCtrlWin.obj
 0001:00152ec0       ?CreateRebar@CTabPanelWin@@UEAAXXZ 0000000140153ec0 f   TabCtrlWin.obj
 0001:00153120       ?DestroyRebar@CTabPanelWin@@UEAAXXZ 0000000140154120 f   TabCtrlWin.obj
 0001:001531f0       ?CreateTabbar@CTabPanelWin@@AEAAPEAUHWND__@@XZ 00000001401541f0 f   TabCtrlWin.obj
 0001:00153490       ?CreateToolbar@CTabPanelWin@@AEAAPEAUHWND__@@XZ 0000000140154490 f   TabCtrlWin.obj
 0001:00153a10       ?GetRebarClientRect@CTabPanelWin@@UEAA_NPEAUtagRECT@@@Z 0000000140154a10 f   TabCtrlWin.obj
 0001:00153ab0       ?IsCreated@CTabPanelWin@@UEAA_NXZ 0000000140154ab0 f   TabCtrlWin.obj
 0001:00153ad0       ?IsTabbarCreated@CTabPanelWin@@UEAA_NXZ 0000000140154ad0 f   TabCtrlWin.obj
 0001:00153af0       ?IsToolbarCreated@CTabPanelWin@@UEAA_NXZ 0000000140154af0 f   TabCtrlWin.obj
 0001:00153b10       ?SetTabbarFont@CTabPanelWin@@UEAAXPEAUHFONT__@@@Z 0000000140154b10 f   TabCtrlWin.obj
 0001:00153b80       ?GetTabRect@CTabPanelWin@@UEAA_NHPEAUtagRECT@@@Z 0000000140154b80 f   TabCtrlWin.obj
 0001:00153cc0       ?GetTabText@CTabPanelWin@@UEAA_NHPEA_WH@Z 0000000140154cc0 f   TabCtrlWin.obj
 0001:00153d30       ?GetTabFromPoint@CTabPanelWin@@UEAAHUtagPOINT@@_N1@Z 0000000140154d30 f   TabCtrlWin.obj
 0001:00153eb0       ?GetToolBtnRect@CTabPanelWin@@UEAA_NHPEAUtagRECT@@@Z 0000000140154eb0 f   TabCtrlWin.obj
 0001:00153f60       ?AddTabInt@CTabPanelWin@@UEAAXPEB_WHIH@Z 0000000140154f60 f   TabCtrlWin.obj
 0001:00154190       ?SelectTabInt@CTabPanelWin@@UEAAHH@Z 0000000140155190 f   TabCtrlWin.obj
 0001:001542f0       ?GetCurSelInt@CTabPanelWin@@UEAAHXZ 00000001401552f0 f   TabCtrlWin.obj
 0001:00154320       ?GetItemCountInt@CTabPanelWin@@UEAAHXZ 0000000140155320 f   TabCtrlWin.obj
 0001:00154340       ?DeleteItemInt@CTabPanelWin@@UEAAXH@Z 0000000140155340 f   TabCtrlWin.obj
 0001:00154360       ?ShowBar@CTabPanelWin@@UEAAX_N@Z 0000000140155360 f   TabCtrlWin.obj
 0001:001543d0       ?RepositionInt@CTabPanelWin@@UEAAXXZ 00000001401553d0 f   TabCtrlWin.obj
 0001:001547b0       ?UpdateToolbarPos@CTabPanelWin@@AEAAXXZ 00000001401557b0 f   TabCtrlWin.obj
 0001:001548f0       ?OnNotifyInt@CTabPanelWin@@UEAA_NPEAUtagNMHDR@@AEA_J@Z 00000001401558f0 f   TabCtrlWin.obj
 0001:001552c0       ?GetToolBtnChecked@CTabPanelWin@@UEAA_NW4ToolbarCommandIdx@@@Z 00000001401562c0 f   TabCtrlWin.obj
 0001:001552f0       ?IsTabbarNotify@CTabPanelWin@@UEAA_NPEAUtagNMHDR@@@Z 00000001401562f0 f   TabCtrlWin.obj
 0001:00155310       ?IsToolbarNotify@CTabPanelWin@@UEAA_NPEAUtagNMHDR@@@Z 0000000140156310 f   TabCtrlWin.obj
 0001:00155330       ?IsToolbarCommand@CTabPanelWin@@UEAA_N_K_J@Z 0000000140156330 f   TabCtrlWin.obj
 0001:00155350       ?SetToolBtnChecked@CTabPanelWin@@UEAAXW4ToolbarCommandIdx@@_N@Z 0000000140156350 f   TabCtrlWin.obj
 0001:00155370       ?OnCaptionHiddenChanged@CTabPanelWin@@UEAAX_N@Z 0000000140156370 f   TabCtrlWin.obj
 0001:00155480       ?OnWindowStateChanged@CTabPanelWin@@UEAAXW4ConEmuWindowMode@@@Z 0000000140156480 f   TabCtrlWin.obj
 0001:001554f0       ?OnConsoleActivatedInt@CTabPanelWin@@UEAAXH@Z 00000001401564f0 f   TabCtrlWin.obj
 0001:00155620       ?ShowTabsPane@CTabPanelWin@@UEAAX_N@Z 0000000140156620 f   TabCtrlWin.obj
 0001:00155760       ?ShowSearchPane@CTabPanelWin@@UEAA_N_N0@Z 0000000140156760 f   TabCtrlWin.obj
 0001:001559f0       ?ShowToolsPane@CTabPanelWin@@UEAAX_N@Z 00000001401569f0 f   TabCtrlWin.obj
 0001:00155bb0       ?QueryTabbarHeight@CTabPanelWin@@UEAAHXZ 0000000140156bb0 f   TabCtrlWin.obj
 0001:00155d30       ?InvalidateBar@CTabPanelWin@@UEAAXXZ 0000000140156d30 f   TabCtrlWin.obj
 0001:00155d50       ?RePaintInt@CTabPanelWin@@UEAAXXZ 0000000140156d50 f   TabCtrlWin.obj
 0001:00155e40       ?TabHitTest@CTabPanelWin@@AEAA_J_NPEAH@Z 0000000140156e40 f   TabCtrlWin.obj
 0001:00155f10       ?GetTabBarClientRect@CTabPanelWin@@UEAA_NPEAUtagRECT@@@Z 0000000140156f10 f   TabCtrlWin.obj
 0001:00155f40       ?HighlightTab@CTabPanelWin@@UEAAXH_N@Z 0000000140156f40 f   TabCtrlWin.obj
 0001:00155f80       ??$SafeDelete@VCFindPanel@@@@YAXAEAPEAVCFindPanel@@@Z 0000000140156f80 f i TabCtrlWin.obj
 0001:00155fe0       ??0CTabID@@QEAA@PEAVCVirtualConsole@@PEB_WIHHH@Z 0000000140156fe0 f   TabID.obj
 0001:001560f0       ??_ECTabID@@MEAAPEAXI@Z    00000001401570f0 f i * CIL library *:* CIL module *
 0001:001560f0       ??_GCTabID@@MEAAPEAXI@Z    00000001401570f0 f i TabID.obj
 0001:00156170       ?SetName@CTabID@@QEAA_NPEB_W@Z 0000000140157170 f   TabID.obj
 0001:00156260       ?Set@CTabID@@QEAA_NPEB_WIHHHI@Z 0000000140157260 f   TabID.obj
 0001:00156320       ?IsEqual@CTabID@@QEAA_NPEAVCVirtualConsole@@PEB_WIHHI@Z 0000000140157320 f   TabID.obj
 0001:001563c0       ??1CTab@@QEAA@XZ           00000001401573c0 f   TabID.obj
 0001:00156410       ?Init@CTab@@QEAAXPEAVCTabID@@@Z 0000000140157410 f   TabID.obj
 0001:00156470       ??0CTabStack@@QEAA@XZ      0000000140157470 f   TabID.obj
 0001:001565a0       ??1CTabStack@@QEAA@XZ      00000001401575a0 f   TabID.obj
 0001:00156620       ?RequestSize@CTabStack@@IEAAXHPEAUMSectionLockSimple@@@Z 0000000140157620 f   TabID.obj
 0001:00156790       ?GetTabByIndex@CTabStack@@QEAA_NHAEAVCTab@@@Z 0000000140157790 f   TabID.obj
 0001:001568f0       ?GetIndexByTab@CTabStack@@QEAAHPEBVCTabID@@@Z 00000001401578f0 f   TabID.obj
 0001:001569b0       ?LockTabs@CTabStack@@QEAAXPEAUMSectionLockSimple@@@Z 00000001401579b0 f   TabID.obj
 0001:00156a30       ?UpdateBegin@CTabStack@@QEAAPEAXXZ 0000000140157a30 f   TabID.obj
 0001:00156a80       ?UpdateFarWindow@CTabStack@@QEAA_NPEAXPEAVCVirtualConsole@@PEB_WIHHHAEAVCTab@@@Z 0000000140157a80 f   TabID.obj
 0001:00156ca0       ?UpdateAppend@CTabStack@@QEAAXPEAXPEAVCTabID@@H@Z 0000000140157ca0 f   TabID.obj
 0001:00156d70       ?UpdateEnd@CTabStack@@QEAA_NPEAXK@Z 0000000140157d70 f   TabID.obj
 0001:00156fe0       ?CleanNulls@CTabStack@@IEAAXXZ 0000000140157fe0 f   TabID.obj
 0001:00157090       ?ReleaseTabs@CTabStack@@QEAAXH@Z 0000000140158090 f   TabID.obj
 0001:00157190       ?RefreshFarStatus@CTabStack@@QEAA_NKAEAVCTab@@AEAH1AEA_N@Z 0000000140158190 f   TabID.obj
 0001:00157440       ??_ECTaskBar@@UEAAPEAXI@Z  0000000140158440 f i * CIL library *:* CIL module *
 0001:00157440       ??_GCTaskBar@@UEAAPEAXI@Z  0000000140158440 f i TaskBar.obj
 0001:001574b0       ??1CTaskBar@@UEAA@XZ       00000001401584b0 f   TaskBar.obj
 0001:001574f0       ?Taskbar_Init@CTaskBar@@QEAAXXZ 00000001401584f0 f   TaskBar.obj
 0001:00157620       ?Taskbar_Release@CTaskBar@@QEAAXXZ 0000000140158620 f   TaskBar.obj
 0001:00157690       ?Taskbar_SetActiveTab@CTaskBar@@QEAAJPEAUHWND__@@@Z 0000000140158690 f   TaskBar.obj
 0001:00157700       ?Taskbar_GhostAppend@CTaskBar@@IEAAXPEAX@Z 0000000140158700 f   TaskBar.obj
 0001:00157790       ?Taskbar_GhostRemove@CTaskBar@@IEAAXPEAX@Z 0000000140158790 f   TaskBar.obj
 0001:00157820       ?Taskbar_GhostReorder@CTaskBar@@QEAAXXZ 0000000140158820 f   TaskBar.obj
 0001:00157ac0       ?Taskbar_RegisterTab@CTaskBar@@QEAAJPEAUHWND__@@PEAXH@Z 0000000140158ac0 f   TaskBar.obj
 0001:00157b80       ?Taskbar_UnregisterTab@CTaskBar@@QEAAJPEAUHWND__@@PEAX@Z 0000000140158b80 f   TaskBar.obj
 0001:00157bf0       ?Taskbar_SetProgressValue@CTaskBar@@QEAAJH@Z 0000000140158bf0 f   TaskBar.obj
 0001:00157ca0       ?Taskbar_SetProgressState@CTaskBar@@QEAAJI@Z 0000000140158ca0 f   TaskBar.obj
 0001:00157d10       ?isTaskbarSmallIcons@CTaskBar@@QEAA_NXZ 0000000140158d10 f   TaskBar.obj
 0001:00157dd0       ?Taskbar_SetOverlay@CTaskBar@@QEAAXPEAUHICON__@@@Z 0000000140158dd0 f   TaskBar.obj
 0001:00157ed0       ?Taskbar_UpdateOverlay@CTaskBar@@QEAAXXZ 0000000140158ed0 f   TaskBar.obj
 0001:001580b0       ?Taskbar_MarkFullscreenWindow@CTaskBar@@QEAAJPEAUHWND__@@H@Z 00000001401590b0 f   TaskBar.obj
 0001:00158640       ??0CTaskBarGhost@@QEAA@PEAVCVirtualConsole@@@Z 0000000140159640 f   TaskBarGhost.obj
 0001:00158700       ??_GCTaskBarGhost@@UEAAPEAXI@Z 0000000140159700 f i TaskBarGhost.obj
 0001:00158700       ??_ECTaskBarGhost@@UEAAPEAXI@Z 0000000140159700 f i * CIL library *:* CIL module *
 0001:00158740       ??1CTaskBarGhost@@UEAA@XZ  0000000140159740 f   TaskBarGhost.obj
 0001:001587e0       ?Create@CTaskBarGhost@@SAPEAV1@PEAVCVirtualConsole@@@Z 00000001401597e0 f   TaskBarGhost.obj
 0001:001589d0       ?UpdateGhostSize@CTaskBarGhost@@IEAAXXZ 00000001401599d0 f   TaskBarGhost.obj
 0001:00158b30       ?UpdateTabSnapshot@CTaskBarGhost@@QEAAHHH@Z 0000000140159b30 f   TaskBarGhost.obj
 0001:00158bf0       ?CreateTabSnapshot@CTaskBarGhost@@QEAAHXZ 0000000140159bf0 f   TaskBarGhost.obj
 0001:00159000       ?NeedSnapshotCache@CTaskBarGhost@@QEAA_NXZ 000000014015a000 f   TaskBarGhost.obj
 0001:00159100       ?CreateThumbnail@CTaskBarGhost@@IEAAPEAUHBITMAP__@@HH@Z 000000014015a100 f   TaskBarGhost.obj
 0001:001594e0       ?CheckTitle@CTaskBarGhost@@QEAAPEB_WH@Z 000000014015a4e0 f   TaskBarGhost.obj
 0001:001595c0       ?GhostStatic@CTaskBarGhost@@KA_JPEAUHWND__@@I_K_J@Z 000000014015a5c0 f   TaskBarGhost.obj
 0001:001596f0       ?OnCreate@CTaskBarGhost@@IEAA_JXZ 000000014015a6f0 f   TaskBarGhost.obj
 0001:001598b0       ?OnTimer@CTaskBarGhost@@IEAA_J_K@Z 000000014015a8b0 f   TaskBarGhost.obj
 0001:00159930       ?OnActivate@CTaskBarGhost@@IEAA_J_K_J@Z 000000014015a930 f   TaskBarGhost.obj
 0001:00159ba0       ?OnSysCommand@CTaskBarGhost@@IEAA_J_K_J@Z 000000014015aba0 f   TaskBarGhost.obj
 0001:00159ce0       ?OnDwmSendIconicThumbnail@CTaskBarGhost@@IEAA_JFF@Z 000000014015ace0 f   TaskBarGhost.obj
 0001:00159d40       ?GetPreviewPosSize@CTaskBarGhost@@IEAAXPEAUtagPOINT@@000@Z 000000014015ad40 f   TaskBarGhost.obj
 0001:00159eb0       ?OnDwmSendIconicLivePreviewBitmap@CTaskBarGhost@@IEAA_JXZ 000000014015aeb0 f   TaskBarGhost.obj
 0001:00159f90       ?GhostProc@CTaskBarGhost@@IEAA_JI_K_J@Z 000000014015af90 f   TaskBarGhost.obj
 0001:0015a180       ??_ECTaskSchedulerBase@@UEAAPEAXI@Z 000000014015b180 f i * CIL library *:* CIL module *
 0001:0015a180       ??_GCTaskSchedulerBase@@UEAAPEAXI@Z 000000014015b180 f i TaskScheduler.obj
 0001:0015a1c0       ??1CTaskSchedulerBase@@UEAA@XZ 000000014015b1c0 f   TaskScheduler.obj
 0001:0015a230       ?DisplaySchedulerError@CTaskSchedulerBase@@QEAAXPEB_W@Z 000000014015b230 f   TaskScheduler.obj
 0001:0015a5e0       ??_ECTaskScheduler2@@UEAAPEAXI@Z 000000014015b5e0 f i * CIL library *:* CIL module *
 0001:0015a5e0       ??_GCTaskScheduler2@@UEAAPEAXI@Z 000000014015b5e0 f i TaskScheduler.obj
 0001:0015a620       ??1CTaskScheduler2@@UEAA@XZ 000000014015b620 f   TaskScheduler.obj
 0001:0015a7a0       ?Create@CTaskScheduler2@@UEAAJ_NPEB_W111@Z 000000014015b7a0 f   TaskScheduler.obj
 0001:0015b4a0       ?Run@CTaskScheduler2@@UEAAJXZ 000000014015c4a0 f   TaskScheduler.obj
 0001:0015b920       ?GetState@CTaskScheduler2@@UEAA?AW4TaskSchedulerState@@XZ 000000014015c920 f   TaskScheduler.obj
 0001:0015bde0       ??_GCTaskScheduler1@@UEAAPEAXI@Z 000000014015cde0 f i TaskScheduler.obj
 0001:0015bde0       ??_ECTaskScheduler1@@UEAAPEAXI@Z 000000014015cde0 f i * CIL library *:* CIL module *
 0001:0015be20       ??1CTaskScheduler1@@UEAA@XZ 000000014015ce20 f   TaskScheduler.obj
 0001:0015bec0       ?Create@CTaskScheduler1@@UEAAJ_NPEB_W111@Z 000000014015cec0 f   TaskScheduler.obj
 0001:0015c6f0       ?Run@CTaskScheduler1@@UEAAJXZ 000000014015d6f0 f   TaskScheduler.obj
 0001:0015cb80       ?GetState@CTaskScheduler1@@UEAA?AW4TaskSchedulerState@@XZ 000000014015db80 f   TaskScheduler.obj
 0001:0015d140       ?CreateProcessScheduled@@YAH_NKPEA_WPEAU_SECURITY_ATTRIBUTES@@2HKPEAXPEB_WPEAU_STARTUPINFOW@@PEAU_PROCESS_INFORMATION@@PEAK@Z 000000014015e140 f   TaskScheduler.obj
 0001:0015d6f0       ??$SafeDelete@VMModule@@@@YAXAEAPEAVMModule@@@Z 000000014015e6f0 f i TaskScheduler.obj
 0001:0015d770       ?GetSubstitute@TermX@@QEAA_NAEBU_KEY_EVENT_RECORD@@AEAUCEStr@@@Z 000000014015e770 f   TermX.obj
 0001:0015df30       ?GetSubstitute@TermX@@QEAA_NAEBU_MOUSE_EVENT_RECORD@@W4TermMouseMode@@AEAUCEStr@@@Z 000000014015ef30 f   TermX.obj
 0001:0015e4c0       ?FreeDC@CToolImg@@IEAAXXZ  000000014015f4c0 f   ToolImg.obj
 0001:0015e540       ?FreeBMP@CToolImg@@IEAAXXZ 000000014015f540 f   ToolImg.obj
 0001:0015e5b0       ?CreateField@CToolImg@@IEAA_NHHK@Z 000000014015f5b0 f   ToolImg.obj
 0001:0015e710       ?CreateDonateButton@CToolImg@@SAPEAV1@XZ 000000014015f710 f   ToolImg.obj
 0001:0015e880       ?CreateSearchButton@CToolImg@@SAPEAV1@XZ 000000014015f880 f   ToolImg.obj
 0001:0015ea10       ?CreateButtonField@CToolImg@@IEAA_NPEB_WKPEAUButtonRowInfo@1@H_N@Z 000000014015fa10 f   ToolImg.obj
 0001:0015ec00       ?GetSizeForHeight@CToolImg@@QEAA_NHAEAH0@Z 000000014015fc00 f   ToolImg.obj
 0001:0015ecf0       ?PaintButton@CToolImg@@QEAA_NHPEAUHDC__@@HHHH@Z 000000014015fcf0 f   ToolImg.obj
 0001:0015f020       ?AddBitmap@CToolImg@@IEAAHPEAUHBITMAP__@@H@Z 0000000140160020 f   ToolImg.obj
 0001:0015f130       ?PaintBitmap@CToolImg@@IEAA_NPEAUHBITMAP__@@HHPEAUHDC__@@HHHH@Z 0000000140160130 f   ToolImg.obj
 0001:0015f230       ?AddButtonsMapped@CToolImg@@QEAAHPEAUHINSTANCE__@@_JHHKKZZ 0000000140160230 f   ToolImg.obj
 0001:0015f2b0       ?SettingsChanged@TrayIcon@@QEAAXXZ 00000001401602b0 f   TrayIcon.obj
 0001:0015f3c0       ?AddTrayIcon@TrayIcon@@QEAAXXZ 00000001401603c0 f   TrayIcon.obj
 0001:0015f430       ?UpdateTitle@TrayIcon@@QEAAXXZ 0000000140160430 f   TrayIcon.obj
 0001:0015f510       ?ShowTrayIcon@TrayIcon@@QEAAXPEB_WW4TrayIconMsgSource@@@Z 0000000140160510 f   TrayIcon.obj
 0001:0015f5a0       ?HideWindowToTray@TrayIcon@@QEAAXPEB_W@Z 00000001401605a0 f   TrayIcon.obj
 0001:0015f660       ?RestoreWindowFromTray@TrayIcon@@QEAAX_N0@Z 0000000140160660 f   TrayIcon.obj
 0001:0015f780       ?OnTryIcon@TrayIcon@@QEAA_JPEAUHWND__@@I_K_J@Z 0000000140160780 f   TrayIcon.obj
 0001:0015fac0       ?SetMenuItemText@TrayIcon@@AEAAXPEAUHMENU__@@IPEB_W@Z 0000000140160ac0 f   TrayIcon.obj
 0001:0015fb70       ?GetFormatted@CEDownloadInfo@@QEBAPEA_W_N@Z 0000000140160b70 f i Update.obj
 0001:0015fd50       ??0CConEmuUpdate@@QEAA@XZ  0000000140160d50 f   Update.obj
 0001:0015ff90       ??1CConEmuUpdate@@QEAA@XZ  0000000140160f90 f   Update.obj
 0001:00160400       ?StartCheckProcedure@CConEmuUpdate@@QEAAXI@Z 0000000140161400 f   Update.obj
 0001:00160870       ?RequestTerminate@CConEmuUpdate@@IEAAXXZ 0000000140161870 f   Update.obj
 0001:001608c0       ?StopChecking@CConEmuUpdate@@QEAAXXZ 00000001401618c0 f   Update.obj
 0001:00160a70       ?QueryConfirmationCallback@CConEmuUpdate@@KA_J_J@Z 0000000140161a70 f   Update.obj
 0001:00160aa0       ?CheckThreadProc@CConEmuUpdate@@KAKPEAX@Z 0000000140161aa0 f   Update.obj
 0001:00160af0       ?LocalUpdate@CConEmuUpdate@@SA_NPEB_W@Z 0000000140161af0 f   Update.obj
 0001:00160b40       ?IsUpdatePackage@CConEmuUpdate@@SA_NPEB_W@Z 0000000140161b40 f   Update.obj
 0001:00160cc0       ?StartLocalUpdate@CConEmuUpdate@@IEAA_NPEB_W@Z 0000000140161cc0 f   Update.obj
 0001:001612f0       ?GetVersionsFromIni@CConEmuUpdate@@IEAAXPEB_WAEAY0GE@_W11@Z 00000001401622f0 f   Update.obj
 0001:00161850       ?CheckProcInt@CConEmuUpdate@@IEAAKXZ 0000000140162850 f   Update.obj
 0001:001622d0       ?LoadVersionInfoFromServer@CConEmuUpdate@@IEAA_NXZ 00000001401632d0 f   Update.obj
 0001:00162980       ?CreateVersionOnServerInfo@CConEmuUpdate@@IEAAPEA_W_NPEB_W@Z 0000000140163980 f   Update.obj
 0001:00162bc0       ?QueryRetryVersionCheck@CConEmuUpdate@@KA_J_J@Z 0000000140163bc0 f   Update.obj
 0001:00162fd0       ?CreateBatchFile@CConEmuUpdate@@IEAAPEA_WPEB_W@Z 0000000140163fd0 f   Update.obj
 0001:00164060       ?InUpdate@CConEmuUpdate@@QEAA?AW4UpdateStep@1@XZ 0000000140165060 f   Update.obj
 0001:001640b0       ?CreateTempFile@CConEmuUpdate@@IEAAPEA_WPEB_W0AEAPEAX@Z 00000001401650b0 f   Update.obj
 0001:00164550       ?IsLocalFile@CConEmuUpdate@@IEAA_NAEAPEA_W@Z 0000000140165550 f   Update.obj
 0001:00164610       ?DownloadFile@CConEmuUpdate@@IEAAHPEB_W0AEAKHPEAT_LARGE_INTEGER@@@Z 0000000140165610 f   Update.obj
 0001:00164b40       ?ReportErrorInt@CConEmuUpdate@@IEAAXPEA_W@Z 0000000140165b40 f   Update.obj
 0001:00164f50       ?ReportError@CConEmuUpdate@@IEAAXPEB_WK@Z 0000000140165f50 f   Update.obj
 0001:00165090       ?ReportError@CConEmuUpdate@@IEAAXPEB_W0K@Z 0000000140166090 f   Update.obj
 0001:00165150       ?ReportError@CConEmuUpdate@@IEAAXPEB_W00K@Z 0000000140166150 f   Update.obj
 0001:00165230       ?RequestExitUpdate@CConEmuUpdate@@KA_J_J@Z 0000000140166230 f   Update.obj
 0001:001652d0       ?ReportBrokenIni@CConEmuUpdate@@IEAAXPEB_W000@Z 00000001401662d0 f   Update.obj
 0001:001657a0       ?NeedRunElevation@CConEmuUpdate@@SA_NXZ 00000001401667a0 f   Update.obj
 0001:00165b10       ?DeleteBadTempFiles@CConEmuUpdate@@IEAAXXZ 0000000140166b10 f   Update.obj
 0001:00165c10       ?Check7zipInstalled@CConEmuUpdate@@IEAA_NXZ 0000000140166c10 f   Update.obj
 0001:00165db0       ?QueryConfirmation@CConEmuUpdate@@IEAAHW4UpdateStep@1@@Z 0000000140166db0 f   Update.obj
 0001:00165f30       ?QueryConfirmationDownload@CConEmuUpdate@@IEAAHXZ 0000000140166f30 f   Update.obj
 0001:00166610       ?QueryConfirmationUpdate@CConEmuUpdate@@IEAAHXZ 0000000140167610 f   Update.obj
 0001:00166900       ?QueryConfirmationNoNewVer@CConEmuUpdate@@IEAAHXZ 0000000140167900 f   Update.obj
 0001:00167370       ?GetUpdateProgress@CConEmuUpdate@@QEAAFXZ 0000000140168370 f   Update.obj
 0001:001674a0       ?GetCurVerInfo@CConEmuUpdate@@QEAAPEA_WXZ 00000001401684a0 f   Update.obj
 0001:00167570       ?WaitAllInstances@CConEmuUpdate@@IEAAXXZ 0000000140168570 f   Update.obj
 0001:00167a20       ?Init@wininet@CConEmuUpdate@@QEAA_NPEAV2@@Z 0000000140168a20 f   Update.obj
 0001:00167c50       ?ProgressCallback@CConEmuUpdate@@KAXPEBUCEDownloadInfo@@@Z 0000000140168c50 f   Update.obj
 0001:00167c90       ?ErrorCallback@CConEmuUpdate@@KAXPEBUCEDownloadInfo@@@Z 0000000140168c90 f   Update.obj
 0001:00167cd0       ?LogCallback@CConEmuUpdate@@KAXPEBUCEDownloadInfo@@@Z 0000000140168cd0 f   Update.obj
 0001:00167ef0       ?IsVerLocationDeprecated@ConEmuUpdateSettings@@QEAA_NPEB_W@Z 0000000140168ef0 f   UpdateSet.obj
 0001:00167ff0       ?SetUpdateVerLocation@ConEmuUpdateSettings@@QEAAXPEB_W@Z 0000000140168ff0 f   UpdateSet.obj
 0001:00168110       ?ResetToDefaults@ConEmuUpdateSettings@@QEAAXXZ 0000000140169110 f   UpdateSet.obj
 0001:00168650       ??1ConEmuUpdateSettings@@QEAA@XZ 0000000140169650 f   UpdateSet.obj
 0001:001686f0       ?FreePointers@ConEmuUpdateSettings@@QEAAXXZ 00000001401696f0 f   UpdateSet.obj
 0001:001688f0       ?LoadFrom@ConEmuUpdateSettings@@QEAAXPEAU1@@Z 00000001401698f0 f   UpdateSet.obj
 0001:00168a10       ?UpdatesAllowed@ConEmuUpdateSettings@@QEAA_NAEAY0IA@_W@Z 0000000140169a10 f   UpdateSet.obj
 0001:00168e30       ?UpdateDownloadSetup@ConEmuUpdateSettings@@QEAAEXZ 0000000140169e30 f   UpdateSet.obj
 0001:00169170       ?UpdateExeCmdLine@ConEmuUpdateSettings@@QEAAPEB_WAEAY03_W@Z 000000014016a170 f   UpdateSet.obj
 0001:001691f0       ?CheckHourlyUpdate@ConEmuUpdateSettings@@QEAAXXZ 000000014016a1f0 f   UpdateSet.obj
 0001:00169280       ??0CConEmuChild@@QEAA@PEAVCVirtualConsole@@@Z 000000014016a280 f   VConChild.obj
 0001:00169560       ??_ECConEmuChild@@MEAAPEAXI@Z 000000014016a560 f i * CIL library *:* CIL module *
 0001:00169560       ??_GCConEmuChild@@MEAAPEAXI@Z 000000014016a560 f i VConChild.obj
 0001:001695a0       ??1CConEmuChild@@MEAA@XZ   000000014016a5a0 f   VConChild.obj
 0001:00169640       ?DoDestroyDcWindow@CConEmuChild@@QEAAXXZ 000000014016a640 f   VConChild.obj
 0001:001697a0       ?ProcessVConClosed@CConEmuChild@@SAXPEAVCVirtualConsole@@_N@Z 000000014016a7a0 f   VConChild.obj
 0001:001698b0       ?CreateView@CConEmuChild@@QEAAPEAUHWND__@@XZ 000000014016a8b0 f   VConChild.obj
 0001:00169b20       ?ShowView@CConEmuChild@@QEAA_NH@Z 000000014016ab20 f   VConChild.obj
 0001:00169eb0       ?ChildWndProc@CConEmuChild@@SA_JPEAUHWND__@@I_K_J@Z 000000014016aeb0 f   VConChild.obj
 0001:0016a8e0       ?BackWndProc@CConEmuChild@@SA_JPEAUHWND__@@I_K_J@Z 000000014016b8e0 f   VConChild.obj
 0001:0016aff0       ?OnPaintGaps@CConEmuChild@@QEAA_JPEAUHDC__@@@Z 000000014016bff0 f   VConChild.obj
 0001:0016b280       ?OnPaint@CConEmuChild@@QEAA_JXZ 000000014016c280 f   VConChild.obj
 0001:0016b5c0       ?OnSize@CConEmuChild@@IEAA_J_K_J@Z 000000014016c5c0 f   VConChild.obj
 0001:0016b6b0       ?OnMove@CConEmuChild@@IEAA_J_K_J@Z 000000014016c6b0 f   VConChild.obj
 0001:0016b7a0       ?Redraw@CConEmuChild@@QEAAX_N@Z 000000014016c7a0 f   VConChild.obj
 0001:0016b890       ?SetVConSizePos@CConEmuChild@@QEAAXAEBUtagRECT@@0_N@Z 000000014016c890 f   VConChild.obj
 0001:0016b990       ?OnVConSizePosChanged@CConEmuChild@@QEAAXXZ 000000014016c990 f   VConChild.obj
 0001:0016b9e0       ?Invalidate@CConEmuChild@@QEAAXXZ 000000014016c9e0 f   VConChild.obj
 0001:0016ba20       ?InvalidateView@CConEmuChild@@IEAAXXZ 000000014016ca20 f   VConChild.obj
 0001:0016bc00       ?OnAlwaysShowScrollbar@CConEmuChild@@QEAAX_N@Z 000000014016cc00 f   VConChild.obj
 0001:0016bdc0       ?TrackMouse@CConEmuChild@@QEAA_NXZ 000000014016cdc0 f   VConChild.obj
 0001:0016bfd0       ?CheckMouseOverScroll@CConEmuChild@@QEAA_N_N@Z 000000014016cfd0 f   VConChild.obj
 0001:0016c2b0       ?SetScroll@CConEmuChild@@QEAAX_NHHH@Z 000000014016d2b0 f   VConChild.obj
 0001:0016c3b0       ?MySetScrollInfo@CConEmuChild@@IEAAX_N0@Z 000000014016d3b0 f   VConChild.obj
 0001:0016c4b0       ?UpdateScrollRgn@CConEmuChild@@IEAAX_N@Z 000000014016d4b0 f   VConChild.obj
 0001:0016c620       ?ShowScroll@CConEmuChild@@IEAAX_N@Z 000000014016d620 f   VConChild.obj
 0001:0016c880       ?HideScroll@CConEmuChild@@IEAAX_N@Z 000000014016d880 f   VConChild.obj
 0001:0016ca80       ?LockDcRect@CConEmuChild@@QEAAX_NPEAUtagRECT@@@Z 000000014016da80 f   VConChild.obj
 0001:0016cdb0       ?SetAutoCopyTimer@CConEmuChild@@QEAAX_N@Z 000000014016ddb0 f   VConChild.obj
 0001:0016ce70       ??_GCGroupGuard@@UEAAPEAXI@Z 000000014016de70 f i VConGroup.obj
 0001:0016ce70       ??_G?$CRefGuard@VCVConGroup@@@@UEAAPEAXI@Z 000000014016de70 f i VConGroup.obj
 0001:0016ce70       ??_ECGroupGuard@@UEAAPEAXI@Z 000000014016de70 f i * CIL library *:* CIL module *
 0001:0016ce70       ??_E?$CRefGuard@VCVConGroup@@@@UEAAPEAXI@Z 000000014016de70 f i * CIL library *:* CIL module *
 0001:0016cef0       ??1CGroupGuard@@UEAA@XZ    000000014016def0 f   VConGroup.obj
 0001:0016cf50       ?Attach@CGroupGuard@@UEAA_NPEAVCVConGroup@@@Z 000000014016df50 f   VConGroup.obj
 0001:0016d060       ?SplitVConGroup@CVConGroup@@AEAAPEAV1@W4SplitType@RConStartArgs@@I@Z 000000014016e060 f   VConGroup.obj
 0001:0016d1f0       ?CreateVCon@CVConGroup@@CAPEAVCVirtualConsole@@PEAURConStartArgsEx@@AEAPEAV2@H@Z 000000014016e1f0 f   VConGroup.obj
 0001:0016d470       ??0CVConGroup@@AEAA@PEAV0@@Z 000000014016e470 f   VConGroup.obj
 0001:0016d580       ??_GCVConGroup@@MEAAPEAXI@Z 000000014016e580 f i VConGroup.obj
 0001:0016d580       ??_ECVConGroup@@MEAAPEAXI@Z 000000014016e580 f i * CIL library *:* CIL module *
 0001:0016d600       ?RemoveGroup@CVConGroup@@IEAAXXZ 000000014016e600 f   VConGroup.obj
 0001:0016d720       ?GetRootOfVCon@CVConGroup@@KAPEAV1@PEAVCVirtualConsole@@@Z 000000014016e720 f   VConGroup.obj
 0001:0016d850       ?MoveToParent@CVConGroup@@IEAAXPEAV1@@Z 000000014016e850 f   VConGroup.obj
 0001:0016d8f0       ?GetAllTextSize@CVConGroup@@IEAAXAEAUtagSIZE@@0_N@Z 000000014016e8f0 f   VConGroup.obj
 0001:0016dca0       ?StopSignalAll@CVConGroup@@SAXXZ 000000014016eca0 f   VConGroup.obj
 0001:0016deb0       ?DestroyAllVCon@CVConGroup@@SAXXZ 000000014016eeb0 f   VConGroup.obj
 0001:0016e010       ?OnDestroyConEmu@CVConGroup@@SAXXZ 000000014016f010 f   VConGroup.obj
 0001:0016e1b0       ?RepositionVCon@CVConGroup@@IEAAXUtagRECT@@_N@Z 000000014016f1b0 f   VConGroup.obj
 0001:0016e560       ?ReSizeSplitter@CVConGroup@@IEAA_NH@Z 000000014016f560 f   VConGroup.obj
 0001:0016e870       ?ReSizeSplitterHelper@CVConGroup@@KA_J_J@Z 000000014016f870 f   VConGroup.obj
 0001:0016e8a0       ?ReSizeSplitter@CVConGroup@@SA_NPEAVCVirtualConsole@@HH@Z 000000014016f8a0 f   VConGroup.obj
 0001:0016ebc0       ?CalcSplitRect@CVConGroup@@IEAAXIUtagRECT@@AEAU2@11@Z 000000014016fbc0 f   VConGroup.obj
 0001:0016f1d0       ?CalcSplitRootRect@CVConGroup@@IEAAXUtagRECT@@AEAU2@PEAV1@@Z 00000001401701d0 f   VConGroup.obj
 0001:0016f2b0       ?OnMouseEvent@CVConGroup@@SA_JPEAUHWND__@@I_K_J@Z 00000001401702b0 f   VConGroup.obj
 0001:0016f570       ?StopSplitDragging@CVConGroup@@KAXXZ 0000000140170570 f   VConGroup.obj
 0001:0016f710       ?isGroupVisible@CVConGroup@@KA_NPEAV1@@Z 0000000140170710 f   VConGroup.obj
 0001:0016f7f0       ?FindSplitGroup@CVConGroup@@KAPEAV1@UtagPOINT@@PEAV1@@Z 00000001401707f0 f   VConGroup.obj
 0001:0016f890       ?ShowAllVCon@CVConGroup@@IEAAXH@Z 0000000140170890 f   VConGroup.obj
 0001:0016fa00       ?MoveAllVCon@CVConGroup@@SAXPEAVCVirtualConsole@@UtagRECT@@@Z 0000000140170a00 f   VConGroup.obj
 0001:0016fd40       ?isValid@CVConGroup@@SA_NPEAVCRealConsole@@@Z 0000000140170d40 f   VConGroup.obj
 0001:0016fec0       ?isValid@CVConGroup@@SA_NPEAVCVirtualConsole@@@Z 0000000140170ec0 f   VConGroup.obj
 0001:0016fef0       ?setRef@CVConGroup@@KA_NAEAPEAVCVirtualConsole@@PEAV2@@Z 0000000140170ef0 f   VConGroup.obj
 0001:00170030       ?isVConExists@CVConGroup@@SA_NH@Z 0000000140171030 f   VConGroup.obj
 0001:00170050       ?isVConHWND@CVConGroup@@SA_NPEAUHWND__@@PEAVCVConGuard@@@Z 0000000140171050 f   VConGroup.obj
 0001:001702c0       ?isFar@CVConGroup@@SA_N_N@Z 00000001401712c0 f   VConGroup.obj
 0001:00170420       ?isFarExist@CVConGroup@@SAHIPEA_WPEAVCVConGuard@@@Z 0000000140171420 f   VConGroup.obj
 0001:001708e0       ?EnumVCon@CVConGroup@@SA_NW4EnumVConFlags@@P6A_NPEAVCVirtualConsole@@_J@Z2@Z 00000001401718e0 f   VConGroup.obj
 0001:00170b50       ?GetActiveVCon@CVConGroup@@SAHPEAVCVConGuard@@PEAH@Z 0000000140171b50 f   VConGroup.obj
 0001:00170cb0       ?GetProgressInfo@CVConGroup@@SA_NPEAFPEAH11@Z 0000000140171cb0 f   VConGroup.obj
 0001:00171050       ?InvalidateAll@CVConGroup@@SAXXZ 0000000140172050 f   VConGroup.obj
 0001:001711c0       ?UpdateWindowChild@CVConGroup@@SAXPEAVCVirtualConsole@@@Z 00000001401721c0 f   VConGroup.obj
 0001:00171310       ?Update@CVConGroup@@SAX_N@Z 0000000140172310 f   VConGroup.obj
 0001:001714f0       ?isActiveGroupVCon@CVConGroup@@SA_NPEAVCVirtualConsole@@@Z 00000001401724f0 f   VConGroup.obj
 0001:00171600       ?isConSelectMode@CVConGroup@@SA_NXZ 0000000140172600 f   VConGroup.obj
 0001:00171760       ?isInCreateRoot@CVConGroup@@SA_NXZ 0000000140172760 f   VConGroup.obj
 0001:001718b0       ?isDetached@CVConGroup@@SA_NXZ 00000001401728b0 f   VConGroup.obj
 0001:00171a10       ?isFilePanel@CVConGroup@@SA_N_N@Z 0000000140172a10 f   VConGroup.obj
 0001:00171b30       ?isNtvdm@CVConGroup@@SA_NH@Z 0000000140172b30 f   VConGroup.obj
 0001:00171d10       ?isOurConsoleWindow@CVConGroup@@SA_NPEAUHWND__@@@Z 0000000140172d10 f   VConGroup.obj
 0001:00171ed0       ?isOurWindow@CVConGroup@@SA_NPEAUHWND__@@@Z 0000000140172ed0 f   VConGroup.obj
 0001:00172110       ?isOurGuiChildWindow@CVConGroup@@SA_NPEAUHWND__@@@Z 0000000140173110 f   VConGroup.obj
 0001:00172330       ?isChildWindowVisible@CVConGroup@@SA_NXZ 0000000140173330 f   VConGroup.obj
 0001:00172510       ?isPictureView@CVConGroup@@SA_NXZ 0000000140173510 f   VConGroup.obj
 0001:00172780       ?OnRConTimerCheck@CVConGroup@@SAXXZ 0000000140173780 f   VConGroup.obj
 0001:001728c0       ?GetVCon@CVConGroup@@SA_NHPEAVCVConGuard@@_N@Z 00000001401738c0 f   VConGroup.obj
 0001:00172910       ?GetVConFromPoint@CVConGroup@@SA_NUtagPOINT@@PEAVCVConGuard@@@Z 0000000140173910 f   VConGroup.obj
 0001:00172ba0       ?CloseQuery@CVConGroup@@CA_NPEAV?$MArray@PEAVCVConGuard@@@@PEA_N_N2@Z 0000000140173ba0 f   VConGroup.obj
 0001:00173250       ?OnCloseQuery@CVConGroup@@SA_NPEA_N@Z 0000000140174250 f   VConGroup.obj
 0001:001732d0       ?OnFlashWindow@CVConGroup@@SA_NKKKPEAUHWND__@@@Z 00000001401742d0 f   VConGroup.obj
 0001:00173520       ?ExportEnvVarAll@CVConGroup@@SAXPEAUCESERVER_REQ@@PEAVCRealConsole@@@Z 0000000140174520 f   VConGroup.obj
 0001:001737e0       ?OnUpdateGuiInfoMapping@CVConGroup@@SAXPEAUConEmuGuiMapping@@@Z 00000001401747e0 f   VConGroup.obj
 0001:00173930       ?OnPanelViewSettingsChanged@CVConGroup@@SAXXZ 0000000140174930 f   VConGroup.obj
 0001:00173ac0       ?OnTaskbarSettingsChanged@CVConGroup@@SAXXZ 0000000140174ac0 f   VConGroup.obj
 0001:00173bf0       ?OnTaskbarCreated@CVConGroup@@SAXXZ 0000000140174bf0 f   VConGroup.obj
 0001:00173d30       ?isConsolePID@CVConGroup@@SA_NK@Z 0000000140174d30 f   VConGroup.obj
 0001:00173de0       ?DoCloseAllVCon@CVConGroup@@SA_N_N@Z 0000000140174de0 f   VConGroup.obj
 0001:00174020       ?CloseAllButActive@CVConGroup@@SAXPEAVCVirtualConsole@@_N1@Z 0000000140175020 f   VConGroup.obj
 0001:001742a0       ?CloseGroup@CVConGroup@@SAXPEAVCVirtualConsole@@_N@Z 00000001401752a0 f   VConGroup.obj
 0001:001744c0       ?OnUpdateScrollInfo@CVConGroup@@SAXXZ 00000001401754c0 f   VConGroup.obj
 0001:00174650       ?OnUpdateFarSettings@CVConGroup@@SAXXZ 0000000140175650 f   VConGroup.obj
 0001:001747a0       ?OnUpdateTextColorSettings@CVConGroup@@SAX_N0PEBUAppSettings@@@Z 00000001401757a0 f   VConGroup.obj
 0001:00174900       ?OnVConClosed@CVConGroup@@SAXPEAVCVirtualConsole@@@Z 0000000140175900 f   VConGroup.obj
 0001:00175550       ?OnUpdateProcessDisplay@CVConGroup@@SAXPEAUHWND__@@@Z 0000000140176550 f   VConGroup.obj
 0001:00175790       ?DoSrvCreated@CVConGroup@@SAPEAUHWND__@@KQEAU2@KAEAK1AEAHAEAUCESERVER_REQ_SRVSTARTSTOPRET@@@Z 0000000140176790 f   VConGroup.obj
 0001:00175940       ?FindNextPane@CVConGroup@@IEAAPEAV1@AEBUtagRECT@@HH@Z 0000000140176940 f   VConGroup.obj
 0001:00175ba0       ?ExchangePanes@CVConGroup@@SA_NPEAVCVirtualConsole@@HH@Z 0000000140176ba0 f   VConGroup.obj
 0001:00175f20       ?ActivateNextPane@CVConGroup@@SA_NPEAVCVirtualConsole@@HH@Z 0000000140176f20 f   VConGroup.obj
 0001:00176110       ?Activate@CVConGroup@@SA_NPEAVCVirtualConsole@@@Z 0000000140177110 f   VConGroup.obj
 0001:00176190       ?MoveActiveTab@CVConGroup@@SAXPEAVCVirtualConsole@@_N@Z 0000000140177190 f   VConGroup.obj
 0001:00176250       ?ActiveConNum@CVConGroup@@SAHXZ 0000000140177250 f   VConGroup.obj
 0001:00176280       ?AttachRequested@CVConGroup@@SAHPEAUHWND__@@PEBUCESERVER_REQ_STARTSTOP@@AEAUCESERVER_REQ_SRVSTARTSTOPRET@@@Z 0000000140177280 f   VConGroup.obj
 0001:00176ba0       ?AttachRequestedGui@CVConGroup@@SAPEAVCRealConsole@@KPEB_WK@Z 0000000140177ba0 f   VConGroup.obj
 0001:00177080       ?GetVConBySrvPID@CVConGroup@@SA_NKKPEAVCVConGuard@@@Z 0000000140178080 f   VConGroup.obj
 0001:00177330       ?GetVConByName@CVConGroup@@SA_NPEB_WPEAVCVConGuard@@@Z 0000000140178330 f   VConGroup.obj
 0001:00177590       ?ConActivateByName@CVConGroup@@SA_NPEB_W@Z 0000000140178590 f   VConGroup.obj
 0001:00177660       ?CheckProcesses@CVConGroup@@SAKXZ 0000000140178660 f   VConGroup.obj
 0001:001777d0       ?GetGroupPanes@CVConGroup@@QEAAHPEAV?$MArray@PEAVCVConGuard@@@@@Z 00000001401787d0 f   VConGroup.obj
 0001:001778c0       ?FreePanesArray@CVConGroup@@SAXAEAV?$MArray@PEAVCVConGuard@@@@@Z 00000001401788c0 f   VConGroup.obj
 0001:001779f0       ?PaneActivateNext@CVConGroup@@SA_N_N@Z 00000001401789f0 f   VConGroup.obj
 0001:00177c50       ?ShowActiveGroup@CVConGroup@@KAXPEAVCVirtualConsole@@@Z 0000000140178c50 f   VConGroup.obj
 0001:00177e10       ?StoreActiveVCon@CVConGroup@@IEAAXPEAVCVirtualConsole@@@Z 0000000140178e10 f   VConGroup.obj
 0001:00177e60       ?ConActivate@CVConGroup@@CA_NAEAVCVConGuard@@H@Z 0000000140178e60 f   VConGroup.obj
 0001:001781a0       ?ConActivate@CVConGroup@@SA_NH@Z 00000001401791a0 f   VConGroup.obj
 0001:00178330       ?CreateCon@CVConGroup@@SAPEAVCVirtualConsole@@PEAURConStartArgsEx@@_N1@Z 0000000140179330 f   VConGroup.obj
 0001:00178be0       ?GetExclusionRgn@CVConGroup@@SAPEAUHRGN__@@_N@Z 0000000140179be0 f   VConGroup.obj
 0001:00178e10       ?CalcRect@CVConGroup@@SA?AUtagRECT@@W4ConEmuRect@@U2@0PEAVCVirtualConsole@@W4ConEmuMargins@@@Z 0000000140179e10 f   VConGroup.obj
 0001:001797b0       ?SetConsoleSizes@CVConGroup@@IEAAXAEBU_COORD@@AEBUtagRECT@@_N@Z 000000014017a7b0 f   VConGroup.obj
 0001:00179ee0       ?SetAllConsoleWindowsSize@CVConGroup@@SAXUtagRECT@@W4ConEmuRect@@U_COORD@@_N@Z 000000014017aee0 f   VConGroup.obj
 0001:0017a1d0       ?SyncAllConsoles2Window@CVConGroup@@SAXUtagRECT@@W4ConEmuRect@@_N@Z 000000014017b1d0 f   VConGroup.obj
 0001:0017a360       ?SyncConsoleToWindow@CVConGroup@@SAXPEAUtagRECT@@_N@Z 000000014017b360 f   VConGroup.obj
 0001:0017a520       ?AllTextRect@CVConGroup@@SA?AUtagRECT@@PEAUtagSIZE@@_N@Z 000000014017b520 f   VConGroup.obj
 0001:0017a6b0       ?PreReSize@CVConGroup@@SA_NIUtagRECT@@W4ConEmuRect@@_N@Z 000000014017b6b0 f   VConGroup.obj
 0001:0017aa30       ?SetRedraw@CVConGroup@@SAX_N@Z 000000014017ba30 f   VConGroup.obj
 0001:0017ab90       ?Redraw@CVConGroup@@SAXXZ  000000014017bb90 f   VConGroup.obj
 0001:0017acd0       ?PaintSplitter@CVConGroup@@IEAAXPEAUHDC__@@PEAUHBRUSH__@@@Z 000000014017bcd0 f   VConGroup.obj
 0001:0017af60       ?PaintGaps@CVConGroup@@SAXPEAUHDC__@@@Z 000000014017bf60 f   VConGroup.obj
 0001:0017b2b0       ?setActiveVConAndFlags@CVConGroup@@KAXPEAVCVirtualConsole@@@Z 000000014017c2b0 f   VConGroup.obj
 0001:0017b4d0       ?ResetGroupInput@CVConGroup@@SAXPEAVCConEmuMain@@W4GroupInputCmd@@@Z 000000014017c4d0 f   VConGroup.obj
 0001:0017b6d0       ?GroupInput@CVConGroup@@SAXPEAVCVirtualConsole@@W4GroupInputCmd@@@Z 000000014017c6d0 f   VConGroup.obj
 0001:0017b910       ?GroupSelectedInput@CVConGroup@@SAXPEAVCVirtualConsole@@@Z 000000014017c910 f   VConGroup.obj
 0001:0017ba90       ?PaneMaximizeRestore@CVConGroup@@SAXPEAVCVirtualConsole@@@Z 000000014017ca90 f   VConGroup.obj
 0001:0017bd60       ?OnGuiFocused@CVConGroup@@SAX_N0@Z 000000014017cd60 f   VConGroup.obj
 0001:0017beb0       ?OnConsoleResize@CVConGroup@@SAX_N@Z 000000014017ceb0 f   VConGroup.obj
 0001:0017c460       ?ReSizePanes@CVConGroup@@SAXUtagRECT@@@Z 000000014017d460 f   VConGroup.obj
 0001:0017c5d0       ?NotifyChildrenWindows@CVConGroup@@SAXXZ 000000014017d5d0 f   VConGroup.obj
 0001:0017c730       ?isGroup@CVConGroup@@SA_NPEAVCVirtualConsole@@PEAPEAV1@PEAVCVConGuard@@@Z 000000014017d730 f   VConGroup.obj
 0001:0017c800       ?PopulateSplitPanes@CVConGroup@@AEAAXIAEAIAEAV?$MArray@PEAVCVConGuard@@@@@Z 000000014017d800 f   VConGroup.obj
 0001:0017ca90       ?GetTasks@CVConGroup@@SAPEA_WXZ 000000014017da90 f   VConGroup.obj
 0001:0017d190       ??1?$CRefGuard@VCVConGroup@@@@UEAA@XZ 000000014017e190 f i VConGroup.obj
 0001:0017d1f0       ??_GCVConRelease@@UEAAPEAXI@Z 000000014017e1f0 f i VConRelease.obj
 0001:0017d1f0       ??_ECVConRelease@@UEAAPEAXI@Z 000000014017e1f0 f i * CIL library *:* CIL module *
 0001:0017d220       ?FinalRelease@CVConRelease@@MEAAXXZ 000000014017e220 f   VConRelease.obj
 0001:0017d290       ??0CVConGuard@@QEAA@XZ     000000014017e290 f   VConRelease.obj
 0001:0017d2d0       ??_GCVConGuard@@UEAAPEAXI@Z 000000014017e2d0 f i VConRelease.obj
 0001:0017d2d0       ??_ECVConGuard@@UEAAPEAXI@Z 000000014017e2d0 f i * CIL library *:* CIL module *
 0001:0017d350       ??0CVConGuard@@QEAA@PEAVCVirtualConsole@@@Z 000000014017e350 f   VConRelease.obj
 0001:0017d3c0       ?Attach@CVConGuard@@UEAA_NPEAVCVirtualConsole@@@Z 000000014017e3c0 f   VConRelease.obj
 0001:0017d440       ??1CVConGuard@@UEAA@XZ     000000014017e440 f   VConRelease.obj
 0001:0017d4a0       ??1?$CRefGuard@VCVirtualConsole@@@@UEAA@XZ 000000014017e4a0 f i VConRelease.obj
 0001:0017d500       ??_E?$CRefGuard@VCVirtualConsole@@@@UEAAPEAXI@Z 000000014017e500 f i * CIL library *:* CIL module *
 0001:0017d500       ??_G?$CRefGuard@VCVirtualConsole@@@@UEAAPEAXI@Z 000000014017e500 f i VConRelease.obj
 0001:0017d580       ?isCharAltFont@@YA_NH@Z    000000014017e580 f   VConText.obj
 0001:0017d5c0       ?isCharSeparate@@YA_NH@Z   000000014017e5c0 f   VConText.obj
 0001:0017d610       ?isCharNonWord@@YA_NH@Z    000000014017e610 f   VConText.obj
 0001:0017d680       ?SetLen@VConTextPart@@QEAAXII@Z 000000014017e680 f   VConText.obj
 0001:0017d770       ??1CVConLine@@QEAA@XZ      000000014017e770 f   VConText.obj
 0001:0017d780       ?ParseLine@CVConLine@@QEAA_N_NIIIPEA_WPEAUtag_CharAttr@@QEB_WQEBU2@@Z 000000014017e780 f   VConText.obj
 0001:0017e130       ?PolishParts@CVConLine@@QEAAXPEAK@Z 000000014017f130 f   VConText.obj
 0001:0017e450       ?CropParts@CVConLine@@IEAAXIII@Z 000000014017f450 f   VConText.obj
 0001:0017e530       ?get_total@Shrinker@@QEAAXPEAUVConTextPart@@IIAEAMAEAH@Z 000000014017f530 f i VConText.obj
 0001:0017e7a0       ?eval_compression@Shrinker@@QEAA_NPEAUVConTextPart@@IIH@Z 000000014017f7a0 f i VConText.obj
 0001:0017ea10       ?DistributeParts@CVConLine@@IEAAXIII@Z 000000014017fa10 f   VConText.obj
 0001:0017ec50       ?AllocateMemory@CVConLine@@IEAA_NXZ 000000014017fc50 f   VConText.obj
 0001:0017ee30       ?ReleaseMemory@CVConLine@@IEAAXXZ 000000014017fe30 f   VConText.obj
 0001:0017ef00       ?isDialogBorderCoord@CVConLine@@IEAAKI@Z 000000014017ff00 f   VConText.obj
 0001:0017f0d0       ??0CVirtualConsole@@IEAA@PEAVCConEmuMain@@H@Z 00000001401800d0 f   VirtualConsole.obj
 0001:0017f5a0       ??_ECVirtualConsole@@MEAAPEAXI@Z 00000001401805a0 f i * CIL library *:* CIL module *
 0001:0017f5a0       ??_GCVirtualConsole@@MEAAPEAXI@Z 00000001401805a0 f i VirtualConsole.obj
 0001:0017f5e0       ??1CEDC@@QEAA@XZ           00000001401805e0 f i VirtualConsole.obj
 0001:0017f650       ?Constructor@CVirtualConsole@@IEAA_NPEAURConStartArgsEx@@@Z 0000000140180650 f   VirtualConsole.obj
 0001:0017fac0       ??1CVirtualConsole@@MEAA@XZ 0000000140180ac0 f   VirtualConsole.obj
 0001:0017fea0       ?InitGhost@CVirtualConsole@@QEAAXXZ 0000000140180ea0 f   VirtualConsole.obj
 0001:0017ff60       ?OnDestroy@CVirtualConsole@@MEAAXXZ 0000000140180f60 f   VirtualConsole.obj
 0001:0017ff90       ?RCon@CVirtualConsole@@QEAAPEAVCRealConsole@@XZ 0000000140180f90 f   VirtualConsole.obj
 0001:0017ffa0       ?setFocus@CVirtualConsole@@QEAAXXZ 0000000140180fa0 f   VirtualConsole.obj
 0001:00180000       ?isGroupedInput@CVirtualConsole@@QEAA?AW4EnumVConFlags@@XZ 0000000140181000 f   VirtualConsole.obj
 0001:00180040       ?PointersFree@CVirtualConsole@@AEAAXXZ 0000000140181040 f   VirtualConsole.obj
 0001:001801d0       ?PointersAlloc@CVirtualConsole@@AEAA_NXZ 00000001401811d0 f   VirtualConsole.obj
 0001:00180360       ?PointersZero@CVirtualConsole@@AEAAXXZ 0000000140181360 f   VirtualConsole.obj
 0001:00180430       ?InitDC@CVirtualConsole@@QEAA_N_N0PEAVMSectionLock@@1@Z 0000000140181430 f   VirtualConsole.obj
 0001:00180830       ?DumpConsole@CVirtualConsole@@QEAAXXZ 0000000140181830 f   VirtualConsole.obj
 0001:00180910       ?Dump@CVirtualConsole@@QEAA_NPEB_W@Z 0000000140181910 f   VirtualConsole.obj
 0001:00180ba0       ?LoadDumpConsole@CVirtualConsole@@QEAA_NXZ 0000000140181ba0 f   VirtualConsole.obj
 0001:00180d60       ?PaintBackgroundImage@CVirtualConsole@@QEAAXAEBUtagRECT@@K@Z 0000000140181d60 f   VirtualConsole.obj
 0001:00181250       ?SelectFont@CVirtualConsole@@QEAAXW4CEFontStyles@@@Z 0000000140182250 f   VirtualConsole.obj
 0001:001812f0       ?SelectFont@CVirtualConsole@@IEAAXAEBVCFontPtr@@@Z 00000001401822f0 f   VirtualConsole.obj
 0001:001813b0       ?CharWidth@CVirtualConsole@@IEAAG_WAEBUtag_CharAttr@@@Z 00000001401823b0 f   VirtualConsole.obj
 0001:00181720       ?CheckChangedTextAttr@CVirtualConsole@@IEAA_NXZ 0000000140182720 f   VirtualConsole.obj
 0001:001819e0       ?UpdateThumbnail@CVirtualConsole@@QEAAX_N@Z 00000001401829e0 f   VirtualConsole.obj
 0001:00181a50       ?Update@CVirtualConsole@@QEAA_N_NPEAPEAUHDC__@@@Z 0000000140182a50 f   VirtualConsole.obj
 0001:00181f90       ?PatInvertRect@CVirtualConsole@@IEAAXPEAUHDC__@@AEBUtagRECT@@0_N@Z 0000000140182f90 f   VirtualConsole.obj
 0001:001820b0       ?ChangeHighlightMouse@CVirtualConsole@@QEAAXHH@Z 00000001401830b0 f   VirtualConsole.obj
 0001:00182240       ?WasHighlightRowColChanged@CVirtualConsole@@IEAA_NXZ 0000000140183240 f   VirtualConsole.obj
 0001:00182420       ?CalcHighlightRowCol@CVirtualConsole@@IEAA_NPEAU_COORD@@@Z 0000000140183420 f   VirtualConsole.obj
 0001:001825f0       ?UpdateHighlightsRowCol@CVirtualConsole@@IEAAXXZ 00000001401835f0 f   VirtualConsole.obj
 0001:00182910       ?UpdateHighlightsHyperlink@CVirtualConsole@@IEAAXXZ 0000000140183910 f   VirtualConsole.obj
 0001:00182c30       ?UndoHighlights@CVirtualConsole@@IEAAXXZ 0000000140183c30 f   VirtualConsole.obj
 0001:00182d40       ?CheckTransparent@CVirtualConsole@@QEAA_NXZ 0000000140183d40 f   VirtualConsole.obj
 0001:00182e40       ?CheckTransparentRgn@CVirtualConsole@@IEAA_N_N@Z 0000000140183e40 f   VirtualConsole.obj
 0001:00183320       ?LoadConsoleData@CVirtualConsole@@QEAA_NXZ 0000000140184320 f   VirtualConsole.obj
 0001:001837b0       ?SetSelfPalette@CVirtualConsole@@QEAAXGGAEAY0BA@$$CBK@Z 00000001401847b0 f   VirtualConsole.obj
 0001:00183d60       ?GetColors@CVirtualConsole@@QEAAPEAK_N@Z 0000000140184d60 f   VirtualConsole.obj
 0001:00183e80       ?GetPaletteIndex@CVirtualConsole@@QEAAHXZ 0000000140184e80 f   VirtualConsole.obj
 0001:00183ef0       ?ChangePalette@CVirtualConsole@@QEAA_NH@Z 0000000140184ef0 f   VirtualConsole.obj
 0001:00184340       ?OnAppSettingsChanged@CVirtualConsole@@QEAAXH@Z 0000000140185340 f   VirtualConsole.obj
 0001:00184560       ?UpdatePrepare@CVirtualConsole@@IEAA_NPEAPEAUHDC__@@PEAVMSectionLock@@1@Z 0000000140185560 f   VirtualConsole.obj
 0001:00184c20       ?UpdateText@CVirtualConsole@@IEAAXXZ 0000000140185c20 f   VirtualConsole.obj
 0001:00185ce0       ?PartBrush@CVirtualConsole@@KAPEAUHBRUSH__@@_WKK@Z 0000000140186ce0 f   VirtualConsole.obj
 0001:00186270       ?UpdateCursorDraw@CVirtualConsole@@IEAAXPEAUHDC__@@UtagRECT@@U_COORD@@I@Z 0000000140187270 f   VirtualConsole.obj
 0001:00186860       ?UpdateCursorGroup@CVirtualConsole@@SA_NPEAV1@_J@Z 0000000140187860 f   VirtualConsole.obj
 0001:00186bb0       ?GetCursor@CVirtualConsole@@QEAA?ATCECursorType@@_N@Z 0000000140187bb0 f   VirtualConsole.obj
 0001:00186c90       ?UpdateCursor@CVirtualConsole@@QEAAXAEA_N@Z 0000000140187c90 f   VirtualConsole.obj
 0001:00186fb0       ?Blit@CVirtualConsole@@QEAA_NPEAUHDC__@@HHHH@Z 0000000140187fb0 f   VirtualConsole.obj
 0001:00187010       ?StretchPaint@CVirtualConsole@@QEAA_NPEAUHDC__@@HHHH@Z 0000000140188010 f   VirtualConsole.obj
 0001:00187100       ?PrintClient@CVirtualConsole@@QEAA_NPEAUHDC__@@_NQEAUtagRECT@@@Z 0000000140188100 f   VirtualConsole.obj
 0001:00187370       ?PaintVCon@CVirtualConsole@@QEAAXPEAUHDC__@@@Z 0000000140188370 f   VirtualConsole.obj
 0001:00187800       ?PaintVConSimple@CVirtualConsole@@IEAAXPEAUHDC__@@UtagRECT@@_N@Z 0000000140188800 f   VirtualConsole.obj
 0001:00187bf0       ?PaintVConNormal@CVirtualConsole@@IEAAXPEAUHDC__@@UtagRECT@@@Z 0000000140188bf0 f   VirtualConsole.obj
 0001:00188400       ?PaintVConDebug@CVirtualConsole@@IEAAXPEAUHDC__@@UtagRECT@@@Z 0000000140189400 f   VirtualConsole.obj
 0001:00188940       ?UpdateInfo@CVirtualConsole@@QEAAXXZ 0000000140189940 f   VirtualConsole.obj
 0001:00188ec0       ?ConsoleToClient@CVirtualConsole@@QEAA?AUtagPOINT@@JJ@Z 0000000140189ec0 f   VirtualConsole.obj
 0001:00188fa0       ?ClientToConsole@CVirtualConsole@@QEAA?AU_COORD@@JJ_N@Z 0000000140189fa0 f   VirtualConsole.obj
 0001:001890c0       ?FindChanges@CVirtualConsole@@IEAA_NHPEB_WPEBUtag_CharAttr@@01@Z 000000014018a0c0 f   VirtualConsole.obj
 0001:00189170       ?FindOpaqueCell@CVirtualConsole@@QEAA?AU_COORD@@XZ 000000014018a170 f   VirtualConsole.obj
 0001:001892b0       ?RegisterPanelView@CVirtualConsole@@QEAA_NPEAUPanelViewInit@@@Z 000000014018a2b0 f   VirtualConsole.obj
 0001:00189450       ?CheckDialogsChanged@CVirtualConsole@@AEAA_NXZ 000000014018a450 f   VirtualConsole.obj
 0001:00189520       ?UpdatePanelRgn@CVirtualConsole@@AEAA_N_N00@Z 000000014018a520 f   VirtualConsole.obj
 0001:00189b00       ?UpdatePanelView@CVirtualConsole@@AEAA_N_N0@Z 000000014018ab00 f   VirtualConsole.obj
 0001:00189d70       ?PolishPanelViews@CVirtualConsole@@AEAAXXZ 000000014018ad70 f   VirtualConsole.obj
 0001:0018a3e0       ?SetBackgroundImageData@CVirtualConsole@@QEAAHPEAUCESERVER_REQ_SETBACKGROUND@@@Z 000000014018b3e0 f   VirtualConsole.obj
 0001:0018a480       ?SavePaneSnapshot@CVirtualConsole@@QEAAXXZ 000000014018b480 f   VirtualConsole.obj
 0001:0018a500       ?OnTaskbarSettingsChanged@CVirtualConsole@@QEAAXXZ 000000014018b500 f   VirtualConsole.obj
 0001:0018a5a0       ?InternalOpenCreate@?$MFileMapping@Utag_DetectedDialog@@@@IEAAPEAUtag_DetectedDialog@@HHH@Z 000000014018b5a0 f i VirtualConsole.obj
 0001:0018a710       ?_Make_iter@?$_Hash@V?$_Umap_traits@HGV?$_Uhash_compare@HU?$hash@H@std@@U?$equal_to@H@2@@std@@V?$allocator@U?$pair@$$CBHG@std@@@2@$0A@@std@@@std@@QEBA?AV?$_List_iterator@V?$_List_val@U?$_List_simple_types@U?$pair@$$CBHG@std@@@std@@@std@@@2@V?$_List_unchecked_const_iterator@V?$_List_val@U?$_List_simple_types@U?$pair@$$CBHG@std@@@std@@@std@@U_Iterator_base0@2@@2@@Z 000000014018b710 f i VirtualConsole.obj
 0001:0018a720       ??$_Insert@AEAU?$pair@$$CBHG@std@@V?$_List_unchecked_iterator@V?$_List_val@U?$_List_simple_types@U?$pair@$$CBHG@std@@@std@@@std@@@2@@?$_Hash@V?$_Umap_traits@HGV?$_Uhash_compare@HU?$hash@H@std@@U?$equal_to@H@2@@std@@V?$allocator@U?$pair@$$CBHG@std@@@2@$0A@@std@@@std@@IEAA?AU?$pair@V?$_List_iterator@V?$_List_val@U?$_List_simple_types@U?$pair@$$CBHG@std@@@std@@@std@@@std@@_N@1@AEAU?$pair@$$CBHG@1@V?$_List_unchecked_iterator@V?$_List_val@U?$_List_simple_types@U?$pair@$$CBHG@std@@@std@@@std@@@1@@Z 000000014018b720 f i VirtualConsole.obj
 0001:0018a8b0       ?_Check_size@?$_Hash@V?$_Umap_traits@HGV?$_Uhash_compare@HU?$hash@H@std@@U?$equal_to@H@2@@std@@V?$allocator@U?$pair@$$CBHG@std@@@2@$0A@@std@@@std@@IEAAXXZ 000000014018b8b0 f i VirtualConsole.obj
 0001:0018a970       ?erase@?$_Hash@V?$_Umap_traits@HGV?$_Uhash_compare@HU?$hash@H@std@@U?$equal_to@H@2@@std@@V?$allocator@U?$pair@$$CBHG@std@@@2@$0A@@std@@@std@@QEAA?AV?$_List_iterator@V?$_List_val@U?$_List_simple_types@U?$pair@$$CBHG@std@@@std@@@std@@@2@V?$_List_const_iterator@V?$_List_val@U?$_List_simple_types@U?$pair@$$CBHG@std@@@std@@@std@@@2@@Z 000000014018b970 f i VirtualConsole.obj
 0001:0018aa50       ??$_Buynode@AEBUpiecewise_construct_t@std@@V?$tuple@AEBH@2@V?$tuple@$$V@2@@?$_List_buy@U?$pair@$$CBHG@std@@V?$allocator@U?$pair@$$CBHG@std@@@2@@std@@QEAAPEAU?$_List_node@U?$pair@$$CBHG@std@@PEAX@1@PEAU21@0AEBUpiecewise_construct_t@1@$$QEAV?$tuple@AEBH@1@$$QEAV?$tuple@$$V@1@@Z 000000014018ba50 f i VirtualConsole.obj
 0001:0018aa7c       ??_ECVirtualConsole@@OBI@EAAPEAXI@Z 000000014018ba7c f i VirtualConsole.obj
 0001:0018aa90       ??_ECWinObjBase@@UEAAPEAXI@Z 000000014018ba90 f i * CIL library *:* CIL module *
 0001:0018aa90       ??_GCWinObjBase@@UEAAPEAXI@Z 000000014018ba90 f i WinObjBase.obj
 0001:0018aac0       ?InitObjMap@CWinObjBase@@SA_NXZ 000000014018bac0 f   WinObjBase.obj
 0001:0018abe0       ?SetObj@CWinObjBase@@KAXPEAUHWND__@@PEAV1@P6A_J0I_K_J@Z@Z 000000014018bbe0 f   WinObjBase.obj
 0001:0018ac40       ?Set@?$MMap@PEAUHWND__@@UTabPanelWinMap@@$0A@@@QEAA_NAEBQEAUHWND__@@AEBUTabPanelWinMap@@@Z 000000014018bc40 f i WinObjBase.obj
 0001:0018ada4       ??0bad_alloc@std@@QEAA@AEBV01@@Z 000000014018bda4 f i libcpmt:xthrow.obj
 0001:0018ade4       ??0bad_alloc@std@@QEAA@XZ  000000014018bde4 f i libcpmt:xthrow.obj
 0001:0018ae04       ??0exception@std@@QEAA@AEBV01@@Z 000000014018be04 f i libcpmt:xthrow.obj
 0001:0018ae3c       ??0length_error@std@@QEAA@AEBV01@@Z 000000014018be3c f i libcpmt:xthrow.obj
 0001:0018ae7c       ??0length_error@std@@QEAA@PEBD@Z 000000014018be7c f i libcpmt:xthrow.obj
 0001:0018aec8       ??0logic_error@std@@QEAA@AEBV01@@Z 000000014018bec8 f i libcpmt:xthrow.obj
 0001:0018af08       ??_Gbad_alloc@std@@UEAAPEAXI@Z 000000014018bf08 f i libcpmt:xthrow.obj
 0001:0018af08       ??_Elength_error@std@@UEAAPEAXI@Z 000000014018bf08 f i libcpmt:xthrow.obj
 0001:0018af08       ??_Gexception@std@@UEAAPEAXI@Z 000000014018bf08 f i libcpmt:xthrow.obj
 0001:0018af08       ??_Ebad_alloc@std@@UEAAPEAXI@Z 000000014018bf08 f i libcpmt:xthrow.obj
 0001:0018af08       ??_Glogic_error@std@@UEAAPEAXI@Z 000000014018bf08 f i libcpmt:xthrow.obj
 0001:0018af08       ??_Gbad_cast@std@@UEAAPEAXI@Z 000000014018bf08 f i libvcruntime:rtti.obj
 0001:0018af08       ??_G__non_rtti_object@std@@UEAAPEAXI@Z 000000014018bf08 f i libvcruntime:rtti.obj
 0001:0018af08       ??_Ebad_exception@std@@UEAAPEAXI@Z 000000014018bf08 f i libvcruntime:frame.obj
 0001:0018af08       ??_Ebad_cast@std@@UEAAPEAXI@Z 000000014018bf08 f i libvcruntime:rtti.obj
 0001:0018af08       ??_Glength_error@std@@UEAAPEAXI@Z 000000014018bf08 f i libcpmt:xthrow.obj
 0001:0018af08       ??_Gbad_exception@std@@UEAAPEAXI@Z 000000014018bf08 f i libvcruntime:frame.obj
 0001:0018af08       ??_Eexception@std@@UEAAPEAXI@Z 000000014018bf08 f i libcpmt:xthrow.obj
 0001:0018af08       ??_Elogic_error@std@@UEAAPEAXI@Z 000000014018bf08 f i libcpmt:xthrow.obj
 0001:0018af08       ??_E__non_rtti_object@std@@UEAAPEAXI@Z 000000014018bf08 f i libvcruntime:rtti.obj
 0001:0018af08       ??_Ebad_typeid@std@@UEAAPEAXI@Z 000000014018bf08 f i libvcruntime:rtti.obj
 0001:0018af08       ??_Gbad_typeid@std@@UEAAPEAXI@Z 000000014018bf08 f i libvcruntime:rtti.obj
 0001:0018af4c       ?_Xbad_alloc@std@@YAXXZ    000000014018bf4c f   libcpmt:xthrow.obj
 0001:0018af6c       ?_Xlength_error@std@@YAXPEBD@Z 000000014018bf6c f   libcpmt:xthrow.obj
 0001:0018af90       ?what@exception@std@@UEBAPEBDXZ 000000014018bf90 f i libcpmt:xthrow.obj
 0001:0018afc0       __security_check_cookie    000000014018bfc0 f   LIBCMT:_amdsecgs_.obj
 0001:0018afe4       __raise_securityfailure    000000014018bfe4 f   LIBCMT:gs_report.obj
 0001:0018b018       __report_gsfailure         000000014018c018 f   LIBCMT:gs_report.obj
 0001:0018b0ec       __report_rangecheckfailure 000000014018c0ec f   LIBCMT:gs_report.obj
 0001:0018b100       __report_securityfailure   000000014018c100 f   LIBCMT:gs_report.obj
 0001:0018b280       ??3@YAXPEAX_K@Z            000000014018c280 f   LIBCMT:delete_scalar_size.obj
 0001:0018b288       ??_Etype_info@@UEAAPEAXI@Z 000000014018c288 f i LIBCMT:std_type_info_static.obj
 0001:0018b288       ??_Gtype_info@@UEAAPEAXI@Z 000000014018c288 f i LIBCMT:std_type_info_static.obj
 0001:0018b428       _Init_thread_footer        000000014018c428 f   LIBCMT:thread_safe_statics.obj
 0001:0018b488       _Init_thread_header        000000014018c488 f   LIBCMT:thread_safe_statics.obj
 0001:0018b4f0       _Init_thread_notify        000000014018c4f0 f   LIBCMT:thread_safe_statics.obj
 0001:0018b54c       _Init_thread_wait          000000014018c54c f   LIBCMT:thread_safe_statics.obj
 0001:0018b5e4       __scrt_acquire_startup_lock 000000014018c5e4 f   LIBCMT:utility.obj
 0001:0018b620       __scrt_initialize_crt      000000014018c620 f   LIBCMT:utility.obj
 0001:0018b66c       __scrt_initialize_onexit_tables 000000014018c66c f   LIBCMT:utility.obj
 0001:0018b74c       __scrt_is_nonwritable_in_current_image 000000014018c74c f   LIBCMT:utility.obj
 0001:0018b7e8       __scrt_release_startup_lock 000000014018c7e8 f   LIBCMT:utility.obj
 0001:0018b80c       __scrt_uninitialize_crt    000000014018c80c f   LIBCMT:utility.obj
 0001:0018b838       _onexit                    000000014018c838 f   LIBCMT:utility.obj
 0001:0018b888       atexit                     000000014018c888 f   LIBCMT:utility.obj
 0001:0018b8a0       ??_M@YAXPEAX_K1P6AX0@Z@Z   000000014018c8a0 f   LIBCMT:ehvecdtr.obj
 0001:0018b90c       ?__ArrayUnwind@@YAXPEAX_K1P6AX0@Z@Z 000000014018c90c f   LIBCMT:ehvecdtr.obj
 0001:0018b970       ??_L@YAXPEAX_K1P6AX0@Z2@Z  000000014018c970 f   LIBCMT:ehvecctr.obj
 0001:0018bc34       WinMainCRTStartup          000000014018cc34 f   LIBCMT:exe_winmain.obj
 0001:0018bc48       __crt_debugger_hook        000000014018cc48 f   LIBCMT:utility_desktop.obj
 0001:0018bc50       __scrt_fastfail            000000014018cc50 f   LIBCMT:utility_desktop.obj
 0001:0018bd98       __scrt_get_show_window_mode 000000014018cd98 f   LIBCMT:utility_desktop.obj
 0001:0018bdd4       __scrt_is_managed_app      000000014018cdd4 f   LIBCMT:utility_desktop.obj
 0001:0018be28       __scrt_set_unhandled_exception_filter 000000014018ce28 f   LIBCMT:utility_desktop.obj
 0001:0018be38       __scrt_unhandled_exception_filter 000000014018ce38 f   LIBCMT:utility_desktop.obj
 0001:0018be70       _guard_check_icall         000000014018ce70 f i LIBCMT:checkcfg.obj
 0001:0018be78       __isa_available_init       000000014018ce78 f   LIBCMT:_cpu_disp_.obj
 0001:0018c034       __scrt_is_ucrt_dll_in_use  000000014018d034 f   LIBCMT:ucrt_detection.obj
 0001:0018c040       __security_init_cookie     000000014018d040 f   LIBCMT:gs_support.obj
 0001:0018c0ec       _get_startup_file_mode     000000014018d0ec f   LIBCMT:file_mode.obj
 0001:0018c0f4       ?__scrt_initialize_type_info@@YAXXZ 000000014018d0f4 f   LIBCMT:tncleanup.obj
 0001:0018c104       __local_stdio_scanf_options 000000014018d104 f i LIBCMT:default_local_stdio_options.obj
 0001:0018c10c       __scrt_initialize_default_local_stdio_options 000000014018d10c f   LIBCMT:default_local_stdio_options.obj
 0001:0018c128       __scrt_is_user_matherr_present 000000014018d128 f   LIBCMT:matherr_detection.obj
 0001:0018c134       __scrt_get_dyn_tls_init_callback 000000014018d134 f   LIBCMT:dyn_tls_init.obj
 0001:0018c13c       __scrt_get_dyn_tls_dtor_callback 000000014018d13c f   LIBCMT:dyn_tls_dtor.obj
 0001:0018c144       _RTC_Initialize            000000014018d144 f   LIBCMT:_initsect_.obj
 0001:0018c190       _RTC_Terminate             000000014018d190 f   LIBCMT:_initsect_.obj
 0001:0018c1e0       ?_ExecutionInCatch@@YAHPEAU_xDISPATCHER_CONTEXT@@PEBU_s_FuncInfo@@@Z 000000014018d1e0 f   libvcruntime:trnsctrl.obj
 0001:0018c254       ?_GetEstablisherFrame@@YAPEA_KPEA_KPEAU_xDISPATCHER_CONTEXT@@PEBU_s_FuncInfo@@0@Z 000000014018d254 f   libvcruntime:trnsctrl.obj
 0001:0018c320       ?_GetRangeOfTrysToCheck@@YAPEBU_s_TryBlockMapEntry@@PEA_KPEBU_s_FuncInfo@@HHPEAI2PEAU_xDISPATCHER_CONTEXT@@@Z 000000014018d320 f   libvcruntime:trnsctrl.obj
 0001:0018c44c       ?__FrameUnwindToEmptyState@@YAXPEA_KPEAU_xDISPATCHER_CONTEXT@@PEBU_s_FuncInfo@@@Z 000000014018d44c f   libvcruntime:trnsctrl.obj
 0001:0018c4e0       ?__SehTransFilter@@YAHPEAU_EXCEPTION_POINTERS@@PEAUEHExceptionRecord@@PEA_KPEAU_CONTEXT@@PEAU_xDISPATCHER_CONTEXT@@PEBU_s_FuncInfo@@PEAH@Z 000000014018d4e0 f   libvcruntime:trnsctrl.obj
 0001:0018c578       _CallSETranslator          000000014018d578 f   libvcruntime:trnsctrl.obj
 0001:0018c5d0       _CreateFrameInfo           000000014018d5d0 f   libvcruntime:trnsctrl.obj
 0001:0018c60c       _FindAndUnlinkFrame        000000014018d60c f   libvcruntime:trnsctrl.obj
 0001:0018c664       _GetImageBase              000000014018d664 f   libvcruntime:trnsctrl.obj
 0001:0018c678       _GetThrowImageBase         000000014018d678 f   libvcruntime:trnsctrl.obj
 0001:0018c68c       _IsExceptionObjectToBeDestroyed 000000014018d68c f   libvcruntime:trnsctrl.obj
 0001:0018c6bc       _SetImageBase              000000014018d6bc f   libvcruntime:trnsctrl.obj
 0001:0018c6d4       _SetThrowImageBase         000000014018d6d4 f   libvcruntime:trnsctrl.obj
 0001:0018c6ec       _UnwindNestedFrames        000000014018d6ec f   libvcruntime:trnsctrl.obj
 0001:0018c810       __CxxFrameHandler3         000000014018d810 f   libvcruntime:trnsctrl.obj
 0001:0018c8a0       memcpy                     000000014018d8a0 f   libvcruntime:memcpy.obj
 0001:0018c8a0       memmove                    000000014018d8a0 f   libvcruntime:memcpy.obj
 0001:0018ccd8       __DestructExceptionObject  000000014018dcd8 f   libvcruntime:frame.obj
 0001:0018cd60       ??0bad_exception@std@@QEAA@AEBV01@@Z 000000014018dd60 f i libvcruntime:frame.obj
 0001:0018cda0       ??0bad_exception@std@@QEAA@XZ 000000014018dda0 f i libvcruntime:frame.obj
 0001:0018d71c       ?_CallMemberFunction0@@YAXPEAXP6AX0@Z@Z 000000014018e71c f i libvcruntime:frame.obj
 0001:0018d720       ?_CallMemberFunction1@@YAXPEAXP6AX0@Z0@Z 000000014018e720 f i libvcruntime:frame.obj
 0001:0018d72c       ?_CallMemberFunction2@@YAXPEAXP6AX0@Z0H@Z 000000014018e72c f i libvcruntime:frame.obj
 0001:0018d73c       __AdjustPointer            000000014018e73c f   libvcruntime:frame.obj
 0001:0018d760       __BuildCatchObject         000000014018e760 f   libvcruntime:frame.obj
 0001:0018d824       __BuildCatchObjectHelper   000000014018e824 f   libvcruntime:frame.obj
 0001:0018da04       __CxxCallCatchBlock        000000014018ea04 f   libvcruntime:frame.obj
 0001:0018dbf0       __FrameUnwindFilter        000000014018ebf0 f   libvcruntime:frame.obj
 0001:0018dc3c       __FrameUnwindToState       000000014018ec3c f   libvcruntime:frame.obj
 0001:0018ddd0       __InternalCxxFrameHandler  000000014018edd0 f   libvcruntime:frame.obj
 0001:0018e028       __TypeMatch                000000014018f028 f   libvcruntime:frame.obj
 0001:0018e168       __std_terminate            000000014018f168 f   libvcruntime:frame.obj
 0001:0018e174       wcschr                     000000014018f174 f   libvcruntime:wcschr.obj
 0001:0018e208       wcsstr                     000000014018f208 f   libvcruntime:wcsstr.obj
 0001:0018e408       wcsrchr                    000000014018f408 f   libvcruntime:wcsrchr.obj
 0001:0018e4b8       strrchr                    000000014018f4b8 f   libvcruntime:strrchr.obj
 0001:0018e5f8       _purecall                  000000014018f5f8 f   libvcruntime:purevirt.obj
 0001:0018e630       memchr                     000000014018f630 f   libvcruntime:memchr.obj
 0001:0018e64c       __C_specific_handler       000000014018f64c f   libvcruntime:_chandler_.obj
 0001:0018e848       strchr                     000000014018f848 f   libvcruntime:strchr.obj
 0001:0018e8d4       __std_exception_copy       000000014018f8d4 f   libvcruntime:std_exception.obj
 0001:0018e964       __std_exception_destroy    000000014018f964 f   libvcruntime:std_exception.obj
 0001:0018e98c       _CxxThrowException         000000014018f98c f   libvcruntime:throw.obj
 0001:0018ec3c       __vcrt_FlsAlloc            000000014018fc3c f   libvcruntime:winapi_downlevel.obj
 0001:0018ec90       __vcrt_FlsFree             000000014018fc90 f   libvcruntime:winapi_downlevel.obj
 0001:0018ece4       __vcrt_FlsGetValue         000000014018fce4 f   libvcruntime:winapi_downlevel.obj
 0001:0018ed38       __vcrt_FlsSetValue         000000014018fd38 f   libvcruntime:winapi_downlevel.obj
 0001:0018eda0       __vcrt_InitializeCriticalSectionEx 000000014018fda0 f   libvcruntime:winapi_downlevel.obj
 0001:0018ee18       __vcrt_initialize_winapi_thunks 000000014018fe18 f   libvcruntime:winapi_downlevel.obj
 0001:0018ee5c       __vcrt_uninitialize_winapi_thunks 000000014018fe5c f   libvcruntime:winapi_downlevel.obj
 0001:0018ee9c       __vcrt_initialize          000000014018fe9c f   libvcruntime:initialization.obj
 0001:0018eed0       __vcrt_uninitialize        000000014018fed0 f   libvcruntime:initialization.obj
 0001:0018ef00       memset                     000000014018ff00 f   libvcruntime:memset.obj
 0001:0018f0a0       __std_type_info_compare    00000001401900a0 f   libvcruntime:std_type_info.obj
 0001:0018f0c8       __vcrt_freefls             00000001401900c8 f   libvcruntime:per_thread_data.obj
 0001:0018f0e8       __vcrt_getptd              00000001401900e8 f   libvcruntime:per_thread_data.obj
 0001:0018f104       __vcrt_getptd_noexit       0000000140190104 f   libvcruntime:per_thread_data.obj
 0001:0018f1bc       __vcrt_initialize_ptd      00000001401901bc f   libvcruntime:per_thread_data.obj
 0001:0018f1fc       __vcrt_uninitialize_ptd    00000001401901fc f   libvcruntime:per_thread_data.obj
 0001:0018f220       ?__GetCurrentState@@YAHPEA_KPEAU_xDISPATCHER_CONTEXT@@PEBU_s_FuncInfo@@@Z 0000000140190220 f   libvcruntime:ehstate.obj
 0001:0018f248       ?__GetUnwindTryBlock@@YAHPEA_KPEAU_xDISPATCHER_CONTEXT@@PEBU_s_FuncInfo@@@Z 0000000140190248 f   libvcruntime:ehstate.obj
 0001:0018f274       ?__SetState@@YAXPEA_KPEAU_xDISPATCHER_CONTEXT@@PEBU_s_FuncInfo@@H@Z 0000000140190274 f   libvcruntime:ehstate.obj
 0001:0018f280       ?__SetUnwindTryBlock@@YAXPEA_KPEAU_xDISPATCHER_CONTEXT@@PEBU_s_FuncInfo@@H@Z 0000000140190280 f   libvcruntime:ehstate.obj
 0001:0018f2bc       ?__StateFromControlPc@@YAHPEBU_s_FuncInfo@@PEAU_xDISPATCHER_CONTEXT@@@Z 00000001401902bc f   libvcruntime:ehstate.obj
 0001:0018f2c4       ?__StateFromIp@@YAHPEBU_s_FuncInfo@@PEAU_xDISPATCHER_CONTEXT@@_J@Z 00000001401902c4 f   libvcruntime:ehstate.obj
 0001:0018f340       _CallSettingFrame          0000000140190340 f   libvcruntime:handlers.obj
 0001:0018f380       __except_validate_context_record 0000000140190380 f   libvcruntime:jbcxrval.obj
 0001:0018f3d0       _local_unwind              00000001401903d0 f   libvcruntime:_jmpuwind_.obj
 0001:0018f400       _NLG_Notify                0000000140190400 f   libvcruntime:_jmpuwind_.obj
 0001:0018f420       __NLG_Dispatch2            0000000140190420 f   libvcruntime:_jmpuwind_.obj
 0001:0018f430       __NLG_Return2              0000000140190430 f   libvcruntime:_jmpuwind_.obj
 0001:0018f434       __vcrt_initialize_pure_virtual_call_handler 0000000140190434 f   libvcruntime:purevirt_data.obj
 0001:0018f458       __vcrt_initialize_locks    0000000140190458 f   libvcruntime:locks.obj
 0001:0018f4a0       __vcrt_uninitialize_locks  00000001401904a0 f   libvcruntime:locks.obj
 0001:0018f4d8       wcspbrk                    00000001401904d8 f   libucrt:wcspbrk.obj
 0001:0018f510       wcsncmp                    0000000140190510 f   libucrt:wcsncmp.obj
 0001:0018f5e8       _ltow                      00000001401905e8 f   libucrt:xtoa.obj
 0001:0018f5e8       _itow                      00000001401905e8 f   libucrt:xtoa.obj
 0001:0018f618       _ultow                     0000000140190618 f   libucrt:xtoa.obj
 0001:0018f7f0       ??$ensure_buffer_is_big_enough@D@formatting_buffer@__crt_stdio_output@@QEAA_N_K@Z 00000001401907f0 f i libucrt:output.obj
 0001:0018f89c       ??$is_wide_character_specifier@D@__crt_stdio_output@@YA_N_KDW4length_modifier@0@@Z 000000014019089c f i libucrt:output.obj
 0001:0018f8cc       ??$is_wide_character_specifier@_W@__crt_stdio_output@@YA_N_K_WW4length_modifier@0@@Z 00000001401908cc f i libucrt:output.obj
 0001:0018f910       ??$type_case_integer_parse_into_buffer@I@?$output_processor@DV?$string_output_adapter@D@__crt_stdio_output@@V?$standard_base@DV?$string_output_adapter@D@__crt_stdio_output@@@2@@__crt_stdio_output@@AEAAXII_N@Z 0000000140190910 f i libucrt:output.obj
 0001:0018f910       ??$type_case_integer_parse_into_buffer@I@?$output_processor@_WV?$string_output_adapter@_W@__crt_stdio_output@@V?$format_validation_base@_WV?$string_output_adapter@_W@__crt_stdio_output@@@2@@__crt_stdio_output@@AEAAXII_N@Z 0000000140190910 f i libucrt:output.obj
 0001:0018f9ac       ??$type_case_integer_parse_into_buffer@_K@?$output_processor@DV?$string_output_adapter@D@__crt_stdio_output@@V?$standard_base@DV?$string_output_adapter@D@__crt_stdio_output@@@2@@__crt_stdio_output@@AEAAX_KI_N@Z 00000001401909ac f i libucrt:output.obj
 0001:0018f9ac       ??$type_case_integer_parse_into_buffer@_K@?$output_processor@_WV?$string_output_adapter@_W@__crt_stdio_output@@V?$format_validation_base@_WV?$string_output_adapter@_W@__crt_stdio_output@@@2@@__crt_stdio_output@@AEAAX_KI_N@Z 00000001401909ac f i libucrt:output.obj
 0001:0018fa48       ??$write_multiple_characters@V?$string_output_adapter@D@__crt_stdio_output@@D@__crt_stdio_output@@YAXAEBV?$string_output_adapter@D@0@DHQEAH@Z 0000000140190a48 f i libucrt:output.obj
 0001:0018faa4       ??$write_multiple_characters@V?$string_output_adapter@_W@__crt_stdio_output@@D@__crt_stdio_output@@YAXAEBV?$string_output_adapter@_W@0@DHQEAH@Z 0000000140190aa4 f i libucrt:output.obj
 0001:0018fb14       ??0?$output_processor@DV?$string_output_adapter@D@__crt_stdio_output@@V?$standard_base@DV?$string_output_adapter@D@__crt_stdio_output@@@2@@__crt_stdio_output@@QEAA@AEBV?$string_output_adapter@D@1@_KQEBDQEAU__crt_locale_pointers@@QEAD@Z 0000000140190b14 f i libucrt:output.obj
 0001:0018fb90       ??0?$output_processor@_WV?$string_output_adapter@_W@__crt_stdio_output@@V?$format_validation_base@_WV?$string_output_adapter@_W@__crt_stdio_output@@@2@@__crt_stdio_output@@QEAA@AEBV?$string_output_adapter@_W@1@_KQEB_WQEAU__crt_locale_pointers@@QEAD@Z 0000000140190b90 f i libucrt:output.obj
 0001:0018fc10       ??0_LocaleUpdate@@QEAA@QEAU__crt_locale_pointers@@@Z 0000000140190c10 f i libucrt:output.obj
 0001:0018fca0       ?force_decimal_point@__crt_stdio_output@@YAXPEADQEAU__crt_locale_pointers@@@Z 0000000140190ca0 f i libucrt:output.obj
 0001:0018fd10       ?parse_int_from_format_string@?$output_processor@DV?$string_output_adapter@D@__crt_stdio_output@@V?$standard_base@DV?$string_output_adapter@D@__crt_stdio_output@@@2@@__crt_stdio_output@@AEAA_NQEAH@Z 0000000140190d10 f i libucrt:output.obj
 0001:0018fd94       ?parse_int_from_format_string@?$output_processor@_WV?$string_output_adapter@_W@__crt_stdio_output@@V?$format_validation_base@_WV?$string_output_adapter@_W@__crt_stdio_output@@@2@@__crt_stdio_output@@AEAA_NQEAH@Z 0000000140190d94 f i libucrt:output.obj
 0001:0018fe14       ?process@?$output_processor@DV?$string_output_adapter@D@__crt_stdio_output@@V?$standard_base@DV?$string_output_adapter@D@__crt_stdio_output@@@2@@__crt_stdio_output@@QEAAHXZ 0000000140190e14 f i libucrt:output.obj
 0001:00190018       ?process@?$output_processor@_WV?$string_output_adapter@_W@__crt_stdio_output@@V?$format_validation_base@_WV?$string_output_adapter@_W@__crt_stdio_output@@@2@@__crt_stdio_output@@QEAAHXZ 0000000140191018 f i libucrt:output.obj
 0001:001902a0       ?state_case_normal@?$output_processor@DV?$string_output_adapter@D@__crt_stdio_output@@V?$standard_base@DV?$string_output_adapter@D@__crt_stdio_output@@@2@@__crt_stdio_output@@AEAA_NXZ 00000001401912a0 f i libucrt:output.obj
 0001:00190314       ?state_case_normal_tchar@?$output_processor@DV?$string_output_adapter@D@__crt_stdio_output@@V?$standard_base@DV?$string_output_adapter@D@__crt_stdio_output@@@2@@__crt_stdio_output@@AEAA_ND@Z 0000000140191314 f i libucrt:output.obj
 0001:001903ac       ?state_case_size@?$output_processor@DV?$string_output_adapter@D@__crt_stdio_output@@V?$standard_base@DV?$string_output_adapter@D@__crt_stdio_output@@@2@@__crt_stdio_output@@AEAA_NXZ 00000001401913ac f i libucrt:output.obj
 0001:00190528       ?state_case_size@?$output_processor@_WV?$string_output_adapter@_W@__crt_stdio_output@@V?$format_validation_base@_WV?$string_output_adapter@_W@__crt_stdio_output@@@2@@__crt_stdio_output@@AEAA_NXZ 0000000140191528 f i libucrt:output.obj
 0001:001906cc       ?state_case_type@?$output_processor@DV?$string_output_adapter@D@__crt_stdio_output@@V?$standard_base@DV?$string_output_adapter@D@__crt_stdio_output@@@2@@__crt_stdio_output@@AEAA_NXZ 00000001401916cc f i libucrt:output.obj
 0001:00190948       ?state_case_type@?$output_processor@_WV?$string_output_adapter@_W@__crt_stdio_output@@V?$format_validation_base@_WV?$string_output_adapter@_W@__crt_stdio_output@@@2@@__crt_stdio_output@@AEAA_NXZ 0000000140191948 f i libucrt:output.obj
 0001:00190c14       ?type_case_Z@?$output_processor@DV?$string_output_adapter@D@__crt_stdio_output@@V?$standard_base@DV?$string_output_adapter@D@__crt_stdio_output@@@2@@__crt_stdio_output@@AEAA_NXZ 0000000140191c14 f i libucrt:output.obj
 0001:00190c94       ?type_case_Z@?$output_processor@_WV?$string_output_adapter@_W@__crt_stdio_output@@V?$format_validation_base@_WV?$string_output_adapter@_W@__crt_stdio_output@@@2@@__crt_stdio_output@@AEAA_NXZ 0000000140191c94 f i libucrt:output.obj
 0001:00190d14       ?type_case_a@?$output_processor@DV?$string_output_adapter@D@__crt_stdio_output@@V?$standard_base@DV?$string_output_adapter@D@__crt_stdio_output@@@2@@__crt_stdio_output@@AEAA_NXZ 0000000140191d14 f i libucrt:output.obj
 0001:00190f30       ?type_case_a@?$output_processor@_WV?$string_output_adapter@_W@__crt_stdio_output@@V?$format_validation_base@_WV?$string_output_adapter@_W@__crt_stdio_output@@@2@@__crt_stdio_output@@AEAA_NXZ 0000000140191f30 f i libucrt:output.obj
 0001:00191174       ?type_case_c_tchar@?$output_processor@DV?$string_output_adapter@D@__crt_stdio_output@@V?$standard_base@DV?$string_output_adapter@D@__crt_stdio_output@@@2@@__crt_stdio_output@@AEAA_ND@Z 0000000140192174 f i libucrt:output.obj
 0001:00191228       ?type_case_c_tchar@?$output_processor@_WV?$string_output_adapter@_W@__crt_stdio_output@@V?$format_validation_base@_WV?$string_output_adapter@_W@__crt_stdio_output@@@2@@__crt_stdio_output@@AEAA_N_W@Z 0000000140192228 f i libucrt:output.obj
 0001:001912d0       ?type_case_integer@?$output_processor@_WV?$string_output_adapter@_W@__crt_stdio_output@@V?$format_validation_base@_WV?$string_output_adapter@_W@__crt_stdio_output@@@2@@__crt_stdio_output@@AEAA_NI_N@Z 00000001401922d0 f i libucrt:output.obj
 0001:001912d0       ?type_case_integer@?$output_processor@DV?$string_output_adapter@D@__crt_stdio_output@@V?$standard_base@DV?$string_output_adapter@D@__crt_stdio_output@@@2@@__crt_stdio_output@@AEAA_NI_N@Z 00000001401922d0 f i libucrt:output.obj
 0001:00191470       ?type_case_n@?$output_processor@DV?$string_output_adapter@D@__crt_stdio_output@@V?$standard_base@DV?$string_output_adapter@D@__crt_stdio_output@@@2@@__crt_stdio_output@@AEAA_NXZ 0000000140192470 f i libucrt:output.obj
 0001:00191470       ?type_case_n@?$output_processor@_WV?$string_output_adapter@_W@__crt_stdio_output@@V?$format_validation_base@_WV?$string_output_adapter@_W@__crt_stdio_output@@@2@@__crt_stdio_output@@AEAA_NXZ 0000000140192470 f i libucrt:output.obj
 0001:0019154c       ?type_case_s@?$output_processor@DV?$string_output_adapter@D@__crt_stdio_output@@V?$standard_base@DV?$string_output_adapter@D@__crt_stdio_output@@@2@@__crt_stdio_output@@AEAA_NXZ 000000014019254c f i libucrt:output.obj
 0001:001915dc       ?type_case_s@?$output_processor@_WV?$string_output_adapter@_W@__crt_stdio_output@@V?$format_validation_base@_WV?$string_output_adapter@_W@__crt_stdio_output@@@2@@__crt_stdio_output@@AEAA_NXZ 00000001401925dc f i libucrt:output.obj
 0001:001916a4       ?write_stored_string_tchar@?$output_processor@DV?$string_output_adapter@D@__crt_stdio_output@@V?$standard_base@DV?$string_output_adapter@D@__crt_stdio_output@@@2@@__crt_stdio_output@@AEAA_ND@Z 00000001401926a4 f i libucrt:output.obj
 0001:0019177c       ?write_stored_string_tchar@?$output_processor@_WV?$string_output_adapter@_W@__crt_stdio_output@@V?$format_validation_base@_WV?$string_output_adapter@_W@__crt_stdio_output@@@2@@__crt_stdio_output@@AEAA_N_W@Z 000000014019277c f i libucrt:output.obj
 0001:0019186c       ?write_string@?$string_output_adapter@D@__crt_stdio_output@@QEBAXQEBDHQEAH1@Z 000000014019286c f i libucrt:output.obj
 0001:00191928       ?write_string@?$string_output_adapter@_W@__crt_stdio_output@@QEBAXQEB_WHQEAH1@Z 0000000140192928 f i libucrt:output.obj
 0001:001919e8       __stdio_common_vsprintf    00000001401929e8 f   libucrt:output.obj
 0001:00191c1c       __stdio_common_vswprintf_s 0000000140192c1c f   libucrt:output.obj
 0001:00191c8c       isdigit                    0000000140192c8c f i libucrt:_ctype.obj
 0001:00191d00       ??$is_overflow_condition@K@__crt_strtox@@YA_NIK@Z 0000000140192d00 f i libucrt:strtox.obj
 0001:00191d2c       ??$is_overflow_condition@_K@__crt_strtox@@YA_NI_K@Z 0000000140192d2c f i libucrt:strtox.obj
 0001:00191d64       ??$make_c_string_character_source@_W$$T@__crt_strtox@@YA?AV?$c_string_character_source@_W@0@QEB_W$$T@Z 0000000140192d64 f i libucrt:atox.obj
 0001:00191d64       ??$make_c_string_character_source@DPEAPEAD@__crt_strtox@@YA?AV?$c_string_character_source@D@0@QEBDQEAPEAD@Z 0000000140192d64 f i libucrt:strtox.obj
 0001:00191d64       ??$make_c_string_character_source@_WPEAPEA_W@__crt_strtox@@YA?AV?$c_string_character_source@_W@0@QEB_WQEAPEA_W@Z 0000000140192d64 f i libucrt:strtox.obj
 0001:00191d78       ??$parse_integer@KV?$c_string_character_source@D@__crt_strtox@@@__crt_strtox@@YAKQEAU__crt_locale_pointers@@V?$c_string_character_source@D@0@H_N@Z 0000000140192d78 f i libucrt:strtox.obj
 0001:0019208c       ??$parse_integer@KV?$c_string_character_source@_W@__crt_strtox@@@__crt_strtox@@YAKQEAU__crt_locale_pointers@@V?$c_string_character_source@_W@0@H_N@Z 000000014019308c f i libucrt:strtox.obj
 0001:00192760       ??$parse_integer@_KV?$c_string_character_source@_W@__crt_strtox@@@__crt_strtox@@YA_KQEAU__crt_locale_pointers@@V?$c_string_character_source@_W@0@H_N@Z 0000000140193760 f i libucrt:strtox.obj
 0001:00192f18       _wcstoui64                 0000000140193f18 f   libucrt:strtox.obj
 0001:00192f48       strtol                     0000000140193f48 f   libucrt:strtox.obj
 0001:00192f78       strtoul                    0000000140193f78 f   libucrt:strtox.obj
 0001:00192fa8       wcstol                     0000000140193fa8 f   libucrt:strtox.obj
 0001:00192fd8       wcstoul                    0000000140193fd8 f   libucrt:strtox.obj
 0001:00193058       _tolower_l                 0000000140194058 f   libucrt:tolower_toupper.obj
 0001:00193198       tolower                    0000000140194198 f   libucrt:tolower_toupper.obj
 0001:001931c4       _wtoi                      00000001401941c4 f   libucrt:atox.obj
 0001:001931c4       _wtol                      00000001401941c4 f   libucrt:atox.obj
 0001:001931f0       wmemmove_s                 00000001401941f0 f   libucrt:wmemmove_s.obj
 0001:00193244       __acrt_call_reportfault    0000000140194244 f   libucrt:invalid_parameter.obj
 0001:001933a0       __acrt_initialize_invalid_parameter_handler 00000001401943a0 f   libucrt:invalid_parameter.obj
 0001:001933a8       _invalid_parameter         00000001401943a8 f   libucrt:invalid_parameter.obj
 0001:00193450       _invalid_parameter_noinfo  0000000140194450 f   libucrt:invalid_parameter.obj
 0001:00193470       _invalid_parameter_noinfo_noreturn 0000000140194470 f   libucrt:invalid_parameter.obj
 0001:001934a0       _invoke_watson             00000001401944a0 f   libucrt:invalid_parameter.obj
 0001:001935c0       qsort                      00000001401945c0 f   libucrt:qsort.obj
 0001:001938f4       bsearch                    00000001401948f4 f   libucrt:bsearch.obj
 0001:001939f8       wcscpy_s                   00000001401949f8 f   libucrt:wcscpy_s.obj
 0001:00193a60       wcsncpy                    0000000140194a60 f   libucrt:wcsncpy.obj
 0001:00193aa8       _seh_filter_exe            0000000140194aa8 f   libucrt:exception_filter.obj
 0001:00193e68       __acrt_initialize_thread_local_exit_callback 0000000140194e68 f   libucrt:exit.obj
 0001:00193e70       _c_exit                    0000000140194e70 f   libucrt:exit.obj
 0001:00193e80       _cexit                     0000000140194e80 f   libucrt:exit.obj
 0001:00193e90       _exit                      0000000140194e90 f   libucrt:exit.obj
 0001:00193e9c       _register_thread_local_exe_atexit_callback 0000000140194e9c f   libucrt:exit.obj
 0001:00193ee0       exit                       0000000140194ee0 f   libucrt:exit.obj
 0001:001940a8       __acrt_allocate_buffer_for_argv 00000001401950a8 f   libucrt:argv_parsing.obj
 0001:0019410c       _configure_narrow_argv     000000014019510c f   libucrt:argv_parsing.obj
 0001:00194468       __dcrt_uninitialize_environments_nolock 0000000140195468 f   libucrt:environment_initialization.obj
 0001:001944a0       _initialize_narrow_environment 00000001401954a0 f   libucrt:environment_initialization.obj
 0001:001944a8       ??$?RV<lambda_b8c45f8f788dd370798f47cfe8ac3a86>@@AEAV<lambda_4e60a939b0d047cfe11ddc22648dfba9>@@V<lambda_332c3edc96d0294ec56c57d38c1cdfd5>@@@?$__crt_seh_guarded_call@H@@QEAAH$$QEAV<lambda_b8c45f8f788dd370798f47cfe8ac3a86>@@AEAV<lambda_4e60a939b0d047cfe11ddc22648dfba9>@@$$QEAV<lambda_332c3edc96d0294ec56c57d38c1cdfd5>@@@Z 00000001401954a8 f i libucrt:onexit.obj
 0001:001944e4       ??$?RV<lambda_e24bbb7b643b32fcea6fa61b31d4c984>@@AEAV<lambda_275893d493268fdec8709772e3fcec0e>@@V<lambda_9d71df4d7cf3f480f8d633942495c3b0>@@@?$__crt_seh_guarded_call@H@@QEAAH$$QEAV<lambda_e24bbb7b643b32fcea6fa61b31d4c984>@@AEAV<lambda_275893d493268fdec8709772e3fcec0e>@@$$QEAV<lambda_9d71df4d7cf3f480f8d633942495c3b0>@@@Z 00000001401954e4 f i libucrt:onexit.obj
 0001:00194860       _crt_atexit                0000000140195860 f   libucrt:onexit.obj
 0001:00194870       _execute_onexit_table      0000000140195870 f   libucrt:onexit.obj
 0001:001948ac       _initialize_onexit_table   00000001401958ac f   libucrt:onexit.obj
 0001:001948ec       _register_onexit_function  00000001401958ec f   libucrt:onexit.obj
 0001:00194a68       __acrt_initialize          0000000140195a68 f   libucrt:initialization.obj
 0001:00194a7c       __acrt_uninitialize        0000000140195a7c f   libucrt:initialization.obj
 0001:00194a90       terminate                  0000000140195a90 f   libucrt:terminate.obj
 0001:00194ab8       _query_app_type            0000000140195ab8 f   libucrt:report_runtime_error.obj
 0001:00194ac0       _set_app_type              0000000140195ac0 f   libucrt:report_runtime_error.obj
 0001:00194ac8       __acrt_has_user_matherr    0000000140195ac8 f   libucrt:matherr.obj
 0001:00194ae8       __acrt_initialize_user_matherr 0000000140195ae8 f   libucrt:matherr.obj
 0001:00194af0       __acrt_invoke_user_matherr 0000000140195af0 f   libucrt:matherr.obj
 0001:00194b38       __setusermatherr           0000000140195b38 f   libucrt:matherr.obj
 0001:00194b60       _get_narrow_winmain_command_line 0000000140195b60 f   libucrt:argv_winmain.obj
 0001:00194bd0       _initterm                  0000000140195bd0 f   libucrt:initterm.obj
 0001:00194c48       _initterm_e                0000000140195c48 f   libucrt:initterm.obj
 0001:00194c94       _set_fmode                 0000000140195c94 f   libucrt:setmode.obj
 0001:00194cd4       __acrt_set_locale_changed  0000000140195cd4 f   libucrt:wsetlocale.obj
 0001:00194ce0       __acrt_uninitialize_locale 0000000140195ce0 f   libucrt:wsetlocale.obj
 0001:00194d28       _configthreadlocale        0000000140195d28 f   libucrt:wsetlocale.obj
 0001:00194d94       _query_new_mode            0000000140195d94 f   libucrt:new_mode.obj
 0001:00194d9c       _set_new_mode              0000000140195d9c f   libucrt:new_mode.obj
 0001:00194dc8       __p__commode               0000000140195dc8 f   libucrt:ncommode.obj
 0001:00194dd0       abort                      0000000140195dd0 f   libucrt:abort.obj
 0001:00194e28       free                       0000000140195e28 f   libucrt:free.obj
 0001:00194e30       malloc                     0000000140195e30 f   libucrt:malloc.obj
 0001:00194e38       strcpy_s                   0000000140195e38 f   libucrt:strcpy_s.obj
 0001:00194e98       _free_base                 0000000140195e98 f   libucrt:free_base.obj
 0001:00194ed8       _malloc_base               0000000140195ed8 f   libucrt:malloc_base.obj
 0001:00194f38       _calloc_base               0000000140195f38 f   libucrt:calloc_base.obj
 0001:00194fb0       __acrt_errno_from_os_error 0000000140195fb0 f   libucrt:errno.obj
 0001:00194ff8       __acrt_errno_map_os_error  0000000140195ff8 f   libucrt:errno.obj
 0001:00195048       __doserrno                 0000000140196048 f   libucrt:errno.obj
 0001:00195068       _errno                     0000000140196068 f   libucrt:errno.obj
 0001:00195088       _mbtowc_l                  0000000140196088 f   libucrt:mbtowc.obj
 0001:001951d0       mbtowc                     00000001401961d0 f   libucrt:mbtowc.obj
 0001:001951d8       _wctomb_s_l                00000001401961d8 f   libucrt:wctomb.obj
 0001:0019535c       wctomb_s                   000000014019635c f   libucrt:wctomb.obj
 0001:00195370       strnlen                    0000000140196370 f   libucrt:strnlen.obj
 0001:001954cc       wcsnlen                    00000001401964cc f   libucrt:strnlen.obj
 0001:001956bc       ??$?RV<lambda_46352004c1216016012b18bd6f87e700>@@AEAV<lambda_3bd07e1a1191394380780325891bf33f>@@V<lambda_334532d3f185bcaa59b5be82d7d22bff>@@@?$__crt_seh_guarded_call@X@@QEAAX$$QEAV<lambda_46352004c1216016012b18bd6f87e700>@@AEAV<lambda_3bd07e1a1191394380780325891bf33f>@@$$QEAV<lambda_334532d3f185bcaa59b5be82d7d22bff>@@@Z 00000001401966bc f i libucrt:per_thread_data.obj
 0001:0019571c       ??$?RV<lambda_5e887d1dcbef67a5eb4283622ba103bf>@@AEAV<lambda_4466841279450cc726390878d4a41900>@@V<lambda_341c25c0346d94847f1f3c463c57e077>@@@?$__crt_seh_guarded_call@X@@QEAAX$$QEAV<lambda_5e887d1dcbef67a5eb4283622ba103bf>@@AEAV<lambda_4466841279450cc726390878d4a41900>@@$$QEAV<lambda_341c25c0346d94847f1f3c463c57e077>@@@Z 000000014019671c f i libucrt:per_thread_data.obj
 0001:00195764       ??$?RV<lambda_72d1df2b273a38828b1ce30cbf4cdab5>@@AEAV<lambda_876a65b173b8412d3a47c70a915b0cf4>@@V<lambda_41932305e351933ebe8f8be3ed8bb5dc>@@@?$__crt_seh_guarded_call@X@@QEAAX$$QEAV<lambda_72d1df2b273a38828b1ce30cbf4cdab5>@@AEAV<lambda_876a65b173b8412d3a47c70a915b0cf4>@@$$QEAV<lambda_41932305e351933ebe8f8be3ed8bb5dc>@@@Z 0000000140196764 f i libucrt:per_thread_data.obj
 0001:001957a4       ??$?RV<lambda_fb3a7dec4e47f37f22dae91bb15c9095>@@AEAV<lambda_698284760c8add0bfb0756c19673e34b>@@V<lambda_dfb8eca1e75fef3034a8fb18dd509707>@@@?$__crt_seh_guarded_call@X@@QEAAX$$QEAV<lambda_fb3a7dec4e47f37f22dae91bb15c9095>@@AEAV<lambda_698284760c8add0bfb0756c19673e34b>@@$$QEAV<lambda_dfb8eca1e75fef3034a8fb18dd509707>@@@Z 00000001401967a4 f i libucrt:per_thread_data.obj
 0001:00195a34       __acrt_getptd              0000000140196a34 f   libucrt:per_thread_data.obj
 0001:00195ac8       __acrt_getptd_noexit       0000000140196ac8 f   libucrt:per_thread_data.obj
 0001:00195b68       __acrt_initialize_ptd      0000000140196b68 f   libucrt:per_thread_data.obj
 0001:00195ba4       __acrt_uninitialize_ptd    0000000140196ba4 f   libucrt:per_thread_data.obj
 0001:00195bc8       __acrt_update_locale_info  0000000140196bc8 f   libucrt:locale_update.obj
 0001:00195bfc       __acrt_update_multibyte_info 0000000140196bfc f   libucrt:locale_update.obj
 0001:00195c30       ?__acrt_fp_classify@@YA?AW4__acrt_fp_class@@AEBN@Z 0000000140196c30 f i libucrt:cvt.obj
 0001:00196668       __acrt_fp_format           0000000140197668 f   libucrt:cvt.obj
 0001:001968ac       _fileno                    00000001401978ac f   libucrt:fileno.obj
 0001:001968d4       __acrt_initialize_stdio    00000001401978d4 f   libucrt:_file.obj
 0001:001969f4       __acrt_uninitialize_stdio  00000001401979f4 f   libucrt:_file.obj
 0001:00196a50       _lock_file                 0000000140197a50 f   libucrt:_file.obj
 0001:00196a5c       _unlock_file               0000000140197a5c f   libucrt:_file.obj
 0001:00196a68       _get_printf_count_output   0000000140197a68 f   libucrt:printf_count_output.obj
 0001:00196c68       __acrt_initialize_lowio    0000000140197c68 f   libucrt:ioinit.obj
 0001:00196ca4       __acrt_uninitialize_lowio  0000000140197ca4 f   libucrt:ioinit.obj
 0001:00196ce4       __pctype_func              0000000140197ce4 f   libucrt:ctype.obj
 0001:00196d14       _isctype_l                 0000000140197d14 f   libucrt:isctype.obj
 0001:00196e24       iswctype                   0000000140197e24 f   libucrt:iswctype.obj
 0001:00196e94       _isleadbyte_l              0000000140197e94 f i libucrt:_wctype.obj
 0001:00197230       __acrt_LCMapStringA        0000000140198230 f   libucrt:lcmapstringa.obj
 0001:001972c8       __acrt_initialize_locks    00000001401982c8 f   libucrt:locks.obj
 0001:00197310       __acrt_lock                0000000140198310 f   libucrt:locks.obj
 0001:0019732c       __acrt_uninitialize_locks  000000014019832c f   libucrt:locks.obj
 0001:00197364       __acrt_unlock              0000000140198364 f   libucrt:locks.obj
 0001:00197520       __acrt_FlsAlloc            0000000140198520 f   libucrt:winapi_thunks.obj
 0001:00197578       __acrt_FlsFree             0000000140198578 f   libucrt:winapi_thunks.obj
 0001:001975d0       __acrt_FlsGetValue         00000001401985d0 f   libucrt:winapi_thunks.obj
 0001:00197628       __acrt_FlsSetValue         0000000140198628 f   libucrt:winapi_thunks.obj
 0001:00197690       __acrt_InitializeCriticalSectionEx 0000000140198690 f   libucrt:winapi_thunks.obj
 0001:00197708       __acrt_LCMapStringEx       0000000140198708 f   libucrt:winapi_thunks.obj
 0001:001977f8       __acrt_LocaleNameToLCID    00000001401987f8 f   libucrt:winapi_thunks.obj
 0001:00197860       __acrt_initialize_winapi_thunks 0000000140198860 f   libucrt:winapi_thunks.obj
 0001:00197898       __acrt_is_packaged_app     0000000140198898 f   libucrt:winapi_thunks.obj
 0001:00197920       __acrt_uninitialize_winapi_thunks 0000000140198920 f   libucrt:winapi_thunks.obj
 0001:00197e40       ?expand_if_necessary@?$argument_list@D@?A0xca0879c4@@AEAAHXZ 0000000140198e40 f i libucrt:argv_wildcards.obj
 0001:00197f08       __acrt_expand_narrow_argv_wildcards 0000000140198f08 f   libucrt:argv_wildcards.obj
 0001:00197f10       ??$?RV<lambda_99476a1ad63dd22509b5d3e65b0ffc95>@@AEAV<lambda_ad1ced32f4ac17aa236e5ef05d6b3b7c>@@V<lambda_f7424dd8d45958661754dc4f2697e9c3>@@@?$__crt_seh_guarded_call@X@@QEAAX$$QEAV<lambda_99476a1ad63dd22509b5d3e65b0ffc95>@@AEAV<lambda_ad1ced32f4ac17aa236e5ef05d6b3b7c>@@$$QEAV<lambda_f7424dd8d45958661754dc4f2697e9c3>@@@Z 0000000140198f10 f i libucrt:mbctype.obj
 0001:0019860c       __acrt_initialize_multibyte 000000014019960c f   libucrt:mbctype.obj
 0001:00198634       __acrt_update_thread_multibyte_data 0000000140199634 f   libucrt:mbctype.obj
 0001:001986f4       _setmbcp_nolock            00000001401996f4 f   libucrt:mbctype.obj
 0001:00198a14       _ismbblead                 0000000140199a14 f   libucrt:ismbbyte.obj
 0001:00198a28       __acrt_initialize_command_line 0000000140199a28 f   libucrt:argv_data.obj
 0001:00198a50       __dcrt_get_narrow_environment_from_os 0000000140199a50 f   libucrt:get_environment_from_os.obj
 0001:00198b54       _recalloc                  0000000140199b54 f   libucrt:recalloc.obj
 0001:00198b5c       _recalloc_base             0000000140199b5c f   libucrt:recalloc.obj
 0001:00198bf4       __acrt_initialize_heap     0000000140199bf4 f   libucrt:heap_handle.obj
 0001:00198c10       __acrt_uninitialize_heap   0000000140199c10 f   libucrt:heap_handle.obj
 0001:00198c1c       __acrt_execute_initializers 0000000140199c1c f   libucrt:shared_initialization.obj
 0001:00198cb0       __acrt_execute_uninitializers 0000000140199cb0 f   libucrt:shared_initialization.obj
 0001:00198d00       __acrt_initialize_new_handler 0000000140199d00 f   libucrt:new_handler.obj
 0001:00198d08       _callnewh                  0000000140199d08 f   libucrt:new_handler.obj
 0001:00198d48       _query_new_handler         0000000140199d48 f   libucrt:new_handler.obj
 0001:00198d7c       ??$?RV<lambda_c36588078e9f5dfd39652860aa6b3aaf>@@AEAV<lambda_ec61778202f4f5fc7e7711acc23c3bca>@@V<lambda_dc9d2797ccde5d239b4a0efae8ebd7db>@@@?$__crt_seh_guarded_call@P6AXH@Z@@QEAAP6AXH@Z$$QEAV<lambda_c36588078e9f5dfd39652860aa6b3aaf>@@AEAV<lambda_ec61778202f4f5fc7e7711acc23c3bca>@@$$QEAV<lambda_dc9d2797ccde5d239b4a0efae8ebd7db>@@@Z 0000000140199d7c f i libucrt:signal.obj
 0001:00198dc4       __acrt_get_sigabrt_handler 0000000140199dc4 f   libucrt:signal.obj
 0001:00198df4       __acrt_initialize_signal_handlers 0000000140199df4 f   libucrt:signal.obj
 0001:00198e14       raise                      0000000140199e14 f   libucrt:signal.obj
 0001:001990b0       __acrt_lowio_create_handle_array 000000014019a0b0 f   libucrt:osfinfo.obj
 0001:00199148       __acrt_lowio_destroy_handle_array 000000014019a148 f   libucrt:osfinfo.obj
 0001:00199198       __acrt_lowio_ensure_fh_exists 000000014019a198 f   libucrt:osfinfo.obj
 0001:00199250       __acrt_lowio_lock_fh       000000014019a250 f   libucrt:osfinfo.obj
 0001:00199274       __acrt_lowio_unlock_fh     000000014019a274 f   libucrt:osfinfo.obj
 0001:00199298       _free_osfhnd               000000014019a298 f   libucrt:osfinfo.obj
 0001:00199354       _get_osfhandle             000000014019a354 f   libucrt:osfinfo.obj
 0001:001993cc       __acrt_locale_free_monetary 000000014019a3cc f   libucrt:initmon.obj
 0001:001994d8       __acrt_locale_free_numeric 000000014019a4d8 f   libucrt:initnum.obj
 0001:0019959c       __acrt_locale_free_time    000000014019a59c f   libucrt:inittime.obj
 0001:001996a4       __acrt_GetStringTypeA      000000014019a6a4 f   libucrt:getstringtypea.obj
 0001:00199858       __acrt_add_locale_ref      000000014019a858 f   libucrt:locale_refcounting.obj
 0001:001998e4       __acrt_free_locale         000000014019a8e4 f   libucrt:locale_refcounting.obj
 0001:00199a5c       __acrt_locale_add_lc_time_reference 000000014019aa5c f   libucrt:locale_refcounting.obj
 0001:00199a84       __acrt_locale_free_lc_time_if_unreferenced 000000014019aa84 f   libucrt:locale_refcounting.obj
 0001:00199abc       __acrt_locale_release_lc_time_reference 000000014019aabc f   libucrt:locale_refcounting.obj
 0001:00199ae4       __acrt_release_locale_ref  000000014019aae4 f   libucrt:locale_refcounting.obj
 0001:00199b8c       __acrt_update_thread_locale_data 000000014019ab8c f   libucrt:locale_refcounting.obj
 0001:00199bfc       _updatetlocinfoEx_nolock   000000014019abfc f   libucrt:locale_refcounting.obj
 0001:00199c64       __acrt_fp_strflt_to_string 000000014019ac64 f   libucrt:_fptostr.obj
 0001:00199d30       ?divide@__crt_strtox@@YA_KAEAUbig_integer@1@AEBU21@@Z 000000014019ad30 f i libucrt:cfout.obj
 0001:0019a200       __acrt_fltout              000000014019b200 f   libucrt:cfout.obj
 0001:0019b5f4       _fcloseall                 000000014019c5f4 f   libucrt:closeall.obj
 0001:0019b6a8       __acrt_stdio_flush_nolock  000000014019c6a8 f   libucrt:fflush.obj
 0001:0019b720       _fflush_nolock             000000014019c720 f   libucrt:fflush.obj
 0001:0019b76c       _flushall                  000000014019c76c f   libucrt:fflush.obj
 0001:0019b85c       __acrt_stdio_free_buffer_nolock 000000014019c85c f   libucrt:_freebuf.obj
 0001:0019b89c       _isatty                    000000014019c89c f   libucrt:isatty.obj
 0001:0019b8fc       __strncnt                  000000014019c8fc f   libucrt:strncnt.obj
 0001:0019b9dc       __acrt_DownlevelLocaleNameToLCID 000000014019c9dc f   libucrt:lcidtoname_downlevel.obj
 0001:0019ba10       strncpy_s                  000000014019ca10 f   libucrt:strncpy_s.obj
 0001:0019bae4       strpbrk                    000000014019cae4 f   libucrt:strpbrk.obj
 0001:0019bb84       _mbsdec                    000000014019cb84 f   libucrt:mbsdec.obj
 0001:0019bb8c       _mbsdec_l                  000000014019cb8c f   libucrt:mbsdec.obj
 0001:0019bc3c       _msize                     000000014019cc3c f   libucrt:msize.obj
 0001:0019bc78       _realloc_base              000000014019cc78 f   libucrt:realloc_base.obj
 0001:0019bcfc       fegetenv                   000000014019ccfc f   libucrt:fegetenv.obj
 0001:0019bd1c       fesetenv                   000000014019cd1c f   libucrt:fesetenv.obj
 0001:0019bd68       feholdexcept               000000014019cd68 f   libucrt:feholdexcept.obj
 0001:0019bdb8       ceil                       000000014019cdb8 f   libucrt:ceil.obj
 0001:0019be80       log10                      000000014019ce80 f   libucrt:log10.obj
 0001:0019c9cc       _write                     000000014019d9cc f   libucrt:write.obj
 0001:0019cab8       _write_nolock              000000014019dab8 f   libucrt:write.obj
 0001:0019ce38       _lseeki64_nolock           000000014019de38 f   libucrt:lseek.obj
 0001:0019ce40       _fclose_nolock             000000014019de40 f   libucrt:fclose.obj
 0001:0019cec4       fclose                     000000014019dec4 f   libucrt:fclose.obj
 0001:0019cf30       ??$?RV<lambda_b521505b218e5242e90febf6bfebc422>@@AEAV<lambda_6978c1fb23f02e42e1d9e99668cc68aa>@@V<lambda_314360699dd331753a4119843814e9a7>@@@?$__crt_seh_guarded_call@H@@QEAAH$$QEAV<lambda_b521505b218e5242e90febf6bfebc422>@@AEAV<lambda_6978c1fb23f02e42e1d9e99668cc68aa>@@$$QEAV<lambda_314360699dd331753a4119843814e9a7>@@@Z 000000014019df30 f i libucrt:commit.obj
 0001:0019cfbc       _commit                    000000014019dfbc f   libucrt:commit.obj
 0001:0019d050       _getfpcontrolword          000000014019e050 f   libucrt:_fenvutils.obj
 0001:0019d068       _getfpstatusword           000000014019e068 f   libucrt:_fenvutils.obj
 0001:0019d07c       _setfpcontrolword          000000014019e07c f   libucrt:_fenvutils.obj
 0001:0019d088       _setfpstatusword           000000014019e088 f   libucrt:_fenvutils.obj
 0001:0019d0d8       _clearfp                   000000014019e0d8 f   libucrt:ieee.obj
 0001:0019d12c       _controlfp                 000000014019e12c f   libucrt:ieee.obj
 0001:0019d138       _statusfp                  000000014019e138 f   libucrt:ieee.obj
 0001:0019d53c       _handle_error              000000014019e53c f   libucrt:libm_error.obj
 0001:0019d664       _handle_nan                000000014019e664 f   libucrt:libm_error.obj
 0001:0019d680       __acrt_initialize_fma3     000000014019e680 f   libucrt:fma3_available.obj
 0001:0019d6f0       _log10_special             000000014019e6f0 f   libucrt:log_special.obj
 0001:0019d7a8       _putwch_nolock             000000014019e7a8 f   libucrt:putwch.obj
 0001:0019d804       ??$?RV<lambda_bfedae4ebbf01fab1bb6dcc6a9e276e0>@@AEAV<lambda_2fe9b910cf3cbf4a0ab98a02ba45b3ec>@@V<lambda_237c231691f317818eb88cc1d5d642d6>@@@?$__crt_seh_guarded_call@H@@QEAAH$$QEAV<lambda_bfedae4ebbf01fab1bb6dcc6a9e276e0>@@AEAV<lambda_2fe9b910cf3cbf4a0ab98a02ba45b3ec>@@$$QEAV<lambda_237c231691f317818eb88cc1d5d642d6>@@@Z 000000014019e804 f i libucrt:close.obj
 0001:0019d878       _close                     000000014019e878 f   libucrt:close.obj
 0001:0019d91c       _close_nolock              000000014019e91c f   libucrt:close.obj
 0001:0019d9d8       ?__acrt_stdio_free_stream@@YAXV__crt_stdio_stream@@@Z 000000014019e9d8 f   libucrt:stream.obj
 0001:0019da30       _get_fpsr                  000000014019ea30 f   libucrt:fpsr.obj
 0001:0019da40       _set_fpsr                  000000014019ea40 f   libucrt:fpsr.obj
 0001:0019da4a       _fclrf                     000000014019ea4a f   libucrt:fpsr.obj
 0001:0019da5e       _frnd                      000000014019ea5e f   libucrt:fpsr.obj
 0001:0019da80       _raise_exc                 000000014019ea80 f   libucrt:fpexcept.obj
 0001:0019daa8       _raise_exc_ex              000000014019eaa8 f   libucrt:fpexcept.obj
 0001:0019ddb0       _set_errno_from_matherr    000000014019edb0 f   libucrt:fpexcept.obj
 0001:0019dde0       _clrfp                     000000014019ede0 f   libucrt:fpctrl.obj
 0001:0019de00       _ctrlfp                    000000014019ee00 f   libucrt:fpctrl.obj
 0001:0019de7c       _set_statfp                000000014019ee7c f   libucrt:fpctrl.obj
 0001:0019de9c       _statfp                    000000014019ee9c f   libucrt:fpctrl.obj
 0001:0019deb0       __dcrt_lowio_initialize_console_output 000000014019eeb0 f   libucrt:initcon.obj
 0001:0019deec       __dcrt_terminate_console_output 000000014019eeec f   libucrt:initcon.obj
 0001:0019df0c       IsProcessorFeaturePresent  000000014019ef0c f   kernel32:KERNEL32.dll
 0001:0019df12       RtlUnwindEx                000000014019ef12 f   kernel32:KERNEL32.dll
 0001:0019df18       __GSHandlerCheck           000000014019ef18 f   LIBCMT:_gshandler_.obj
 0001:0019df38       __GSHandlerCheckCommon     000000014019ef38 f   LIBCMT:_gshandler_.obj
 0001:0019dfa0       _FindPESection             000000014019efa0 f   LIBCMT:pesect.obj
 0001:0019dff0       _IsNonwritableInCurrentImage 000000014019eff0 f   LIBCMT:pesect.obj
 0001:0019e040       _ValidateImageBase         000000014019f040 f   LIBCMT:pesect.obj
 0001:0019e080       __chkstk                   000000014019f080 f   LIBCMT:_chkstk_.obj
 0001:0019e080       _alloca_probe              000000014019f080 f   LIBCMT:_chkstk_.obj
 0001:0019e0f0       memcmp                     000000014019f0f0 f   libvcruntime:memcmp.obj
 0001:0019e1b8       __GSHandlerCheck_EH        000000014019f1b8 f   LIBCMT:gshandlereh.obj
 0001:0019e238       ??0__non_rtti_object@std@@QEAA@AEBV01@@Z 000000014019f238 f i libvcruntime:rtti.obj
 0001:0019e278       ??0bad_cast@std@@QEAA@AEBV01@@Z 000000014019f278 f i libvcruntime:rtti.obj
 0001:0019e2b8       ??0bad_typeid@std@@QEAA@AEBV01@@Z 000000014019f2b8 f i libvcruntime:rtti.obj
 0001:0019e2f8       ??1bad_exception@std@@UEAA@XZ 000000014019f2f8 f i libvcruntime:frame.obj
 0001:0019e2f8       ??1length_error@std@@UEAA@XZ 000000014019f2f8 f i libcpmt:xthrow.obj
 0001:0019e2f8       ??1bad_alloc@std@@UEAA@XZ  000000014019f2f8 f i libcpmt:xthrow.obj
 0001:0019e2f8       ??1__non_rtti_object@std@@UEAA@XZ 000000014019f2f8 f i libvcruntime:rtti.obj
 0001:0019e2f8       ??1bad_cast@std@@UEAA@XZ   000000014019f2f8 f i libvcruntime:rtti.obj
 0001:0019e7a0       ?__construct_from_string_literal@__non_rtti_object@std@@SA?AV12@QEBD@Z 000000014019f7a0 f i libvcruntime:rtti.obj
 0001:0019e7b8       ?__construct_from_string_literal@bad_cast@std@@SA?AV12@QEBD@Z 000000014019f7b8 f i libvcruntime:rtti.obj
 0001:0019e7d0       __RTDynamicCast            000000014019f7d0 f   libvcruntime:rtti.obj
 0001:0019e94c       atan2                      000000014019f94c f   libucrt:atan2.obj
 0001:0019f0a0       cos                        00000001401a00a0 f   libucrt:cos.obj
 0001:0019f620       exp                        00000001401a0620 f   libucrt:exp.obj
 0001:0019fa18       floor                      00000001401a0a18 f   libucrt:floor.obj
 0001:0019fad0       pow                        00000001401a0ad0 f   libucrt:pow.obj
 0001:001a1170       sin                        00000001401a2170 f   libucrt:sin.obj
 0001:001a16dc       sqrt                       00000001401a26dc f   libucrt:sqrt.obj
 0001:001a17b0       __remainder_piby2_forAsm   00000001401a27b0 f   libucrt:remainder_piby2_forasm.obj
 0001:001a19c0       __remainder_piby2_cw_forAsm 00000001401a29c0 f   libucrt:remainder_piby2_forasm.obj
 0001:001a1b00       __remainder_piby2_fma3     00000001401a2b00 f   libucrt:remainder_piby2_forfma3.obj
 0001:001a1cf0       __remainder_piby2_fma3_bdl 00000001401a2cf0 f   libucrt:remainder_piby2_forfma3.obj
 0001:001a1d68       _cos_special               00000001401a2d68 f   libucrt:sincos_special.obj
 0001:001a1d7c       _sin_special               00000001401a2d7c f   libucrt:sincos_special.obj
 0001:001a1e40       _exp_special               00000001401a2e40 f   libucrt:exp_special.obj
 0001:001a1ee0       _pow_special               00000001401a2ee0 f   libucrt:pow_special.obj
 0001:001a2020       _guard_dispatch_icall_nop  00000001401a3020 f   LIBCMT:_guard_dispatch_.obj
 0002:00000000       __imp_RegQueryValueExW     00000001401a6000     advapi32:ADVAPI32.dll
 0002:00000008       __imp_RegOpenKeyExW        00000001401a6008     advapi32:ADVAPI32.dll
 0002:00000010       __imp_RegCloseKey          00000001401a6010     advapi32:ADVAPI32.dll
 0002:00000018       __imp_RegEnumValueW        00000001401a6018     advapi32:ADVAPI32.dll
 0002:00000020       __imp_RegDeleteValueW      00000001401a6020     advapi32:ADVAPI32.dll
 0002:00000028       __imp_RegSetValueExW       00000001401a6028     advapi32:ADVAPI32.dll
 0002:00000030       __imp_RegEnumKeyExW        00000001401a6030     advapi32:ADVAPI32.dll
 0002:00000038       __imp_RegDeleteKeyW        00000001401a6038     advapi32:ADVAPI32.dll
 0002:00000040       __imp_GetUserNameW         00000001401a6040     advapi32:ADVAPI32.dll
 0002:00000048       __imp_LookupPrivilegeValueW 00000001401a6048     advapi32:ADVAPI32.dll
 0002:00000050       __imp_AdjustTokenPrivileges 00000001401a6050     advapi32:ADVAPI32.dll
 0002:00000058       __imp_SetTokenInformation  00000001401a6058     advapi32:ADVAPI32.dll
 0002:00000060       __imp_CreateRestrictedToken 00000001401a6060     advapi32:ADVAPI32.dll
 0002:00000068       __imp_CreateProcessAsUserW 00000001401a6068     advapi32:ADVAPI32.dll
 0002:00000070       __imp_DuplicateTokenEx     00000001401a6070     advapi32:ADVAPI32.dll
 0002:00000078       __imp_RegCreateKeyExW      00000001401a6078     advapi32:ADVAPI32.dll
 0002:00000080       __imp_CreateProcessWithLogonW 00000001401a6080     advapi32:ADVAPI32.dll
 0002:00000088       __imp_AllocateAndInitializeSid 00000001401a6088     advapi32:ADVAPI32.dll
 0002:00000090       __imp_OpenProcessToken     00000001401a6090     advapi32:ADVAPI32.dll
 0002:00000098       __imp_FreeSid              00000001401a6098     advapi32:ADVAPI32.dll
 0002:000000a0       __imp_CheckTokenMembership 00000001401a60a0     advapi32:ADVAPI32.dll
 0002:000000a8       __imp_GetTokenInformation  00000001401a60a8     advapi32:ADVAPI32.dll
 0002:000000b0       __imp_LogonUserW           00000001401a60b0     advapi32:ADVAPI32.dll
 0002:000000b8       \177ADVAPI32_NULL_THUNK_DATA 00000001401a60b8     advapi32:ADVAPI32.dll
 0002:000000c0       __imp_CreateMappedBitmap   00000001401a60c0     comctl32:COMCTL32.dll
 0002:000000c8       __imp_ImageList_GetIcon    00000001401a60c8     comctl32:COMCTL32.dll
 0002:000000d0       __imp_ImageList_Destroy    00000001401a60d0     comctl32:COMCTL32.dll
 0002:000000d8       __imp_ImageList_Create     00000001401a60d8     comctl32:COMCTL32.dll
 0002:000000e0       __imp_ImageList_Merge      00000001401a60e0     comctl32:COMCTL32.dll
 0002:000000e8       __imp_ImageList_ReplaceIcon 00000001401a60e8     comctl32:COMCTL32.dll
 0002:000000f0       __imp_ImageList_AddMasked  00000001401a60f0     comctl32:COMCTL32.dll
 0002:000000f8       __imp_InitCommonControlsEx 00000001401a60f8     comctl32:COMCTL32.dll
 0002:00000100       \177COMCTL32_NULL_THUNK_DATA 00000001401a6100     comctl32:COMCTL32.dll
 0002:00000108       __imp_GetSaveFileNameW     00000001401a6108     comdlg32:COMDLG32.dll
 0002:00000110       __imp_ChooseColorW         00000001401a6110     comdlg32:COMDLG32.dll
 0002:00000118       __imp_GetOpenFileNameW     00000001401a6118     comdlg32:COMDLG32.dll
 0002:00000120       \177COMDLG32_NULL_THUNK_DATA 00000001401a6120     comdlg32:COMDLG32.dll
 0002:00000128       __imp_CreateFontW          00000001401a6128     gdi32:GDI32.dll
 0002:00000130       __imp_GetOutlineTextMetricsW 00000001401a6130     gdi32:GDI32.dll
 0002:00000138       __imp_RemoveFontResourceExW 00000001401a6138     gdi32:GDI32.dll
 0002:00000140       __imp_GetTextMetricsW      00000001401a6140     gdi32:GDI32.dll
 0002:00000148       __imp_GetTextFaceW         00000001401a6148     gdi32:GDI32.dll
 0002:00000150       __imp_GetTextExtentPointW  00000001401a6150     gdi32:GDI32.dll
 0002:00000158       __imp_AddFontResourceExW   00000001401a6158     gdi32:GDI32.dll
 0002:00000160       __imp_GetFontUnicodeRanges 00000001401a6160     gdi32:GDI32.dll
 0002:00000168       __imp_CreateSolidBrush     00000001401a6168     gdi32:GDI32.dll
 0002:00000170       __imp_EnumFontFamiliesW    00000001401a6170     gdi32:GDI32.dll
 0002:00000178       __imp_GetTextColor         00000001401a6178     gdi32:GDI32.dll
 0002:00000180       __imp_GetPixel             00000001401a6180     gdi32:GDI32.dll
 0002:00000188       __imp_GetTextExtentPoint32W 00000001401a6188     gdi32:GDI32.dll
 0002:00000190       __imp_MoveToEx             00000001401a6190     gdi32:GDI32.dll
 0002:00000198       __imp_CreatePen            00000001401a6198     gdi32:GDI32.dll
 0002:000001a0       __imp_LineTo               00000001401a61a0     gdi32:GDI32.dll
 0002:000001a8       __imp_SetStretchBltMode    00000001401a61a8     gdi32:GDI32.dll
 0002:000001b0       __imp_StretchBlt           00000001401a61b0     gdi32:GDI32.dll
 0002:000001b8       __imp_CreateBitmap         00000001401a61b8     gdi32:GDI32.dll
 0002:000001c0       __imp_FillRgn              00000001401a61c0     gdi32:GDI32.dll
 0002:000001c8       __imp_Rectangle            00000001401a61c8     gdi32:GDI32.dll
 0002:000001d0       __imp_TextOutW             00000001401a61d0     gdi32:GDI32.dll
 0002:000001d8       __imp_CreatePolyPolygonRgn 00000001401a61d8     gdi32:GDI32.dll
 0002:000001e0       __imp_GdiSetBatchLimit     00000001401a61e0     gdi32:GDI32.dll
 0002:000001e8       __imp_SetBkColor           00000001401a61e8     gdi32:GDI32.dll
 0002:000001f0       __imp_CreateFontIndirectW  00000001401a61f0     gdi32:GDI32.dll
 0002:000001f8       __imp_ExtTextOutA          00000001401a61f8     gdi32:GDI32.dll
 0002:00000200       __imp_EnumFontFamiliesExW  00000001401a6200     gdi32:GDI32.dll
 0002:00000208       __imp_ExtTextOutW          00000001401a6208     gdi32:GDI32.dll
 0002:00000210       __imp_CreatePolygonRgn     00000001401a6210     gdi32:GDI32.dll
 0002:00000218       __imp_OffsetRgn            00000001401a6218     gdi32:GDI32.dll
 0002:00000220       __imp_GetRgnBox            00000001401a6220     gdi32:GDI32.dll
 0002:00000228       __imp_CreateDCW            00000001401a6228     gdi32:GDI32.dll
 0002:00000230       __imp_BitBlt               00000001401a6230     gdi32:GDI32.dll
 0002:00000238       __imp_CreateRectRgn        00000001401a6238     gdi32:GDI32.dll
 0002:00000240       __imp_GetRegionData        00000001401a6240     gdi32:GDI32.dll
 0002:00000248       __imp_GetObjectW           00000001401a6248     gdi32:GDI32.dll
 0002:00000250       __imp_CombineRgn           00000001401a6250     gdi32:GDI32.dll
 0002:00000258       __imp_CreateCompatibleBitmap 00000001401a6258     gdi32:GDI32.dll
 0002:00000260       __imp_SelectObject         00000001401a6260     gdi32:GDI32.dll
 0002:00000268       __imp_CreateDIBSection     00000001401a6268     gdi32:GDI32.dll
 0002:00000270       __imp_CreateCompatibleDC   00000001401a6270     gdi32:GDI32.dll
 0002:00000278       __imp_GdiAlphaBlend        00000001401a6278     gdi32:GDI32.dll
 0002:00000280       __imp_GdiFlush             00000001401a6280     gdi32:GDI32.dll
 0002:00000288       __imp_PlayEnhMetaFile      00000001401a6288     gdi32:GDI32.dll
 0002:00000290       __imp_SetEnhMetaFileBits   00000001401a6290     gdi32:GDI32.dll
 0002:00000298       __imp_GetStockObject       00000001401a6298     gdi32:GDI32.dll
 0002:000002a0       __imp_DeleteEnhMetaFile    00000001401a62a0     gdi32:GDI32.dll
 0002:000002a8       __imp_DeleteDC             00000001401a62a8     gdi32:GDI32.dll
 0002:000002b0       __imp_DeleteObject         00000001401a62b0     gdi32:GDI32.dll
 0002:000002b8       __imp_SetTextColor         00000001401a62b8     gdi32:GDI32.dll
 0002:000002c0       __imp_SetBkMode            00000001401a62c0     gdi32:GDI32.dll
 0002:000002c8       __imp_CreateRectRgnIndirect 00000001401a62c8     gdi32:GDI32.dll
 0002:000002d0       __imp_GetDeviceCaps        00000001401a62d0     gdi32:GDI32.dll
 0002:000002d8       \177GDI32_NULL_THUNK_DATA  00000001401a62d8     gdi32:GDI32.dll
 0002:000002e0       __imp_OpenThread           00000001401a62e0     kernel32:KERNEL32.dll
 0002:000002e8       __imp_TryEnterCriticalSection 00000001401a62e8     kernel32:KERNEL32.dll
 0002:000002f0       __imp_EnterCriticalSection 00000001401a62f0     kernel32:KERNEL32.dll
 0002:000002f8       __imp_LeaveCriticalSection 00000001401a62f8     kernel32:KERNEL32.dll
 0002:00000300       __imp_InitializeCriticalSection 00000001401a6300     kernel32:KERNEL32.dll
 0002:00000308       __imp_DeleteCriticalSection 00000001401a6308     kernel32:KERNEL32.dll
 0002:00000310       __imp_LocalAlloc           00000001401a6310     kernel32:KERNEL32.dll
 0002:00000318       __imp_LocalFree            00000001401a6318     kernel32:KERNEL32.dll
 0002:00000320       __imp_lstrcmpiA            00000001401a6320     kernel32:KERNEL32.dll
 0002:00000328       __imp_lstrcpyW             00000001401a6328     kernel32:KERNEL32.dll
 0002:00000330       __imp_GetStdHandle         00000001401a6330     kernel32:KERNEL32.dll
 0002:00000338       __imp_FreeEnvironmentStringsW 00000001401a6338     kernel32:KERNEL32.dll
 0002:00000340       __imp_FindFirstFileW       00000001401a6340     kernel32:KERNEL32.dll
 0002:00000348       __imp_GetFileSizeEx        00000001401a6348     kernel32:KERNEL32.dll
 0002:00000350       __imp_WritePrivateProfileStringW 00000001401a6350     kernel32:KERNEL32.dll
 0002:00000358       __imp_FindNextFileW        00000001401a6358     kernel32:KERNEL32.dll
 0002:00000360       __imp_GetPrivateProfileIntW 00000001401a6360     kernel32:KERNEL32.dll
 0002:00000368       __imp_FindClose            00000001401a6368     kernel32:KERNEL32.dll
 0002:00000370       __imp_DeleteFileW          00000001401a6370     kernel32:KERNEL32.dll
 0002:00000378       __imp_GetFileSize          00000001401a6378     kernel32:KERNEL32.dll
 0002:00000380       __imp_GetFullPathNameW     00000001401a6380     kernel32:KERNEL32.dll
 0002:00000388       __imp_GetEnvironmentVariableW 00000001401a6388     kernel32:KERNEL32.dll
 0002:00000390       __imp_GetWindowsDirectoryW 00000001401a6390     kernel32:KERNEL32.dll
 0002:00000398       __imp_ResumeThread         00000001401a6398     kernel32:KERNEL32.dll
 0002:000003a0       __imp_TerminateThread      00000001401a63a0     kernel32:KERNEL32.dll
 0002:000003a8       __imp_RaiseException       00000001401a63a8     kernel32:KERNEL32.dll
 0002:000003b0       __imp_CreateThread         00000001401a63b0     kernel32:KERNEL32.dll
 0002:000003b8       __imp_lstrcatW             00000001401a63b8     kernel32:KERNEL32.dll
 0002:000003c0       __imp_CreateProcessW       00000001401a63c0     kernel32:KERNEL32.dll
 0002:000003c8       __imp_GetExitCodeProcess   00000001401a63c8     kernel32:KERNEL32.dll
 0002:000003d0       __imp_IsBadReadPtr         00000001401a63d0     kernel32:KERNEL32.dll
 0002:000003d8       __imp_GlobalSize           00000001401a63d8     kernel32:KERNEL32.dll
 0002:000003e0       __imp_SetProcessAffinityMask 00000001401a63e0     kernel32:KERNEL32.dll
 0002:000003e8       __imp_TerminateProcess     00000001401a63e8     kernel32:KERNEL32.dll
 0002:000003f0       __imp_CreateMutexW         00000001401a63f0     kernel32:KERNEL32.dll
 0002:000003f8       __imp_lstrcmpA             00000001401a63f8     kernel32:KERNEL32.dll
 0002:00000400       __imp_lstrcatA             00000001401a6400     kernel32:KERNEL32.dll
 0002:00000408       __imp_lstrcpyA             00000001401a6408     kernel32:KERNEL32.dll
 0002:00000410       __imp_SetCurrentDirectoryW 00000001401a6410     kernel32:KERNEL32.dll
 0002:00000418       __imp_ExitProcess          00000001401a6418     kernel32:KERNEL32.dll
 0002:00000420       __imp_CopyFileW            00000001401a6420     kernel32:KERNEL32.dll
 0002:00000428       __imp_GetOEMCP             00000001401a6428     kernel32:KERNEL32.dll
 0002:00000430       __imp_GetCommandLineW      00000001401a6430     kernel32:KERNEL32.dll
 0002:00000438       __imp_SetThreadPriority    00000001401a6438     kernel32:KERNEL32.dll
 0002:00000440       __imp_GetTempPathW         00000001401a6440     kernel32:KERNEL32.dll
 0002:00000448       __imp_GetACP               00000001401a6448     kernel32:KERNEL32.dll
 0002:00000450       __imp_GetConsoleMode       00000001401a6450     kernel32:KERNEL32.dll
 0002:00000458       __imp_FormatMessageW       00000001401a6458     kernel32:KERNEL32.dll
 0002:00000460       __imp_GetCurrentThread     00000001401a6460     kernel32:KERNEL32.dll
 0002:00000468       __imp_SetUnhandledExceptionFilter 00000001401a6468     kernel32:KERNEL32.dll
 0002:00000470       __imp_OpenProcess          00000001401a6470     kernel32:KERNEL32.dll
 0002:00000478       __imp_MulDiv               00000001401a6478     kernel32:KERNEL32.dll
 0002:00000480       __imp_SetFileAttributesW   00000001401a6480     kernel32:KERNEL32.dll
 0002:00000488       __imp_OutputDebugStringA   00000001401a6488     kernel32:KERNEL32.dll
 0002:00000490       __imp_OutputDebugStringW   00000001401a6490     kernel32:KERNEL32.dll
 0002:00000498       __imp_SizeofResource       00000001401a6498     kernel32:KERNEL32.dll
 0002:000004a0       __imp_LockResource         00000001401a64a0     kernel32:KERNEL32.dll
 0002:000004a8       __imp_LoadResource         00000001401a64a8     kernel32:KERNEL32.dll
 0002:000004b0       __imp_FindResourceW        00000001401a64b0     kernel32:KERNEL32.dll
 0002:000004b8       __imp_ReleaseSemaphore     00000001401a64b8     kernel32:KERNEL32.dll
 0002:000004c0       __imp_CreateNamedPipeW     00000001401a64c0     kernel32:KERNEL32.dll
 0002:000004c8       __imp_WaitForMultipleObjects 00000001401a64c8     kernel32:KERNEL32.dll
 0002:000004d0       __imp_DisconnectNamedPipe  00000001401a64d0     kernel32:KERNEL32.dll
 0002:000004d8       __imp_GetExitCodeThread    00000001401a64d8     kernel32:KERNEL32.dll
 0002:000004e0       __imp_GetOverlappedResult  00000001401a64e0     kernel32:KERNEL32.dll
 0002:000004e8       __imp_CreateSemaphoreW     00000001401a64e8     kernel32:KERNEL32.dll
 0002:000004f0       __imp_ConnectNamedPipe     00000001401a64f0     kernel32:KERNEL32.dll
 0002:000004f8       __imp_FlushFileBuffers     00000001401a64f8     kernel32:KERNEL32.dll
 0002:00000500       __imp_GetProcessHeap       00000001401a6500     kernel32:KERNEL32.dll
 0002:00000508       __imp_SystemTimeToFileTime 00000001401a6508     kernel32:KERNEL32.dll
 0002:00000510       __imp_CompareStringW       00000001401a6510     kernel32:KERNEL32.dll
 0002:00000518       __imp_QueryPerformanceFrequency 00000001401a6518     kernel32:KERNEL32.dll
 0002:00000520       __imp_QueryPerformanceCounter 00000001401a6520     kernel32:KERNEL32.dll
 0002:00000528       __imp_GetDriveTypeW        00000001401a6528     kernel32:KERNEL32.dll
 0002:00000530       __imp_CompareFileTime      00000001401a6530     kernel32:KERNEL32.dll
 0002:00000538       __imp_SetPriorityClass     00000001401a6538     kernel32:KERNEL32.dll
 0002:00000540       __imp_GetProcessAffinityMask 00000001401a6540     kernel32:KERNEL32.dll
 0002:00000548       __imp_GetPriorityClass     00000001401a6548     kernel32:KERNEL32.dll
 0002:00000550       __imp_GetTempFileNameW     00000001401a6550     kernel32:KERNEL32.dll
 0002:00000558       __imp_IsBadStringPtrW      00000001401a6558     kernel32:KERNEL32.dll
 0002:00000560       __imp_GetPrivateProfileStringW 00000001401a6560     kernel32:KERNEL32.dll
 0002:00000568       __imp_LCMapStringW         00000001401a6568     kernel32:KERNEL32.dll
 0002:00000570       __imp_GetStringTypeW       00000001401a6570     kernel32:KERNEL32.dll
 0002:00000578       __imp_GetFileType          00000001401a6578     kernel32:KERNEL32.dll
 0002:00000580       __imp_GetModuleFileNameA   00000001401a6580     kernel32:KERNEL32.dll
 0002:00000588       __imp_GetModuleHandleExW   00000001401a6588     kernel32:KERNEL32.dll
 0002:00000590       __imp_LoadLibraryExW       00000001401a6590     kernel32:KERNEL32.dll
 0002:00000598       __imp_TlsFree              00000001401a6598     kernel32:KERNEL32.dll
 0002:000005a0       __imp_TlsSetValue          00000001401a65a0     kernel32:KERNEL32.dll
 0002:000005a8       __imp_TlsGetValue          00000001401a65a8     kernel32:KERNEL32.dll
 0002:000005b0       __imp_TlsAlloc             00000001401a65b0     kernel32:KERNEL32.dll
 0002:000005b8       __imp_InitializeCriticalSectionAndSpinCount 00000001401a65b8     kernel32:KERNEL32.dll
 0002:000005c0       __imp_EncodePointer        00000001401a65c0     kernel32:KERNEL32.dll
 0002:000005c8       __imp_RtlPcToFileHeader    00000001401a65c8     kernel32:KERNEL32.dll
 0002:000005d0       __imp_RtlUnwindEx          00000001401a65d0     kernel32:KERNEL32.dll
 0002:000005d8       __imp_InitializeSListHead  00000001401a65d8     kernel32:KERNEL32.dll
 0002:000005e0       __imp_GetSystemTimeAsFileTime 00000001401a65e0     kernel32:KERNEL32.dll
 0002:000005e8       __imp_WaitForSingleObjectEx 00000001401a65e8     kernel32:KERNEL32.dll
 0002:000005f0       __imp_IsProcessorFeaturePresent 00000001401a65f0     kernel32:KERNEL32.dll
 0002:000005f8       __imp_UnhandledExceptionFilter 00000001401a65f8     kernel32:KERNEL32.dll
 0002:00000600       __imp_RtlVirtualUnwind     00000001401a6600     kernel32:KERNEL32.dll
 0002:00000608       __imp_RtlLookupFunctionEntry 00000001401a6608     kernel32:KERNEL32.dll
 0002:00000610       __imp_RtlCaptureContext    00000001401a6610     kernel32:KERNEL32.dll
 0002:00000618       __imp_Process32FirstW      00000001401a6618     kernel32:KERNEL32.dll
 0002:00000620       __imp_Process32NextW       00000001401a6620     kernel32:KERNEL32.dll
 0002:00000628       __imp_GetStartupInfoW      00000001401a6628     kernel32:KERNEL32.dll
 0002:00000630       __imp_GlobalUnlock         00000001401a6630     kernel32:KERNEL32.dll
 0002:00000638       __imp_GlobalLock           00000001401a6638     kernel32:KERNEL32.dll
 0002:00000640       __imp_GlobalFree           00000001401a6640     kernel32:KERNEL32.dll
 0002:00000648       __imp_GlobalAlloc          00000001401a6648     kernel32:KERNEL32.dll
 0002:00000650       __imp_WideCharToMultiByte  00000001401a6650     kernel32:KERNEL32.dll
 0002:00000658       __imp_GetLocalTime         00000001401a6658     kernel32:KERNEL32.dll
 0002:00000660       __imp_MultiByteToWideChar  00000001401a6660     kernel32:KERNEL32.dll
 0002:00000668       __imp_lstrlenA             00000001401a6668     kernel32:KERNEL32.dll
 0002:00000670       __imp_CreateDirectoryW     00000001401a6670     kernel32:KERNEL32.dll
 0002:00000678       __imp_ResetEvent           00000001401a6678     kernel32:KERNEL32.dll
 0002:00000680       __imp_SetEvent             00000001401a6680     kernel32:KERNEL32.dll
 0002:00000688       __imp_CreateEventW         00000001401a6688     kernel32:KERNEL32.dll
 0002:00000690       __imp_OpenEventW           00000001401a6690     kernel32:KERNEL32.dll
 0002:00000698       __imp_lstrcpynA            00000001401a6698     kernel32:KERNEL32.dll
 0002:000006a0       __imp_HeapDestroy          00000001401a66a0     kernel32:KERNEL32.dll
 0002:000006a8       __imp_HeapAlloc            00000001401a66a8     kernel32:KERNEL32.dll
 0002:000006b0       __imp_HeapReAlloc          00000001401a66b0     kernel32:KERNEL32.dll
 0002:000006b8       __imp_HeapSize             00000001401a66b8     kernel32:KERNEL32.dll
 0002:000006c0       __imp_HeapFree             00000001401a66c0     kernel32:KERNEL32.dll
 0002:000006c8       __imp_HeapCreate           00000001401a66c8     kernel32:KERNEL32.dll
 0002:000006d0       __imp_GetProcessTimes      00000001401a66d0     kernel32:KERNEL32.dll
 0002:000006d8       __imp_Module32NextW        00000001401a66d8     kernel32:KERNEL32.dll
 0002:000006e0       __imp_FileTimeToLocalFileTime 00000001401a66e0     kernel32:KERNEL32.dll
 0002:000006e8       __imp_FileTimeToSystemTime 00000001401a66e8     kernel32:KERNEL32.dll
 0002:000006f0       __imp_GetVersionExW        00000001401a66f0     kernel32:KERNEL32.dll
 0002:000006f8       __imp_GetCurrentProcess    00000001401a66f8     kernel32:KERNEL32.dll
 0002:00000700       __imp_DebugBreak           00000001401a6700     kernel32:KERNEL32.dll
 0002:00000708       __imp_VerifyVersionInfoW   00000001401a6708     kernel32:KERNEL32.dll
 0002:00000710       __imp_FreeLibrary          00000001401a6710     kernel32:KERNEL32.dll
 0002:00000718       __imp_ReadProcessMemory    00000001401a6718     kernel32:KERNEL32.dll
 0002:00000720       __imp_VerSetConditionMask  00000001401a6720     kernel32:KERNEL32.dll
 0002:00000728       __imp_Module32FirstW       00000001401a6728     kernel32:KERNEL32.dll
 0002:00000730       __imp_LoadLibraryW         00000001401a6730     kernel32:KERNEL32.dll
 0002:00000738       __imp_GetFileInformationByHandle 00000001401a6738     kernel32:KERNEL32.dll
 0002:00000740       __imp_CreateToolhelp32Snapshot 00000001401a6740     kernel32:KERNEL32.dll
 0002:00000748       __imp_SetFilePointer       00000001401a6748     kernel32:KERNEL32.dll
 0002:00000750       __imp_ExpandEnvironmentStringsW 00000001401a6750     kernel32:KERNEL32.dll
 0002:00000758       __imp_SearchPathW          00000001401a6758     kernel32:KERNEL32.dll
 0002:00000760       __imp_IsDebuggerPresent    00000001401a6760     kernel32:KERNEL32.dll
 0002:00000768       __imp_WaitNamedPipeW       00000001401a6768     kernel32:KERNEL32.dll
 0002:00000770       __imp_GetTickCount         00000001401a6770     kernel32:KERNEL32.dll
 0002:00000778       __imp_MapViewOfFile        00000001401a6778     kernel32:KERNEL32.dll
 0002:00000780       __imp_CreateFileMappingW   00000001401a6780     kernel32:KERNEL32.dll
 0002:00000788       __imp_GetConsoleWindow     00000001401a6788     kernel32:KERNEL32.dll
 0002:00000790       __imp_TransactNamedPipe    00000001401a6790     kernel32:KERNEL32.dll
 0002:00000798       __imp_GetCurrentProcessId  00000001401a6798     kernel32:KERNEL32.dll
 0002:000007a0       __imp_CloseHandle          00000001401a67a0     kernel32:KERNEL32.dll
 0002:000007a8       __imp_GetLastError         00000001401a67a8     kernel32:KERNEL32.dll
 0002:000007b0       __imp_Sleep                00000001401a67b0     kernel32:KERNEL32.dll
 0002:000007b8       __imp_UnmapViewOfFile      00000001401a67b8     kernel32:KERNEL32.dll
 0002:000007c0       __imp_OpenFileMappingW     00000001401a67c0     kernel32:KERNEL32.dll
 0002:000007c8       __imp_WriteConsoleW        00000001401a67c8     kernel32:KERNEL32.dll
 0002:000007d0       __imp_GetCurrentThreadId   00000001401a67d0     kernel32:KERNEL32.dll
 0002:000007d8       __imp_CreateFileW          00000001401a67d8     kernel32:KERNEL32.dll
 0002:000007e0       __imp_WaitForSingleObject  00000001401a67e0     kernel32:KERNEL32.dll
 0002:000007e8       __imp_GetModuleFileNameW   00000001401a67e8     kernel32:KERNEL32.dll
 0002:000007f0       __imp_WriteFile            00000001401a67f0     kernel32:KERNEL32.dll
 0002:000007f8       __imp_SetLastError         00000001401a67f8     kernel32:KERNEL32.dll
 0002:00000800       __imp_SetNamedPipeHandleState 00000001401a6800     kernel32:KERNEL32.dll
 0002:00000808       __imp_ReadFile             00000001401a6808     kernel32:KERNEL32.dll
 0002:00000810       __imp_GetModuleHandleW     00000001401a6810     kernel32:KERNEL32.dll
 0002:00000818       __imp_GetProcAddress       00000001401a6818     kernel32:KERNEL32.dll
 0002:00000820       __imp_GetCurrentDirectoryW 00000001401a6820     kernel32:KERNEL32.dll
 0002:00000828       __imp_lstrcmpW             00000001401a6828     kernel32:KERNEL32.dll
 0002:00000830       __imp_lstrcmpiW            00000001401a6830     kernel32:KERNEL32.dll
 0002:00000838       __imp_SetEnvironmentVariableW 00000001401a6838     kernel32:KERNEL32.dll
 0002:00000840       __imp_lstrcpynW            00000001401a6840     kernel32:KERNEL32.dll
 0002:00000848       __imp_lstrlenW             00000001401a6848     kernel32:KERNEL32.dll
 0002:00000850       __imp_FindFirstFileExA     00000001401a6850     kernel32:KERNEL32.dll
 0002:00000858       __imp_FindNextFileA        00000001401a6858     kernel32:KERNEL32.dll
 0002:00000860       __imp_IsValidCodePage      00000001401a6860     kernel32:KERNEL32.dll
 0002:00000868       __imp_GetCPInfo            00000001401a6868     kernel32:KERNEL32.dll
 0002:00000870       __imp_GetCommandLineA      00000001401a6870     kernel32:KERNEL32.dll
 0002:00000878       __imp_GetEnvironmentStringsW 00000001401a6878     kernel32:KERNEL32.dll
 0002:00000880       __imp_SetStdHandle         00000001401a6880     kernel32:KERNEL32.dll
 0002:00000888       __imp_GetConsoleCP         00000001401a6888     kernel32:KERNEL32.dll
 0002:00000890       __imp_SetFilePointerEx     00000001401a6890     kernel32:KERNEL32.dll
 0002:00000898       __imp_GetFileAttributesW   00000001401a6898     kernel32:KERNEL32.dll
 0002:000008a0       \177KERNEL32_NULL_THUNK_DATA 00000001401a68a0     kernel32:KERNEL32.dll
 0002:000008a8       __imp_NetApiBufferFree     00000001401a68a8     Netapi32:NETAPI32.dll
 0002:000008b0       __imp_NetUserEnum          00000001401a68b0     Netapi32:NETAPI32.dll
 0002:000008b8       \177NETAPI32_NULL_THUNK_DATA 00000001401a68b8     Netapi32:NETAPI32.dll
 0002:000008c0       __imp_SysAllocString       00000001401a68c0     oleaut32:OLEAUT32.dll
 0002:000008c8       __imp_SysFreeString        00000001401a68c8     oleaut32:OLEAUT32.dll
 0002:000008d0       __imp_VariantClear         00000001401a68d0     oleaut32:OLEAUT32.dll
 0002:000008d8       __imp_SysAllocStringLen    00000001401a68d8     oleaut32:OLEAUT32.dll
 0002:000008e0       __imp_VariantInit          00000001401a68e0     oleaut32:OLEAUT32.dll
 0002:000008e8       \177OLEAUT32_NULL_THUNK_DATA 00000001401a68e8     oleaut32:OLEAUT32.dll
 0002:000008f0       __imp_DragQueryFileW       00000001401a68f0     shell32:SHELL32.dll
 0002:000008f8       __imp_ShellExecuteW        00000001401a68f8     shell32:SHELL32.dll
 0002:00000900       __imp_ShellExecuteExW      00000001401a6900     shell32:SHELL32.dll
 0002:00000908       __imp_Shell_NotifyIconW    00000001401a6908     shell32:SHELL32.dll
 0002:00000910       __imp_SHGetDesktopFolder   00000001401a6910     shell32:SHELL32.dll
 0002:00000918       __imp_SHGetFileInfoW       00000001401a6918     shell32:SHELL32.dll
 0002:00000920       __imp_ILGetSize            00000001401a6920     shell32:SHELL32.dll
 0002:00000928       __imp_SHFileOperationW     00000001401a6928     shell32:SHELL32.dll
 0002:00000930       __imp_SHAppBarMessage      00000001401a6930     shell32:SHELL32.dll
 0002:00000938       __imp_SHGetPathFromIDListW 00000001401a6938     shell32:SHELL32.dll
 0002:00000940       __imp_SHBrowseForFolderW   00000001401a6940     shell32:SHELL32.dll
 0002:00000948       __imp_SHGetFolderPathW     00000001401a6948     shell32:SHELL32.dll
 0002:00000950       __imp_SHGetSpecialFolderPathW 00000001401a6950     shell32:SHELL32.dll
 0002:00000958       __imp_ExtractIconExW       00000001401a6958     shell32:SHELL32.dll
 0002:00000960       \177SHELL32_NULL_THUNK_DATA 00000001401a6960     shell32:SHELL32.dll
 0002:00000968       __imp_StrCmpIW             00000001401a6968     Shlwapi:SHLWAPI.dll
 0002:00000970       __imp_StrStrIW             00000001401a6970     Shlwapi:SHLWAPI.dll
 0002:00000978       __imp_StrStrW              00000001401a6978     Shlwapi:SHLWAPI.dll
 0002:00000980       \177SHLWAPI_NULL_THUNK_DATA 00000001401a6980     Shlwapi:SHLWAPI.dll
 0002:00000988       __imp_CallWindowProcW      00000001401a6988     user32:USER32.dll
 0002:00000990       __imp_GetWindowDC          00000001401a6990     user32:USER32.dll
 0002:00000998       __imp_GetCursorInfo        00000001401a6998     user32:USER32.dll
 0002:000009a0       __imp_GetIconInfo          00000001401a69a0     user32:USER32.dll
 0002:000009a8       __imp_ToUnicode            00000001401a69a8     user32:USER32.dll
 0002:000009b0       __imp_IsCharAlphaW         00000001401a69b0     user32:USER32.dll
 0002:000009b8       __imp_EnableMenuItem       00000001401a69b8     user32:USER32.dll
 0002:000009c0       __imp_GetMenuItemRect      00000001401a69c0     user32:USER32.dll
 0002:000009c8       __imp_TrackPopupMenuEx     00000001401a69c8     user32:USER32.dll
 0002:000009d0       __imp_InsertMenuW          00000001401a69d0     user32:USER32.dll
 0002:000009d8       __imp_SetMenuItemInfoW     00000001401a69d8     user32:USER32.dll
 0002:000009e0       __imp_GetWindowInfo        00000001401a69e0     user32:USER32.dll
 0002:000009e8       __imp_DeleteMenu           00000001401a69e8     user32:USER32.dll
 0002:000009f0       __imp_SetActiveWindow      00000001401a69f0     user32:USER32.dll
 0002:000009f8       __imp_GetMenuItemID        00000001401a69f8     user32:USER32.dll
 0002:00000a00       __imp_GetSystemMenu        00000001401a6a00     user32:USER32.dll
 0002:00000a08       __imp_GetMenuItemInfoW     00000001401a6a08     user32:USER32.dll
 0002:00000a10       __imp_SetClipboardData     00000001401a6a10     user32:USER32.dll
 0002:00000a18       __imp_GetClipboardData     00000001401a6a18     user32:USER32.dll
 0002:00000a20       __imp_EnumClipboardFormats 00000001401a6a20     user32:USER32.dll
 0002:00000a28       __imp_EmptyClipboard       00000001401a6a28     user32:USER32.dll
 0002:00000a30       __imp_CloseClipboard       00000001401a6a30     user32:USER32.dll
 0002:00000a38       __imp_OpenClipboard        00000001401a6a38     user32:USER32.dll
 0002:00000a40       __imp_SetDlgItemInt        00000001401a6a40     user32:USER32.dll
 0002:00000a48       __imp_GetDlgCtrlID         00000001401a6a48     user32:USER32.dll
 0002:00000a50       __imp_ValidateRect         00000001401a6a50     user32:USER32.dll
 0002:00000a58       __imp_LockSetForegroundWindow 00000001401a6a58     user32:USER32.dll
 0002:00000a60       __imp_SetDlgItemTextA      00000001401a6a60     user32:USER32.dll
 0002:00000a68       __imp_LoadIconW            00000001401a6a68     user32:USER32.dll
 0002:00000a70       __imp_GetNextDlgTabItem    00000001401a6a70     user32:USER32.dll
 0002:00000a78       __imp_ScrollWindowEx       00000001401a6a78     user32:USER32.dll
 0002:00000a80       __imp_GetScrollInfo        00000001401a6a80     user32:USER32.dll
 0002:00000a88       __imp_SetScrollInfo        00000001401a6a88     user32:USER32.dll
 0002:00000a90       __imp_keybd_event          00000001401a6a90     user32:USER32.dll
 0002:00000a98       __imp_EnableScrollBar      00000001401a6a98     user32:USER32.dll
 0002:00000aa0       __imp_InvalidateRgn        00000001401a6aa0     user32:USER32.dll
 0002:00000aa8       __imp_ShowScrollBar        00000001401a6aa8     user32:USER32.dll
 0002:00000ab0       __imp_SetRectEmpty         00000001401a6ab0     user32:USER32.dll
 0002:00000ab8       __imp_FlashWindow          00000001401a6ab8     user32:USER32.dll
 0002:00000ac0       __imp_GetCaretBlinkTime    00000001401a6ac0     user32:USER32.dll
 0002:00000ac8       __imp_DispatchMessageW     00000001401a6ac8     user32:USER32.dll
 0002:00000ad0       __imp_GetDoubleClickTime   00000001401a6ad0     user32:USER32.dll
 0002:00000ad8       __imp_CreateIcon           00000001401a6ad8     user32:USER32.dll
 0002:00000ae0       __imp_GetDlgItemInt        00000001401a6ae0     user32:USER32.dll
 0002:00000ae8       __imp_GetWindowLongW       00000001401a6ae8     user32:USER32.dll
 0002:00000af0       __imp_GetMessageW          00000001401a6af0     user32:USER32.dll
 0002:00000af8       __imp_DefWindowProcW       00000001401a6af8     user32:USER32.dll
 0002:00000b00       __imp_AdjustWindowRectEx   00000001401a6b00     user32:USER32.dll
 0002:00000b08       __imp_UnregisterHotKey     00000001401a6b08     user32:USER32.dll
 0002:00000b10       __imp_RegisterShellHookWindow 00000001401a6b10     user32:USER32.dll
 0002:00000b18       __imp_AllowSetForegroundWindow 00000001401a6b18     user32:USER32.dll
 0002:00000b20       __imp_SendMessageTimeoutW  00000001401a6b20     user32:USER32.dll
 0002:00000b28       __imp_GetFocus             00000001401a6b28     user32:USER32.dll
 0002:00000b30       __imp_DeregisterShellHookWindow 00000001401a6b30     user32:USER32.dll
 0002:00000b38       __imp_EnumChildWindows     00000001401a6b38     user32:USER32.dll
 0002:00000b40       __imp_ScreenToClient       00000001401a6b40     user32:USER32.dll
 0002:00000b48       __imp_ChildWindowFromPointEx 00000001401a6b48     user32:USER32.dll
 0002:00000b50       __imp_GetShellWindow       00000001401a6b50     user32:USER32.dll
 0002:00000b58       __imp_RegisterClassExW     00000001401a6b58     user32:USER32.dll
 0002:00000b60       __imp_WindowFromPoint      00000001401a6b60     user32:USER32.dll
 0002:00000b68       __imp_IsDialogMessageW     00000001401a6b68     user32:USER32.dll
 0002:00000b70       __imp_DialogBoxIndirectParamW 00000001401a6b70     user32:USER32.dll
 0002:00000b78       __imp_GetKeyboardLayoutNameW 00000001401a6b78     user32:USER32.dll
 0002:00000b80       __imp_ClientToScreen       00000001401a6b80     user32:USER32.dll
 0002:00000b88       __imp_AnimateWindow        00000001401a6b88     user32:USER32.dll
 0002:00000b90       __imp_AttachThreadInput    00000001401a6b90     user32:USER32.dll
 0002:00000b98       __imp_RegisterHotKey       00000001401a6b98     user32:USER32.dll
 0002:00000ba0       __imp_UnhookWindowsHookEx  00000001401a6ba0     user32:USER32.dll
 0002:00000ba8       __imp_SetLayeredWindowAttributes 00000001401a6ba8     user32:USER32.dll
 0002:00000bb0       __imp_TranslateMessage     00000001401a6bb0     user32:USER32.dll
 0002:00000bb8       __imp_SetParent            00000001401a6bb8     user32:USER32.dll
 0002:00000bc0       __imp_SetCapture           00000001401a6bc0     user32:USER32.dll
 0002:00000bc8       __imp_SetWindowsHookExW    00000001401a6bc8     user32:USER32.dll
 0002:00000bd0       __imp_FlashWindowEx        00000001401a6bd0     user32:USER32.dll
 0002:00000bd8       __imp_SetWindowLongW       00000001401a6bd8     user32:USER32.dll
 0002:00000be0       __imp_IsZoomed             00000001401a6be0     user32:USER32.dll
 0002:00000be8       __imp_PostQuitMessage      00000001401a6be8     user32:USER32.dll
 0002:00000bf0       __imp_GetDesktopWindow     00000001401a6bf0     user32:USER32.dll
 0002:00000bf8       __imp_CharLowerBuffW       00000001401a6bf8     user32:USER32.dll
 0002:00000c00       __imp_GetParent            00000001401a6c00     user32:USER32.dll
 0002:00000c08       __imp_RegisterWindowMessageW 00000001401a6c08     user32:USER32.dll
 0002:00000c10       __imp_ReleaseCapture       00000001401a6c10     user32:USER32.dll
 0002:00000c18       __imp_LoadImageW           00000001401a6c18     user32:USER32.dll
 0002:00000c20       __imp_InvalidateRect       00000001401a6c20     user32:USER32.dll
 0002:00000c28       __imp_IsIconic             00000001401a6c28     user32:USER32.dll
 0002:00000c30       __imp_SetCursorPos         00000001401a6c30     user32:USER32.dll
 0002:00000c38       __imp_GetGUIThreadInfo     00000001401a6c38     user32:USER32.dll
 0002:00000c40       __imp_BeginPaint           00000001401a6c40     user32:USER32.dll
 0002:00000c48       __imp_EndPaint             00000001401a6c48     user32:USER32.dll
 0002:00000c50       __imp_RegisterClipboardFormatW 00000001401a6c50     user32:USER32.dll
 0002:00000c58       __imp_GetClipboardFormatNameW 00000001401a6c58     user32:USER32.dll
 0002:00000c60       __imp_FillRect             00000001401a6c60     user32:USER32.dll
 0002:00000c68       __imp_PostMessageW         00000001401a6c68     user32:USER32.dll
 0002:00000c70       __imp_RedrawWindow         00000001401a6c70     user32:USER32.dll
 0002:00000c78       __imp_MapWindowPoints      00000001401a6c78     user32:USER32.dll
 0002:00000c80       __imp_MoveWindow           00000001401a6c80     user32:USER32.dll
 0002:00000c88       __imp_IsDlgButtonChecked   00000001401a6c88     user32:USER32.dll
 0002:00000c90       __imp_EnumWindows          00000001401a6c90     user32:USER32.dll
 0002:00000c98       __imp_CheckDlgButton       00000001401a6c98     user32:USER32.dll
 0002:00000ca0       __imp_PtInRect             00000001401a6ca0     user32:USER32.dll
 0002:00000ca8       __imp_EnableWindow         00000001401a6ca8     user32:USER32.dll
 0002:00000cb0       __imp_IsWindowVisible      00000001401a6cb0     user32:USER32.dll
 0002:00000cb8       __imp_SetWindowLongPtrW    00000001401a6cb8     user32:USER32.dll
 0002:00000cc0       __imp_EndDialog            00000001401a6cc0     user32:USER32.dll
 0002:00000cc8       __imp_SetWindowTextW       00000001401a6cc8     user32:USER32.dll
 0002:00000cd0       __imp_SetClassLongPtrW     00000001401a6cd0     user32:USER32.dll
 0002:00000cd8       __imp_SetDlgItemTextW      00000001401a6cd8     user32:USER32.dll
 0002:00000ce0       __imp_GetSysColor          00000001401a6ce0     user32:USER32.dll
 0002:00000ce8       __imp_MessageBoxIndirectW  00000001401a6ce8     user32:USER32.dll
 0002:00000cf0       __imp_SetFocus             00000001401a6cf0     user32:USER32.dll
 0002:00000cf8       __imp_LoadCursorW          00000001401a6cf8     user32:USER32.dll
 0002:00000d00       __imp_SetCursor            00000001401a6d00     user32:USER32.dll
 0002:00000d08       __imp_GetDlgItem           00000001401a6d08     user32:USER32.dll
 0002:00000d10       __imp_GetSysColorBrush     00000001401a6d10     user32:USER32.dll
 0002:00000d18       __imp_ShowWindowAsync      00000001401a6d18     user32:USER32.dll
 0002:00000d20       __imp_ShowWindow           00000001401a6d20     user32:USER32.dll
 0002:00000d28       __imp_SetForegroundWindow  00000001401a6d28     user32:USER32.dll
 0002:00000d30       __imp_GetWindowThreadProcessId 00000001401a6d30     user32:USER32.dll
 0002:00000d38       __imp_GetKeyState          00000001401a6d38     user32:USER32.dll
 0002:00000d40       __imp_DestroyWindow        00000001401a6d40     user32:USER32.dll
 0002:00000d48       __imp_SetWindowPos         00000001401a6d48     user32:USER32.dll
 0002:00000d50       __imp_CreateWindowExW      00000001401a6d50     user32:USER32.dll
 0002:00000d58       __imp_SendMessageW         00000001401a6d58     user32:USER32.dll
 0002:00000d60       __imp_GetClientRect        00000001401a6d60     user32:USER32.dll
 0002:00000d68       __imp_CreateDialogIndirectParamW 00000001401a6d68     user32:USER32.dll
 0002:00000d70       __imp_DrawTextExW          00000001401a6d70     user32:USER32.dll
 0002:00000d78       __imp_PostThreadMessageW   00000001401a6d78     user32:USER32.dll
 0002:00000d80       __imp_DrawIconEx           00000001401a6d80     user32:USER32.dll
 0002:00000d88       __imp_CreatePopupMenu      00000001401a6d88     user32:USER32.dll
 0002:00000d90       __imp_AppendMenuW          00000001401a6d90     user32:USER32.dll
 0002:00000d98       __imp_OffsetRect           00000001401a6d98     user32:USER32.dll
 0002:00000da0       __imp_CheckRadioButton     00000001401a6da0     user32:USER32.dll
 0002:00000da8       __imp_GetDlgItemTextW      00000001401a6da8     user32:USER32.dll
 0002:00000db0       __imp_SendDlgItemMessageW  00000001401a6db0     user32:USER32.dll
 0002:00000db8       __imp_CharLowerBuffA       00000001401a6db8     user32:USER32.dll
 0002:00000dc0       __imp_DrawTextW            00000001401a6dc0     user32:USER32.dll
 0002:00000dc8       __imp_EqualRect            00000001401a6dc8     user32:USER32.dll
 0002:00000dd0       __imp_GetWindowPlacement   00000001401a6dd0     user32:USER32.dll
 0002:00000dd8       __imp_SwitchToThisWindow   00000001401a6dd8     user32:USER32.dll
 0002:00000de0       __imp_IsWindowEnabled      00000001401a6de0     user32:USER32.dll
 0002:00000de8       __imp_DestroyIcon          00000001401a6de8     user32:USER32.dll
 0002:00000df0       __imp_FindWindowW          00000001401a6df0     user32:USER32.dll
 0002:00000df8       __imp_CheckMenuItem        00000001401a6df8     user32:USER32.dll
 0002:00000e00       __imp_UpdateWindow         00000001401a6e00     user32:USER32.dll
 0002:00000e08       __imp_CallNextHookEx       00000001401a6e08     user32:USER32.dll
 0002:00000e10       __imp_CharUpperBuffW       00000001401a6e10     user32:USER32.dll
 0002:00000e18       __imp_VkKeyScanW           00000001401a6e18     user32:USER32.dll
 0002:00000e20       __imp_MapVirtualKeyW       00000001401a6e20     user32:USER32.dll
 0002:00000e28       __imp_GetClassNameW        00000001401a6e28     user32:USER32.dll
 0002:00000e30       __imp_IsWindow             00000001401a6e30     user32:USER32.dll
 0002:00000e38       __imp_GetWindowLongPtrW    00000001401a6e38     user32:USER32.dll
 0002:00000e40       __imp_MessageBoxW          00000001401a6e40     user32:USER32.dll
 0002:00000e48       __imp_DestroyMenu          00000001401a6e48     user32:USER32.dll
 0002:00000e50       __imp_GetWindowTextLengthW 00000001401a6e50     user32:USER32.dll
 0002:00000e58       __imp_SetWindowRgn         00000001401a6e58     user32:USER32.dll
 0002:00000e60       __imp_UnregisterClassW     00000001401a6e60     user32:USER32.dll
 0002:00000e68       __imp_PeekMessageW         00000001401a6e68     user32:USER32.dll
 0002:00000e70       __imp_GetActiveWindow      00000001401a6e70     user32:USER32.dll
 0002:00000e78       __imp_SetTimer             00000001401a6e78     user32:USER32.dll
 0002:00000e80       __imp_KillTimer            00000001401a6e80     user32:USER32.dll
 0002:00000e88       __imp_FindWindowExW        00000001401a6e88     user32:USER32.dll
 0002:00000e90       __imp_MonitorFromRect      00000001401a6e90     user32:USER32.dll
 0002:00000e98       __imp_MonitorFromWindow    00000001401a6e98     user32:USER32.dll
 0002:00000ea0       __imp_EnumDisplayMonitors  00000001401a6ea0     user32:USER32.dll
 0002:00000ea8       __imp_IsRectEmpty          00000001401a6ea8     user32:USER32.dll
 0002:00000eb0       __imp_IntersectRect        00000001401a6eb0     user32:USER32.dll
 0002:00000eb8       __imp_SystemParametersInfoW 00000001401a6eb8     user32:USER32.dll
 0002:00000ec0       __imp_wsprintfA            00000001401a6ec0     user32:USER32.dll
 0002:00000ec8       __imp_MonitorFromPoint     00000001401a6ec8     user32:USER32.dll
 0002:00000ed0       __imp_GetWindowRect        00000001401a6ed0     user32:USER32.dll
 0002:00000ed8       __imp_GetDC                00000001401a6ed8     user32:USER32.dll
 0002:00000ee0       __imp_GetSystemMetrics     00000001401a6ee0     user32:USER32.dll
 0002:00000ee8       __imp_GetMonitorInfoW      00000001401a6ee8     user32:USER32.dll
 0002:00000ef0       __imp_GetKeyboardLayoutList 00000001401a6ef0     user32:USER32.dll
 0002:00000ef8       __imp_GetKeyboardLayout    00000001401a6ef8     user32:USER32.dll
 0002:00000f00       __imp_GetForegroundWindow  00000001401a6f00     user32:USER32.dll
 0002:00000f08       __imp_wsprintfW            00000001401a6f08     user32:USER32.dll
 0002:00000f10       __imp_ReleaseDC            00000001401a6f10     user32:USER32.dll
 0002:00000f18       __imp_GetCursorPos         00000001401a6f18     user32:USER32.dll
 0002:00000f20       __imp_GetWindowTextW       00000001401a6f20     user32:USER32.dll
 0002:00000f28       __imp_mouse_event          00000001401a6f28     user32:USER32.dll
 0002:00000f30       \177USER32_NULL_THUNK_DATA 00000001401a6f30     user32:USER32.dll
 0002:00000f38       __imp_VerQueryValueW       00000001401a6f38     version:VERSION.dll
 0002:00000f40       __imp_GetFileVersionInfoW  00000001401a6f40     version:VERSION.dll
 0002:00000f48       __imp_GetFileVersionInfoSizeW 00000001401a6f48     version:VERSION.dll
 0002:00000f50       \177VERSION_NULL_THUNK_DATA 00000001401a6f50     version:VERSION.dll
 0002:00000f58       __imp_timeGetTime          00000001401a6f58     Winmm:WINMM.dll
 0002:00000f60       \177WINMM_NULL_THUNK_DATA  00000001401a6f60     Winmm:WINMM.dll
 0002:00000f68       __imp_RevokeDragDrop       00000001401a6f68     ole32:ole32.dll
 0002:00000f70       __imp_DoDragDrop           00000001401a6f70     ole32:ole32.dll
 0002:00000f78       __imp_OleUninitialize      00000001401a6f78     ole32:ole32.dll
 0002:00000f80       __imp_OleInitialize        00000001401a6f80     ole32:ole32.dll
 0002:00000f88       __imp_RegisterDragDrop     00000001401a6f88     ole32:ole32.dll
 0002:00000f90       __imp_CoInitialize         00000001401a6f90     ole32:ole32.dll
 0002:00000f98       __imp_CoUninitialize       00000001401a6f98     ole32:ole32.dll
 0002:00000fa0       __imp_CoInitializeSecurity 00000001401a6fa0     ole32:ole32.dll
 0002:00000fa8       __imp_CoInitializeEx       00000001401a6fa8     ole32:ole32.dll
 0002:00000fb0       __imp_CoCreateInstance     00000001401a6fb0     ole32:ole32.dll
 0002:00000fb8       __imp_CoTaskMemFree        00000001401a6fb8     ole32:ole32.dll
 0002:00000fc0       __imp_CoTaskMemAlloc       00000001401a6fc0     ole32:ole32.dll
 0002:00000fc8       __imp_ReleaseStgMedium     00000001401a6fc8     ole32:ole32.dll
 0002:00000fd0       \177ole32_NULL_THUNK_DATA  00000001401a6fd0     ole32:ole32.dll
 0002:00000fd8       __guard_check_icall_fptr   00000001401a6fd8     LIBCMT:guard_support.obj
 0002:00000fe0       __guard_dispatch_icall_fptr 00000001401a6fe0     LIBCMT:guard_support.obj
 0002:00000fe8       __xc_a                     00000001401a6fe8     LIBCMT:initializers.obj
 0002:00001040       __xc_z                     00000001401a7040     LIBCMT:initializers.obj
 0002:00001048       __xi_a                     00000001401a7048     LIBCMT:initializers.obj
 0002:00001068       __acrt_stdio_initializer   00000001401a7068     libucrt:stdio_initializer.obj
 0002:00001070       __acrt_multibyte_initializer 00000001401a7070     libucrt:multibyte_initializer.obj
 0002:00001078       __acrt_tran_fma3_initializer 00000001401a7078     libucrt:fma3_initializer.obj
 0002:00001080       __xi_z                     00000001401a7080     LIBCMT:initializers.obj
 0002:00001088       __xl_a                     00000001401a7088     LIBCMT:tlssup.obj
 0002:00001090       __xl_z                     00000001401a7090     LIBCMT:tlssup.obj
 0002:00001098       __xp_a                     00000001401a7098     LIBCMT:initializers.obj
 0002:000010a0       __acrt_locale_terminator   00000001401a70a0     libucrt:locale_initializer.obj
 0002:000010a8       __dcrt_console_output_terminator 00000001401a70a8     libucrt:console_output_initializer.obj
 0002:000010b0       __acrt_stdio_terminator    00000001401a70b0     libucrt:stdio_initializer.obj
 0002:000010b8       __xp_z                     00000001401a70b8     LIBCMT:initializers.obj
 0002:000010c0       __xt_a                     00000001401a70c0     LIBCMT:initializers.obj
 0002:000010c8       __xt_z                     00000001401a70c8     LIBCMT:initializers.obj
 0002:000010d0       IID_IShellBrowser          00000001401a70d0     shell32:shguid.obj
 0002:000010e0       IID_IShellLinkW            00000001401a70e0     shell32:shguid.obj
 0002:000010f0       SID_STopLevelBrowser       00000001401a70f0     shell32:shguid.obj
 0002:00001100       CLSID_DragDropHelper       00000001401a7100     shell32:shguid.obj
 0002:00001110       IID_IUnknown               00000001401a7110     uuid:unknwn_i.obj
 0002:00001120       IID_IClassFactory          00000001401a7120     uuid:unknwn_i.obj
 0002:00001130       IID_ISequentialStream      00000001401a7130     uuid:objidl_i.obj
 0002:00001140       IID_IStream                00000001401a7140     uuid:objidl_i.obj
 0002:00001150       IID_IPersistFile           00000001401a7150     uuid:objidl_i.obj
 0002:00001160       IID_IEnumFORMATETC         00000001401a7160     uuid:objidl_i.obj
 0002:00001170       IID_IDataObject            00000001401a7170     uuid:objidl_i.obj
 0002:00001180       IID_IDropSource            00000001401a7180     uuid:oleidl_i.obj
 0002:00001190       IID_IDropTarget            00000001401a7190     uuid:oleidl_i.obj
 0002:000011a0       IID_IPersistFolder2        00000001401a71a0     uuid:shguids2.obj
 0002:000011b0       IID_IFolderView            00000001401a71b0     uuid:shguids2.obj
 0002:000011c0       IID_IDropTargetHelper      00000001401a71c0     uuid:shguids2.obj
 0002:000011d0       IID_IDragSourceHelper      00000001401a71d0     uuid:shguids2.obj
 0002:000011e0       IID_IDragSourceHelper2     00000001401a71e0     uuid:shguids2.obj
 0002:000011f0       IID_ITaskbarList           00000001401a71f0     uuid:shguids2.obj
 0002:00001200       IID_ITaskbarList2          00000001401a7200     uuid:shguids2.obj
 0002:00001210       IID_ITaskbarList3          00000001401a7210     uuid:shguids2.obj
 0002:00001220       IID_ITaskbarList4          00000001401a7220     uuid:shguids2.obj
 0002:00001230       IID_ICustomDestinationList 00000001401a7230     uuid:shguids2.obj
 0002:00001240       CLSID_ShellLink            00000001401a7240     uuid:shguids2.obj
 0002:00001250       CLSID_TaskbarList          00000001401a7250     uuid:shguids2.obj
 0002:00001260       CLSID_DestinationList      00000001401a7260     uuid:shguids2.obj
 0002:00001270       CLSID_EnumerableObjectCollection 00000001401a7270     uuid:shguids2.obj
 0002:00001280       PKEY_Title                 00000001401a7280     uuid:guids.obj
 0002:00001298       PKEY_AppUserModel_IsDestListSeparator 00000001401a7298     uuid:guids.obj
 0002:000012b0       IID_IPropertyStore         00000001401a72b0     uuid:shguids.obj
 0002:000012c0       IID_IServiceProvider       00000001401a72c0     uuid:i_servprov.obj
 0002:000012d0       IID_IWebBrowserApp         00000001401a72d0     uuid:i_exdisp.obj
 0002:000012e0       IID_IShellWindows          00000001401a72e0     uuid:i_exdisp.obj
 0002:000012f0       CLSID_ShellWindows         00000001401a72f0     uuid:i_exdisp.obj
 0002:00001300       IID_IXMLDOMNode            00000001401a7300     uuid:msxml_i.obj
 0002:00001310       IID_IXMLDOMDocument        00000001401a7310     uuid:msxml_i.obj
 0002:00001328       ??_7exception@std@@6B@     00000001401a7328     libcpmt:xthrow.obj
 0002:00001338       ??_C@_0BC@EOODALEL@Unknown?5exception?$AA@ 00000001401a7338     libcpmt:xthrow.obj
 0002:00001358       ??_7bad_alloc@std@@6B@     00000001401a7358     libcpmt:xthrow.obj
 0002:00001368       ??_C@_0P@GHFPNOJB@bad?5allocation?$AA@ 00000001401a7368     libcpmt:xthrow.obj
 0002:00001380       ??_7logic_error@std@@6B@   00000001401a7380     libcpmt:xthrow.obj
 0002:00001398       ??_7length_error@std@@6B@  00000001401a7398     libcpmt:xthrow.obj
 0002:000013c0       ??_7type_info@@6B@         00000001401a73c0     LIBCMT:std_type_info_static.obj
 0002:000013d0       ??_C@_1EC@JIJBPKFM@?$AAa?$AAp?$AAi?$AA?9?$AAm?$AAs?$AA?9?$AAw?$AAi?$AAn?$AA?9?$AAc?$AAo?$AAr?$AAe?$AA?9?$AAs?$AAy?$AAn?$AAc?$AAh?$AA?9?$AAl?$AA1?$AA?9?$AA2?$AA?9?$AA0?$AA?4?$AAd?$AAl?$AAl@ 00000001401a73d0     LIBCMT:thread_safe_statics.obj
 0002:00001418       ??_C@_0BM@HLJJNPAH@InitializeConditionVariable?$AA@ 00000001401a7418     LIBCMT:thread_safe_statics.obj
 0002:00001438       ??_C@_0BJ@JEBJOJFJ@SleepConditionVariableCS?$AA@ 00000001401a7438     LIBCMT:thread_safe_statics.obj
 0002:00001458       ??_C@_0BJ@PGPPEPCC@WakeAllConditionVariable?$AA@ 00000001401a7458     LIBCMT:thread_safe_statics.obj
 0002:00001518       _pDestructExceptionObject  00000001401a7518     libvcruntime:frame.obj
 0002:00001528       ??_7bad_exception@std@@6B@ 00000001401a7528     libvcruntime:frame.obj
 0002:00001538       ??_C@_0O@DPKOEFFH@bad?5exception?$AA@ 00000001401a7538     libvcruntime:frame.obj
 0002:000015a8       ??_C@_1DM@KHCHBNEB@?$AAa?$AAp?$AAi?$AA?9?$AAm?$AAs?$AA?9?$AAw?$AAi?$AAn?$AA?9?$AAc?$AAo?$AAr?$AAe?$AA?9?$AAf?$AAi?$AAb?$AAe?$AAr?$AAs?$AA?9?$AAl?$AA1?$AA?9?$AA1?$AA?9?$AA1?$AA?$AA@ 00000001401a75a8     libvcruntime:winapi_downlevel.obj
 0002:000015e8       ??_C@_1DK@LPPGFMPP@?$AAa?$AAp?$AAi?$AA?9?$AAm?$AAs?$AA?9?$AAw?$AAi?$AAn?$AA?9?$AAc?$AAo?$AAr?$AAe?$AA?9?$AAs?$AAy?$AAn?$AAc?$AAh?$AA?9?$AAl?$AA1?$AA?9?$AA2?$AA?9?$AA0?$AA?$AA@ 00000001401a75e8     libvcruntime:winapi_downlevel.obj
 0002:00001628       ??_C@_1BC@GDMECMAK@?$AAk?$AAe?$AAr?$AAn?$AAe?$AAl?$AA3?$AA2?$AA?$AA@ 00000001401a7628     libvcruntime:winapi_downlevel.obj
 0002:00001640       ??_C@_1BA@PFFKHIOG@?$AAa?$AAp?$AAi?$AA?9?$AAm?$AAs?$AA?9?$AA?$AA@ 00000001401a7640     libvcruntime:winapi_downlevel.obj
 0002:00001650       ??_C@_1BA@IAIFMGEF@?$AAe?$AAx?$AAt?$AA?9?$AAm?$AAs?$AA?9?$AA?$AA@ 00000001401a7650     libvcruntime:winapi_downlevel.obj
 0002:00001668       ??_C@_08KNHFBNJ@FlsAlloc?$AA@ 00000001401a7668     libvcruntime:winapi_downlevel.obj
 0002:00001680       ??_C@_07PEJMOBNF@FlsFree?$AA@ 00000001401a7680     libvcruntime:winapi_downlevel.obj
 0002:00001690       ??_C@_0M@GDNOONDI@FlsGetValue?$AA@ 00000001401a7690     libvcruntime:winapi_downlevel.obj
 0002:000016a8       ??_C@_0M@JCPCPOEF@FlsSetValue?$AA@ 00000001401a76a8     libvcruntime:winapi_downlevel.obj
 0002:000016c0       ??_C@_0BM@HCFOFFN@InitializeCriticalSectionEx?$AA@ 00000001401a76c0     libvcruntime:winapi_downlevel.obj
 0002:000016e0       ??_C@_0BM@LDKODKLH@?5Base?5Class?5Descriptor?5at?5?$CI?$AA@ 00000001401a76e0     libvcruntime:undname.obj
 0002:00001700       ??_C@_0BD@LGICGFMM@?5Base?5Class?5Array?8?$AA@ 00000001401a7700     libvcruntime:undname.obj
 0002:00001718       ??_C@_0BN@MECKDCOJ@?5Class?5Hierarchy?5Descriptor?8?$AA@ 00000001401a7718     libvcruntime:undname.obj
 0002:00001738       ??_C@_0BK@CFCOFLF@?5Complete?5Object?5Locator?8?$AA@ 00000001401a7738     libvcruntime:undname.obj
 0002:00001a88       ??_C@_08EHJDFFNH@__based?$CI?$AA@ 00000001401a7a88     libvcruntime:undname.obj
 0002:00001a98       ??_C@_07KOLFKCDI@__cdecl?$AA@ 00000001401a7a98     libvcruntime:undname.obj
 0002:00001aa0       ??_C@_08GHMPAG@__pascal?$AA@ 00000001401a7aa0     libvcruntime:undname.obj
 0002:00001ab0       ??_C@_09IFJBGAPI@__stdcall?$AA@ 00000001401a7ab0     libvcruntime:undname.obj
 0002:00001ac0       ??_C@_0L@NPHFGOKO@__thiscall?$AA@ 00000001401a7ac0     libvcruntime:undname.obj
 0002:00001ad0       ??_C@_0L@JMKHOMEK@__fastcall?$AA@ 00000001401a7ad0     libvcruntime:undname.obj
 0002:00001ae0       ??_C@_0N@BCKKPABJ@__vectorcall?$AA@ 00000001401a7ae0     libvcruntime:undname.obj
 0002:00001af0       ??_C@_09HIJEGCPM@__clrcall?$AA@ 00000001401a7af0     libvcruntime:undname.obj
 0002:00001afc       ??_C@_06GHPCKEAG@__eabi?$AA@ 00000001401a7afc     libvcruntime:undname.obj
 0002:00001b08       ??_C@_07JOMMBBKO@__ptr64?$AA@ 00000001401a7b08     libvcruntime:undname.obj
 0002:00001b10       ??_C@_0L@PILCLIHE@__restrict?$AA@ 00000001401a7b10     libvcruntime:undname.obj
 0002:00001b20       ??_C@_0M@GFIIJFMG@__unaligned?$AA@ 00000001401a7b20     libvcruntime:undname.obj
 0002:00001b30       ??_C@_09DHDLOLLB@restrict?$CI?$AA@ 00000001401a7b30     libvcruntime:undname.obj
 0002:00001b3c       ??_C@_04NIHEBCM@?5new?$AA@ 00000001401a7b3c     libvcruntime:undname.obj
 0002:00001b48       ??_C@_07FPCDHGMM@?5delete?$AA@ 00000001401a7b48     libvcruntime:undname.obj
 0002:00001b50       ??_C@_01NEMOKFLO@?$DN?$AA@ 00000001401a7b50     libvcruntime:undname.obj
 0002:00001b54       ??_C@_02GPIOPFAK@?$DO?$DO?$AA@ 00000001401a7b54     libvcruntime:undname.obj
 0002:00001b58       ??_C@_02FODMEDOG@?$DM?$DM?$AA@ 00000001401a7b58     libvcruntime:undname.obj
 0002:00001b5c       ??_C@_01DCLJPIOD@?$CB?$AA@ 00000001401a7b5c     libvcruntime:undname.obj
 0002:00001b60       ??_C@_02EGOFBIJA@?$DN?$DN?$AA@ 00000001401a7b60     libvcruntime:undname.obj
 0002:00001b64       ??_C@_02FDNJECIE@?$CB?$DN?$AA@ 00000001401a7b64     libvcruntime:undname.obj
 0002:00001b68       ??_C@_02GPECMEKF@?$FL?$FN?$AA@ 00000001401a7b68     libvcruntime:undname.obj
 0002:00001b70       ??_C@_08LHJFAFGD@operator?$AA@ 00000001401a7b70     libvcruntime:undname.obj
 0002:00001b7c       ??_C@_02HBOOOICD@?9?$DO?$AA@ 00000001401a7b7c     libvcruntime:undname.obj
 0002:00001b80       ??_C@_01NBENCBCI@?$CK?$AA@ 00000001401a7b80     libvcruntime:undname.obj
 0002:00001b84       ??_C@_02ECNGHCIF@?$CL?$CL?$AA@ 00000001401a7b84     libvcruntime:undname.obj
 0002:00001b88       ??_C@_02BAABKJLB@?9?9?$AA@ 00000001401a7b88     libvcruntime:undname.obj
 0002:00001b8c       ??_C@_01JOAMLHOP@?9?$AA@   00000001401a7b8c     libvcruntime:undname.obj
 0002:00001b90       ??_C@_01MIFGBAGJ@?$CL?$AA@ 00000001401a7b90     libvcruntime:undname.obj
 0002:00001b94       ??_C@_01HNPIGOCE@?$CG?$AA@ 00000001401a7b94     libvcruntime:undname.obj
 0002:00001b98       ??_C@_03MNHNFDLC@?9?$DO?$CK?$AA@ 00000001401a7b98     libvcruntime:undname.obj
 0002:00001b9c       ??_C@_01KMDKNFGN@?1?$AA@   00000001401a7b9c     libvcruntime:undname.obj
 0002:00001ba0       ??_C@_01FGNFDNOH@?$CF?$AA@ 00000001401a7ba0     libvcruntime:undname.obj
 0002:00001ba4       ??_C@_01MNNFJEPP@?$DM?$AA@ 00000001401a7ba4     libvcruntime:undname.obj
 0002:00001ba8       ??_C@_02EHCHHCKH@?$DM?$DN?$AA@ 00000001401a7ba8     libvcruntime:undname.obj
 0002:00001bac       ??_C@_01PPODPGHN@?$DO?$AA@ 00000001401a7bac     libvcruntime:undname.obj
 0002:00001bb0       ??_C@_02EEKDKGMJ@?$DO?$DN?$AA@ 00000001401a7bb0     libvcruntime:undname.obj
 0002:00001bb4       ??_C@_01IHBHIGKO@?0?$AA@   00000001401a7bb4     libvcruntime:undname.obj
 0002:00001bb8       ??_C@_02HCKGKOFO@?$CI?$CJ?$AA@ 00000001401a7bb8     libvcruntime:undname.obj
 0002:00001bbc       ??_C@_01PJKLJHI@?$HO?$AA@  00000001401a7bbc     libvcruntime:undname.obj
 0002:00001bc0       ??_C@_01JKBOJNNK@?$FO?$AA@ 00000001401a7bc0     libvcruntime:undname.obj
 0002:00001bc4       ??_C@_01DNKMNLPK@?$HM?$AA@ 00000001401a7bc4     libvcruntime:undname.obj
 0002:00001bc8       ??_C@_02PPKAJPJL@?$CG?$CG?$AA@ 00000001401a7bc8     libvcruntime:undname.obj
 0002:00001bcc       ??_C@_02NONPIBCD@?$HM?$HM?$AA@ 00000001401a7bcc     libvcruntime:undname.obj
 0002:00001bd0       ??_C@_02FPIMKNGF@?$CK?$DN?$AA@ 00000001401a7bd0     libvcruntime:undname.obj
 0002:00001bd4       ??_C@_02FOEOMHFC@?$CL?$DN?$AA@ 00000001401a7bd4     libvcruntime:undname.obj
 0002:00001bd8       ??_C@_02FKMDLLOA@?9?$DN?$AA@ 00000001401a7bd8     libvcruntime:undname.obj
 0002:00001bdc       ??_C@_02FJEHGPIO@?1?$DN?$AA@ 00000001401a7bdc     libvcruntime:undname.obj
 0002:00001be0       ??_C@_02FENAOKFI@?$CF?$DN?$AA@ 00000001401a7be0     libvcruntime:undname.obj
 0002:00001be4       ??_C@_03IKFCCPFF@?$DO?$DO?$DN?$AA@ 00000001401a7be4     libvcruntime:undname.obj
 0002:00001be8       ??_C@_03CDNPDDLA@?$DM?$DM?$DN?$AA@ 00000001401a7be8     libvcruntime:undname.obj
 0002:00001bec       ??_C@_02FGJGFEAB@?$CG?$DN?$AA@ 00000001401a7bec     libvcruntime:undname.obj
 0002:00001bf0       ??_C@_02DHLNPPGH@?$HM?$DN?$AA@ 00000001401a7bf0     libvcruntime:undname.obj
 0002:00001bf4       ??_C@_02MHEGNOJ@?$FO?$DN?$AA@ 00000001401a7bf4     libvcruntime:undname.obj
 0002:00001bf8       ??_C@_09IFPLHPGF@?$GAvftable?8?$AA@ 00000001401a7bf8     libvcruntime:undname.obj
 0002:00001c08       ??_C@_09BLBHBJP@?$GAvbtable?8?$AA@ 00000001401a7c08     libvcruntime:undname.obj
 0002:00001c18       ??_C@_07FEEIOKP@?$GAvcall?8?$AA@ 00000001401a7c18     libvcruntime:undname.obj
 0002:00001c20       ??_C@_08LLFFHHDJ@?$GAtypeof?8?$AA@ 00000001401a7c20     libvcruntime:undname.obj
 0002:00001c30       ??_C@_0BF@KDPPACIK@?$GAlocal?5static?5guard?8?$AA@ 00000001401a7c30     libvcruntime:undname.obj
 0002:00001c48       ??_C@_08OBABFOLI@?$GAstring?8?$AA@ 00000001401a7c48     libvcruntime:undname.obj
 0002:00001c58       ??_C@_0BD@JDLKDPAB@?$GAvbase?5destructor?8?$AA@ 00000001401a7c58     libvcruntime:undname.obj
 0002:00001c70       ??_C@_0BN@DEGPLNFK@?$GAvector?5deleting?5destructor?8?$AA@ 00000001401a7c70     libvcruntime:undname.obj
 0002:00001c90       ??_C@_0BO@OBMKPJIG@?$GAdefault?5constructor?5closure?8?$AA@ 00000001401a7c90     libvcruntime:undname.obj
 0002:00001cb0       ??_C@_0BN@IMDCHIKM@?$GAscalar?5deleting?5destructor?8?$AA@ 00000001401a7cb0     libvcruntime:undname.obj
 0002:00001cd0       ??_C@_0BO@PFGOCPJJ@?$GAvector?5constructor?5iterator?8?$AA@ 00000001401a7cd0     libvcruntime:undname.obj
 0002:00001cf0       ??_C@_0BN@LFPFMEDL@?$GAvector?5destructor?5iterator?8?$AA@ 00000001401a7cf0     libvcruntime:undname.obj
 0002:00001d10       ??_C@_0CE@IKBNEHA@?$GAvector?5vbase?5constructor?5iterat@ 00000001401a7d10     libvcruntime:undname.obj
 0002:00001d38       ??_C@_0BL@NILFHHPC@?$GAvirtual?5displacement?5map?8?$AA@ 00000001401a7d38     libvcruntime:undname.obj
 0002:00001d58       ??_C@_0CB@JONCMFFK@?$GAeh?5vector?5constructor?5iterator?8@ 00000001401a7d58     libvcruntime:undname.obj
 0002:00001d80       ??_C@_0CA@GCEOPDGL@?$GAeh?5vector?5destructor?5iterator?8?$AA@ 00000001401a7d80     libvcruntime:undname.obj
 0002:00001da0       ??_C@_0CH@OOJPLCPH@?$GAeh?5vector?5vbase?5constructor?5ite@ 00000001401a7da0     libvcruntime:undname.obj
 0002:00001dc8       ??_C@_0BL@LLKPOHJI@?$GAcopy?5constructor?5closure?8?$AA@ 00000001401a7dc8     libvcruntime:undname.obj
 0002:00001de8       ??_C@_0BA@KBCDOMBN@?$GAudt?5returning?8?$AA@ 00000001401a7de8     libvcruntime:undname.obj
 0002:00001df8       ??_C@_03KLGMFNMG@?$GAEH?$AA@ 00000001401a7df8     libvcruntime:undname.obj
 0002:00001dfc       ??_C@_05KHLCHHI@?$GARTTI?$AA@ 00000001401a7dfc     libvcruntime:undname.obj
 0002:00001e08       ??_C@_0BA@KKLDJDLB@?$GAlocal?5vftable?8?$AA@ 00000001401a7e08     libvcruntime:undname.obj
 0002:00001e18       ??_C@_0CE@IIHCMGGL@?$GAlocal?5vftable?5constructor?5closu@ 00000001401a7e18     libvcruntime:undname.obj
 0002:00001e3c       ??_C@_06FHBGPFGH@?5new?$FL?$FN?$AA@ 00000001401a7e3c     libvcruntime:undname.obj
 0002:00001e48       ??_C@_09LBNFPBCA@?5delete?$FL?$FN?$AA@ 00000001401a7e48     libvcruntime:undname.obj
 0002:00001e58       ??_C@_0P@HJKNJFNN@?$GAomni?5callsig?8?$AA@ 00000001401a7e58     libvcruntime:undname.obj
 0002:00001e68       ??_C@_0BL@CNOONJFP@?$GAplacement?5delete?5closure?8?$AA@ 00000001401a7e68     libvcruntime:undname.obj
 0002:00001e88       ??_C@_0BN@CKNJLHMB@?$GAplacement?5delete?$FL?$FN?5closure?8?$AA@ 00000001401a7e88     libvcruntime:undname.obj
 0002:00001ea8       ??_C@_0CG@CFDHKGGD@?$GAmanaged?5vector?5constructor?5iter@ 00000001401a7ea8     libvcruntime:undname.obj
 0002:00001ed0       ??_C@_0CF@IMGKMJNO@?$GAmanaged?5vector?5destructor?5itera@ 00000001401a7ed0     libvcruntime:undname.obj
 0002:00001ef8       ??_C@_0CG@HLDDJMAG@?$GAeh?5vector?5copy?5constructor?5iter@ 00000001401a7ef8     libvcruntime:undname.obj
 0002:00001f20       ??_C@_0CM@FCBBDIGB@?$GAeh?5vector?5vbase?5copy?5constructo@ 00000001401a7f20     libvcruntime:undname.obj
 0002:00001f50       ??_C@_0BL@CLIPGLGB@?$GAdynamic?5initializer?5for?5?8?$AA@ 00000001401a7f50     libvcruntime:undname.obj
 0002:00001f70       ??_C@_0CB@PDBIFEP@?$GAdynamic?5atexit?5destructor?5for?5?8@ 00000001401a7f70     libvcruntime:undname.obj
 0002:00001f98       ??_C@_0CD@CGAJBKEJ@?$GAvector?5copy?5constructor?5iterato@ 00000001401a7f98     libvcruntime:undname.obj
 0002:00001fc0       ??_C@_0CJ@GJELGAMM@?$GAvector?5vbase?5copy?5constructor?5i@ 00000001401a7fc0     libvcruntime:undname.obj
 0002:00001ff0       ??_C@_0CL@FGIJHLCE@?$GAmanaged?5vector?5copy?5constructor@ 00000001401a7ff0     libvcruntime:undname.obj
 0002:00002020       ??_C@_0BM@PMGGMLDN@?$GAlocal?5static?5thread?5guard?8?$AA@ 00000001401a8020     libvcruntime:undname.obj
 0002:00002040       ??_C@_0N@BDNMDMOL@operator?5?$CC?$CC?5?$AA@ 00000001401a8040     libvcruntime:undname.obj
 0002:00002050       ??_C@_0BC@GGEBGALA@operator?5co_await?$AA@ 00000001401a8050     libvcruntime:undname.obj
 0002:00002068       ??_C@_0BC@DAFEJGAK@?5Type?5Descriptor?8?$AA@ 00000001401a8068     libvcruntime:undname.obj
 0002:00002080       standard_lookup_table      00000001401a8080     libucrt:output.obj
 0002:000020e0       format_validation_lookup_table 00000001401a80e0     libucrt:output.obj
 0002:0000213c       ??_C@_06OJHGLDPL@?$CInull?$CJ?$AA@ 00000001401a813c     libucrt:output.obj
 0002:00002148       ??_C@_1O@CEDCILHN@?$AA?$CI?$AAn?$AAu?$AAl?$AAl?$AA?$CJ?$AA?$AA@ 00000001401a8148     libucrt:output.obj
 0002:00002160       __acrt_exception_action_table 00000001401a8160     libucrt:exception_filter.obj
 0002:00002220       __acrt_signal_action_table_count 00000001401a8220     libucrt:exception_filter.obj
 0002:00002228       __acrt_signal_action_first_fpe_index 00000001401a8228     libucrt:exception_filter.obj
 0002:00002230       __acrt_signal_action_fpe_count 00000001401a8230     libucrt:exception_filter.obj
 0002:00002238       ??_C@_1BI@BGOHAHKC@?$AAm?$AAs?$AAc?$AAo?$AAr?$AAe?$AAe?$AA?4?$AAd?$AAl?$AAl?$AA?$AA@ 00000001401a8238     libucrt:exit.obj
 0002:00002250       ??_C@_0P@MIGLKIOC@CorExitProcess?$AA@ 00000001401a8250     libucrt:exit.obj
 0002:000024b8       ??_C@_03OEIAHPBN@INF?$AA@  00000001401a84b8     libucrt:cvt.obj
 0002:000024bc       ??_C@_03OJHLLCGB@inf?$AA@  00000001401a84bc     libucrt:cvt.obj
 0002:000024c0       ??_C@_03LKNCIKJB@NAN?$AA@  00000001401a84c0     libucrt:cvt.obj
 0002:000024c4       ??_C@_03LHCJEHON@nan?$AA@  00000001401a84c4     libucrt:cvt.obj
 0002:000024c8       ??_C@_09OFJJIMPC@NAN?$CISNAN?$CJ?$AA@ 00000001401a84c8     libucrt:cvt.obj
 0002:000024d8       ??_C@_09IPFBKMDL@nan?$CIsnan?$CJ?$AA@ 00000001401a84d8     libucrt:cvt.obj
 0002:000024e8       ??_C@_08IKHNHAJ@NAN?$CIIND?$CJ?$AA@ 00000001401a84e8     libucrt:cvt.obj
 0002:000024f8       ??_C@_08OFCDMILK@nan?$CIind?$CJ?$AA@ 00000001401a84f8     libucrt:cvt.obj
 0002:00002504       ??_C@_05KLBDPFGC@e?$CL000?$AA@ 00000001401a8504     libucrt:cvt.obj
 0002:00002510       __lc_time_c                00000001401a8510     libucrt:nlsdata.obj
 0002:000027d0       ??_C@_03KOEHGMDN@Sun?$AA@  00000001401a87d0     libucrt:nlsdata.obj
 0002:000027d4       ??_C@_03PDAGKDH@Mon?$AA@   00000001401a87d4     libucrt:nlsdata.obj
 0002:000027d8       ??_C@_03NAGEINEP@Tue?$AA@  00000001401a87d8     libucrt:nlsdata.obj
 0002:000027dc       ??_C@_03MHOMLAJA@Wed?$AA@  00000001401a87dc     libucrt:nlsdata.obj
 0002:000027e0       ??_C@_03IOFIKPDN@Thu?$AA@  00000001401a87e0     libucrt:nlsdata.obj
 0002:000027e4       ??_C@_03IDIOELNC@Fri?$AA@  00000001401a87e4     libucrt:nlsdata.obj
 0002:000027e8       ??_C@_03FEFJNEK@Sat?$AA@   00000001401a87e8     libucrt:nlsdata.obj
 0002:000027ec       ??_C@_06OOPIFAJ@Sunday?$AA@ 00000001401a87ec     libucrt:nlsdata.obj
 0002:000027f4       ??_C@_06JLEDEDGH@Monday?$AA@ 00000001401a87f4     libucrt:nlsdata.obj
 0002:00002800       ??_C@_07BAAGCFCM@Tuesday?$AA@ 00000001401a8800     libucrt:nlsdata.obj
 0002:00002808       ??_C@_09DLIGFAKA@Wednesday?$AA@ 00000001401a8808     libucrt:nlsdata.obj
 0002:00002818       ??_C@_08HACCIKIA@Thursday?$AA@ 00000001401a8818     libucrt:nlsdata.obj
 0002:00002824       ??_C@_06JECMNKMI@Friday?$AA@ 00000001401a8824     libucrt:nlsdata.obj
 0002:00002830       ??_C@_08INBOOONO@Saturday?$AA@ 00000001401a8830     libucrt:nlsdata.obj
 0002:0000283c       ??_C@_03JIHJHPIE@Jan?$AA@  00000001401a883c     libucrt:nlsdata.obj
 0002:00002840       ??_C@_03HJBDCHOM@Feb?$AA@  00000001401a8840     libucrt:nlsdata.obj
 0002:00002844       ??_C@_03ODNJBKGA@Mar?$AA@  00000001401a8844     libucrt:nlsdata.obj
 0002:00002848       ??_C@_03LEOLGMJP@Apr?$AA@  00000001401a8848     libucrt:nlsdata.obj
 0002:0000284c       ??_C@_03CNMDKL@May?$AA@    00000001401a884c     libucrt:nlsdata.obj
 0002:00002850       ??_C@_03IDFGHECI@Jun?$AA@  00000001401a8850     libucrt:nlsdata.obj
 0002:00002854       ??_C@_03LBGABGKK@Jul?$AA@  00000001401a8854     libucrt:nlsdata.obj
 0002:00002858       ??_C@_03IFJFEIGA@Aug?$AA@  00000001401a8858     libucrt:nlsdata.obj
 0002:0000285c       ??_C@_03GGCAPAJC@Sep?$AA@  00000001401a885c     libucrt:nlsdata.obj
 0002:00002860       ??_C@_03BMAOKBAD@Oct?$AA@  00000001401a8860     libucrt:nlsdata.obj
 0002:00002864       ??_C@_03JPJOFNIA@Nov?$AA@  00000001401a8864     libucrt:nlsdata.obj
 0002:00002868       ??_C@_03MKABNOCG@Dec?$AA@  00000001401a8868     libucrt:nlsdata.obj
 0002:00002870       ??_C@_07CGJPFGJA@January?$AA@ 00000001401a8870     libucrt:nlsdata.obj
 0002:00002878       ??_C@_08GNJGEPFN@February?$AA@ 00000001401a8878     libucrt:nlsdata.obj
 0002:00002884       ??_C@_05HPCKOFNC@March?$AA@ 00000001401a8884     libucrt:nlsdata.obj
 0002:0000288c       ??_C@_05DMJDNLEJ@April?$AA@ 00000001401a888c     libucrt:nlsdata.obj
 0002:00002894       ??_C@_04CNLMGBGM@June?$AA@ 00000001401a8894     libucrt:nlsdata.obj
 0002:0000289c       ??_C@_04MIEPOIFP@July?$AA@ 00000001401a889c     libucrt:nlsdata.obj
 0002:000028a4       ??_C@_06LBBHFDDG@August?$AA@ 00000001401a88a4     libucrt:nlsdata.obj
 0002:000028b0       ??_C@_09BHHEALKD@September?$AA@ 00000001401a88b0     libucrt:nlsdata.obj
 0002:000028c0       ??_C@_07JJNFCEND@October?$AA@ 00000001401a88c0     libucrt:nlsdata.obj
 0002:000028c8       ??_C@_08HCHEGEOA@November?$AA@ 00000001401a88c8     libucrt:nlsdata.obj
 0002:000028d8       ??_C@_08EDHMEBNP@December?$AA@ 00000001401a88d8     libucrt:nlsdata.obj
 0002:000028e4       ??_C@_02DEDBPAFC@AM?$AA@   00000001401a88e4     libucrt:nlsdata.obj
 0002:000028e8       ??_C@_02CJNFDJBF@PM?$AA@   00000001401a88e8     libucrt:nlsdata.obj
 0002:000028f0       ??_C@_08BPBNCDIB@MM?1dd?1yy?$AA@ 00000001401a88f0     libucrt:nlsdata.obj
 0002:00002900       ??_C@_0BE@CKGJFCPC@dddd?0?5MMMM?5dd?0?5yyyy?$AA@ 00000001401a8900     libucrt:nlsdata.obj
 0002:00002918       ??_C@_08JCCMCCIL@HH?3mm?3ss?$AA@ 00000001401a8918     libucrt:nlsdata.obj
 0002:00002928       ??_C@_17MBGCMIPB@?$AAS?$AAu?$AAn?$AA?$AA@ 00000001401a8928     libucrt:nlsdata.obj
 0002:00002930       ??_C@_17KBOMKBF@?$AAM?$AAo?$AAn?$AA?$AA@ 00000001401a8930     libucrt:nlsdata.obj
 0002:00002938       ??_C@_17BMKGEGOJ@?$AAT?$AAu?$AAe?$AA?$AA@ 00000001401a8938     libucrt:nlsdata.obj
 0002:00002940       ??_C@_17CJEDCEPE@?$AAW?$AAe?$AAd?$AA?$AA@ 00000001401a8940     libucrt:nlsdata.obj
 0002:00002948       ??_C@_17PDPHAADD@?$AAT?$AAh?$AAu?$AA?$AA@ 00000001401a8948     libucrt:nlsdata.obj
 0002:00002950       ??_C@_17HFOLPPLP@?$AAF?$AAr?$AAi?$AA?$AA@ 00000001401a8950     libucrt:nlsdata.obj
 0002:00002958       ??_C@_17GGIBDPIH@?$AAS?$AAa?$AAt?$AA?$AA@ 00000001401a8958     libucrt:nlsdata.obj
 0002:00002960       ??_C@_1O@IHNHDHPB@?$AAS?$AAu?$AAn?$AAd?$AAa?$AAy?$AA?$AA@ 00000001401a8960     libucrt:nlsdata.obj
 0002:00002970       ??_C@_1O@MMNBFLIA@?$AAM?$AAo?$AAn?$AAd?$AAa?$AAy?$AA?$AA@ 00000001401a8970     libucrt:nlsdata.obj
 0002:00002980       ??_C@_1BA@ENFBFFEK@?$AAT?$AAu?$AAe?$AAs?$AAd?$AAa?$AAy?$AA?$AA@ 00000001401a8980     libucrt:nlsdata.obj
 0002:00002990       ??_C@_1BE@EBOGMDOH@?$AAW?$AAe?$AAd?$AAn?$AAe?$AAs?$AAd?$AAa?$AAy?$AA?$AA@ 00000001401a8990     libucrt:nlsdata.obj
 0002:000029a8       ??_C@_1BC@HHMNLIHE@?$AAT?$AAh?$AAu?$AAr?$AAs?$AAd?$AAa?$AAy?$AA?$AA@ 00000001401a89a8     libucrt:nlsdata.obj
 0002:000029c0       ??_C@_1O@PDICJHAG@?$AAF?$AAr?$AAi?$AAd?$AAa?$AAy?$AA?$AA@ 00000001401a89c0     libucrt:nlsdata.obj
 0002:000029d0       ??_C@_1BC@ENMNNPAJ@?$AAS?$AAa?$AAt?$AAu?$AAr?$AAd?$AAa?$AAy?$AA?$AA@ 00000001401a89d0     libucrt:nlsdata.obj
 0002:000029e8       ??_C@_17DKNBKCHM@?$AAJ?$AAa?$AAn?$AA?$AA@ 00000001401a89e8     libucrt:nlsdata.obj
 0002:000029f0       ??_C@_17LMDJEKJN@?$AAF?$AAe?$AAb?$AA?$AA@ 00000001401a89f0     libucrt:nlsdata.obj
 0002:000029f8       ??_C@_17CKNLEDEC@?$AAM?$AAa?$AAr?$AA?$AA@ 00000001401a89f8     libucrt:nlsdata.obj
 0002:00002a00       ??_C@_17LFPOIHDD@?$AAA?$AAp?$AAr?$AA?$AA@ 00000001401a8a00     libucrt:nlsdata.obj
 0002:00002a08       ??_C@_17PNNKMEED@?$AAM?$AAa?$AAy?$AA?$AA@ 00000001401a8a08     libucrt:nlsdata.obj
 0002:00002a10       ??_C@_17KCJGOCPB@?$AAJ?$AAu?$AAn?$AA?$AA@ 00000001401a8a10     libucrt:nlsdata.obj
 0002:00002a18       ??_C@_17IJPCKHK@?$AAJ?$AAu?$AAl?$AA?$AA@ 00000001401a8a18     libucrt:nlsdata.obj
 0002:00002a20       ??_C@_17ICPELBCN@?$AAA?$AAu?$AAg?$AA?$AA@ 00000001401a8a20     libucrt:nlsdata.obj
 0002:00002a28       ??_C@_17HCHCOKMG@?$AAS?$AAe?$AAp?$AA?$AA@ 00000001401a8a28     libucrt:nlsdata.obj
 0002:00002a30       ??_C@_17FNLKOI@?$AAO?$AAc?$AAt?$AA?$AA@ 00000001401a8a30     libucrt:nlsdata.obj
 0002:00002a38       ??_C@_17BBDMLCIG@?$AAN?$AAo?$AAv?$AA?$AA@ 00000001401a8a38     libucrt:nlsdata.obj
 0002:00002a40       ??_C@_17EGKACKIF@?$AAD?$AAe?$AAc?$AA?$AA@ 00000001401a8a40     libucrt:nlsdata.obj
 0002:00002a48       ??_C@_1BA@EFMEIEBA@?$AAJ?$AAa?$AAn?$AAu?$AAa?$AAr?$AAy?$AA?$AA@ 00000001401a8a48     libucrt:nlsdata.obj
 0002:00002a58       ??_C@_1BC@JGDDFFAM@?$AAF?$AAe?$AAb?$AAr?$AAu?$AAa?$AAr?$AAy?$AA?$AA@ 00000001401a8a58     libucrt:nlsdata.obj
 0002:00002a70       ??_C@_1M@IKEENEDF@?$AAM?$AAa?$AAr?$AAc?$AAh?$AA?$AA@ 00000001401a8a70     libucrt:nlsdata.obj
 0002:00002a80       ??_C@_1M@GJNLMHFD@?$AAA?$AAp?$AAr?$AAi?$AAl?$AA?$AA@ 00000001401a8a80     libucrt:nlsdata.obj
 0002:00002a90       ??_C@_19EPFLPGAP@?$AAJ?$AAu?$AAn?$AAe?$AA?$AA@ 00000001401a8a90     libucrt:nlsdata.obj
 0002:00002aa0       ??_C@_19BIFMLPCD@?$AAJ?$AAu?$AAl?$AAy?$AA?$AA@ 00000001401a8aa0     libucrt:nlsdata.obj
 0002:00002ab0       ??_C@_1O@PAHLKOAC@?$AAA?$AAu?$AAg?$AAu?$AAs?$AAt?$AA?$AA@ 00000001401a8ab0     libucrt:nlsdata.obj
 0002:00002ac0       ??_C@_1BE@DKAAMBJL@?$AAS?$AAe?$AAp?$AAt?$AAe?$AAm?$AAb?$AAe?$AAr?$AA?$AA@ 00000001401a8ac0     libucrt:nlsdata.obj
 0002:00002ad8       ??_C@_1BA@EPANDLNG@?$AAO?$AAc?$AAt?$AAo?$AAb?$AAe?$AAr?$AA?$AA@ 00000001401a8ad8     libucrt:nlsdata.obj
 0002:00002ae8       ??_C@_1BC@BGLIFPF@?$AAN?$AAo?$AAv?$AAe?$AAm?$AAb?$AAe?$AAr?$AA?$AA@ 00000001401a8ae8     libucrt:nlsdata.obj
 0002:00002b00       ??_C@_1BC@FEMKIFH@?$AAD?$AAe?$AAc?$AAe?$AAm?$AAb?$AAe?$AAr?$AA?$AA@ 00000001401a8b00     libucrt:nlsdata.obj
 0002:00002b14       ??_C@_15ODEHAHHF@?$AAA?$AAM?$AA?$AA@ 00000001401a8b14     libucrt:nlsdata.obj
 0002:00002b1c       ??_C@_15CLMNNGEL@?$AAP?$AAM?$AA?$AA@ 00000001401a8b1c     libucrt:nlsdata.obj
 0002:00002b28       ??_C@_1BC@IEBCMHCM@?$AAM?$AAM?$AA?1?$AAd?$AAd?$AA?1?$AAy?$AAy?$AA?$AA@ 00000001401a8b28     libucrt:nlsdata.obj
 0002:00002b40       ??_C@_1CI@KNAKOEBC@?$AAd?$AAd?$AAd?$AAd?$AA?0?$AA?5?$AAM?$AAM?$AAM?$AAM?$AA?5?$AAd?$AAd?$AA?0?$AA?5?$AAy?$AAy?$AAy?$AAy?$AA?$AA@ 00000001401a8b40     libucrt:nlsdata.obj
 0002:00002b68       ??_C@_1BC@GDGBMEMK@?$AAH?$AAH?$AA?3?$AAm?$AAm?$AA?3?$AAs?$AAs?$AA?$AA@ 00000001401a8b68     libucrt:nlsdata.obj
 0002:00002b80       ??_C@_1M@BMHNFIME@?$AAe?$AAn?$AA?9?$AAU?$AAS?$AA?$AA@ 00000001401a8b80     libucrt:nlsdata.obj
 0002:00002b90       __newctype                 00000001401a8b90     libucrt:ctype.obj
 0002:00002e90       __newclmap                 00000001401a8e90     libucrt:ctype.obj
 0002:00003010       __newcumap                 00000001401a9010     libucrt:ctype.obj
 0002:00003190       _wctype                    00000001401a9190     libucrt:ctype.obj
 0002:00003440       ??_C@_1EG@CNNIPFIM@?$AAa?$AAp?$AAi?$AA?9?$AAm?$AAs?$AA?9?$AAw?$AAi?$AAn?$AA?9?$AAa?$AAp?$AAp?$AAm?$AAo?$AAd?$AAe?$AAl?$AA?9?$AAr?$AAu?$AAn?$AAt?$AAi?$AAm?$AAe?$AA?9?$AAl?$AA1?$AA?9?$AA1@ 00000001401a9440     libucrt:winapi_thunks.obj
 0002:00003490       ??_C@_1EA@JGEFHKEI@?$AAa?$AAp?$AAi?$AA?9?$AAm?$AAs?$AA?9?$AAw?$AAi?$AAn?$AA?9?$AAc?$AAo?$AAr?$AAe?$AA?9?$AAd?$AAa?$AAt?$AAe?$AAt?$AAi?$AAm?$AAe?$AA?9?$AAl?$AA1?$AA?9?$AA1?$AA?9?$AA1?$AA?$AA@ 00000001401a9490     libucrt:winapi_thunks.obj
 0002:000034d0       ??_C@_1DI@GCIAAENM@?$AAa?$AAp?$AAi?$AA?9?$AAm?$AAs?$AA?9?$AAw?$AAi?$AAn?$AA?9?$AAc?$AAo?$AAr?$AAe?$AA?9?$AAf?$AAi?$AAl?$AAe?$AA?9?$AAl?$AA2?$AA?9?$AA1?$AA?9?$AA1?$AA?$AA@ 00000001401a94d0     libucrt:winapi_thunks.obj
 0002:00003510       ??_C@_1EI@MPIAOHOC@?$AAa?$AAp?$AAi?$AA?9?$AAm?$AAs?$AA?9?$AAw?$AAi?$AAn?$AA?9?$AAc?$AAo?$AAr?$AAe?$AA?9?$AAl?$AAo?$AAc?$AAa?$AAl?$AAi?$AAz?$AAa?$AAt?$AAi?$AAo?$AAn?$AA?9?$AAl?$AA1?$AA?9@ 00000001401a9510     libucrt:winapi_thunks.obj
 0002:00003560       ??_C@_1FK@FPHCKFIE@?$AAa?$AAp?$AAi?$AA?9?$AAm?$AAs?$AA?9?$AAw?$AAi?$AAn?$AA?9?$AAc?$AAo?$AAr?$AAe?$AA?9?$AAl?$AAo?$AAc?$AAa?$AAl?$AAi?$AAz?$AAa?$AAt?$AAi?$AAo?$AAn?$AA?9?$AAo?$AAb?$AAs@ 00000001401a9560     libucrt:winapi_thunks.obj
 0002:000035c0       ??_C@_1EM@DILCGIIO@?$AAa?$AAp?$AAi?$AA?9?$AAm?$AAs?$AA?9?$AAw?$AAi?$AAn?$AA?9?$AAc?$AAo?$AAr?$AAe?$AA?9?$AAp?$AAr?$AAo?$AAc?$AAe?$AAs?$AAs?$AAt?$AAh?$AAr?$AAe?$AAa?$AAd?$AAs?$AA?9?$AAl@ 00000001401a95c0     libucrt:winapi_thunks.obj
 0002:00003610       ??_C@_1DM@LNCGDDPN@?$AAa?$AAp?$AAi?$AA?9?$AAm?$AAs?$AA?9?$AAw?$AAi?$AAn?$AA?9?$AAc?$AAo?$AAr?$AAe?$AA?9?$AAs?$AAt?$AAr?$AAi?$AAn?$AAg?$AA?9?$AAl?$AA1?$AA?9?$AA1?$AA?9?$AA0?$AA?$AA@ 00000001401a9610     libucrt:winapi_thunks.obj
 0002:00003650       ??_C@_1DO@FPAPJEMD@?$AAa?$AAp?$AAi?$AA?9?$AAm?$AAs?$AA?9?$AAw?$AAi?$AAn?$AA?9?$AAc?$AAo?$AAr?$AAe?$AA?9?$AAs?$AAy?$AAs?$AAi?$AAn?$AAf?$AAo?$AA?9?$AAl?$AA1?$AA?9?$AA2?$AA?9?$AA1?$AA?$AA@ 00000001401a9650     libucrt:winapi_thunks.obj
 0002:00003690       ??_C@_1DK@NDHNAHIO@?$AAa?$AAp?$AAi?$AA?9?$AAm?$AAs?$AA?9?$AAw?$AAi?$AAn?$AA?9?$AAc?$AAo?$AAr?$AAe?$AA?9?$AAw?$AAi?$AAn?$AAr?$AAt?$AA?9?$AAl?$AA1?$AA?9?$AA1?$AA?9?$AA0?$AA?$AA@ 00000001401a9690     libucrt:winapi_thunks.obj
 0002:000036d0       ??_C@_1DM@KGHDGBCM@?$AAa?$AAp?$AAi?$AA?9?$AAm?$AAs?$AA?9?$AAw?$AAi?$AAn?$AA?9?$AAc?$AAo?$AAr?$AAe?$AA?9?$AAx?$AAs?$AAt?$AAa?$AAt?$AAe?$AA?9?$AAl?$AA2?$AA?9?$AA1?$AA?9?$AA0?$AA?$AA@ 00000001401a96d0     libucrt:winapi_thunks.obj
 0002:00003710       ??_C@_1EO@IJIOEFOH@?$AAa?$AAp?$AAi?$AA?9?$AAm?$AAs?$AA?9?$AAw?$AAi?$AAn?$AA?9?$AAr?$AAt?$AAc?$AAo?$AAr?$AAe?$AA?9?$AAn?$AAt?$AAu?$AAs?$AAe?$AAr?$AA?9?$AAw?$AAi?$AAn?$AAd?$AAo?$AAw?$AA?9@ 00000001401a9710     libucrt:winapi_thunks.obj
 0002:00003760       ??_C@_1FG@HHGEKANL@?$AAa?$AAp?$AAi?$AA?9?$AAm?$AAs?$AA?9?$AAw?$AAi?$AAn?$AA?9?$AAs?$AAe?$AAc?$AAu?$AAr?$AAi?$AAt?$AAy?$AA?9?$AAs?$AAy?$AAs?$AAt?$AAe?$AAm?$AAf?$AAu?$AAn?$AAc?$AAt?$AAi@ 00000001401a9760     libucrt:winapi_thunks.obj
 0002:000037c0       ??_C@_1FG@NCKKOLKO@?$AAe?$AAx?$AAt?$AA?9?$AAm?$AAs?$AA?9?$AAw?$AAi?$AAn?$AA?9?$AAk?$AAe?$AAr?$AAn?$AAe?$AAl?$AA3?$AA2?$AA?9?$AAp?$AAa?$AAc?$AAk?$AAa?$AAg?$AAe?$AA?9?$AAc?$AAu?$AAr?$AAr@ 00000001401a97c0     libucrt:winapi_thunks.obj
 0002:00003820       ??_C@_1EG@DBIOJECG@?$AAe?$AAx?$AAt?$AA?9?$AAm?$AAs?$AA?9?$AAw?$AAi?$AAn?$AA?9?$AAn?$AAt?$AAu?$AAs?$AAe?$AAr?$AA?9?$AAd?$AAi?$AAa?$AAl?$AAo?$AAg?$AAb?$AAo?$AAx?$AA?9?$AAl?$AA1?$AA?9?$AA1@ 00000001401a9820     libucrt:winapi_thunks.obj
 0002:00003870       ??_C@_1EO@FIHMJCLF@?$AAe?$AAx?$AAt?$AA?9?$AAm?$AAs?$AA?9?$AAw?$AAi?$AAn?$AA?9?$AAn?$AAt?$AAu?$AAs?$AAe?$AAr?$AA?9?$AAw?$AAi?$AAn?$AAd?$AAo?$AAw?$AAs?$AAt?$AAa?$AAt?$AAi?$AAo?$AAn?$AA?9@ 00000001401a9870     libucrt:winapi_thunks.obj
 0002:000038c0       ??_C@_1BC@DNHGCMLG@?$AAa?$AAd?$AAv?$AAa?$AAp?$AAi?$AA3?$AA2?$AA?$AA@ 00000001401a98c0     libucrt:winapi_thunks.obj
 0002:000038d8       ??_C@_1O@BCCLBEOE@?$AAu?$AAs?$AAe?$AAr?$AA3?$AA2?$AA?$AA@ 00000001401a98d8     libucrt:winapi_thunks.obj
 0002:00003910       ??_C@_0BE@JOGNEJCI@GetCurrentPackageId?$AA@ 00000001401a9910     libucrt:winapi_thunks.obj
 0002:00003938       ??_C@_0O@KKBNKAPF@LCMapStringEx?$AA@ 00000001401a9938     libucrt:winapi_thunks.obj
 0002:00003950       ??_C@_0BB@HBDEELFH@LocaleNameToLCID?$AA@ 00000001401a9950     libucrt:winapi_thunks.obj
 0002:00003988       ??_C@_1M@HPNHIDJI@?$AAj?$AAa?$AA?9?$AAJ?$AAP?$AA?$AA@ 00000001401a9988     libucrt:mbctype.obj
 0002:00003998       ??_C@_1M@BIBDDEMK@?$AAz?$AAh?$AA?9?$AAC?$AAN?$AA?$AA@ 00000001401a9998     libucrt:mbctype.obj
 0002:000039a8       ??_C@_1M@JLOOOEGK@?$AAk?$AAo?$AA?9?$AAK?$AAR?$AA?$AA@ 00000001401a99a8     libucrt:mbctype.obj
 0002:000039b8       ??_C@_1M@CLNBBOPM@?$AAz?$AAh?$AA?9?$AAT?$AAW?$AA?$AA@ 00000001401a99b8     libucrt:mbctype.obj
 0002:000039c4       ??_C@_15PJPFLCCM@?$AAu?$AAk?$AA?$AA@ 00000001401a99c4     libucrt:get_qualified_locale.obj
 0002:000039d0       ?large_power_data@?1??multiply_by_power_of_ten@__crt_strtox@@YA_NAEAUbig_integer@2@I@Z@4QBIB 00000001401a99d0     libucrt:cfout.obj
 0002:000042e0       ?large_power_indices@?1??multiply_by_power_of_ten@__crt_strtox@@YA_NAEAUbig_integer@2@I@Z@4QBUunpack_index@?1??12@YA_N0I@Z@B 00000001401aa2e0     libucrt:cfout.obj
 0002:00004378       ?small_powers_of_ten@?6??multiply_by_power_of_ten@__crt_strtox@@YA_NAEAUbig_integer@2@I@Z@4QBIB 00000001401aa378     libucrt:cfout.obj
 0002:0000439c       ??_C@_01GBGANLPD@0?$AA@    00000001401aa39c     libucrt:cfout.obj
 0002:000043a0       ??_C@_05DNEBIAHO@1?$CDINF?$AA@ 00000001401aa3a0     libucrt:cfout.obj
 0002:000043a8       ??_C@_06IMKFLFPG@1?$CDQNAN?$AA@ 00000001401aa3a8     libucrt:cfout.obj
 0002:000043b0       ??_C@_06PGGFOGJG@1?$CDSNAN?$AA@ 00000001401aa3b0     libucrt:cfout.obj
 0002:000043b8       ??_C@_05PHHOCPM@1?$CDIND?$AA@ 00000001401aa3b8     libucrt:cfout.obj
 0002:00005200       ??_C@_15EMKDOKLE@?$AAa?$AAr?$AA?$AA@ 00000001401ab200     libucrt:lcidtoname_downlevel.obj
 0002:00005208       ??_C@_15KNPADPLH@?$AAb?$AAg?$AA?$AA@ 00000001401ab208     libucrt:lcidtoname_downlevel.obj
 0002:00005210       ??_C@_15EDMHLDMO@?$AAc?$AAa?$AA?$AA@ 00000001401ab210     libucrt:lcidtoname_downlevel.obj
 0002:00005218       ??_C@_1O@BPEAJADD@?$AAz?$AAh?$AA?9?$AAC?$AAH?$AAS?$AA?$AA@ 00000001401ab218     libucrt:lcidtoname_downlevel.obj
 0002:00005228       ??_C@_15LJNHCMNK@?$AAc?$AAs?$AA?$AA@ 00000001401ab228     libucrt:lcidtoname_downlevel.obj
 0002:00005230       ??_C@_15FOMCIDHG@?$AAd?$AAa?$AA?$AA@ 00000001401ab230     libucrt:lcidtoname_downlevel.obj
 0002:00005238       ??_C@_15NBKABECB@?$AAd?$AAe?$AA?$AA@ 00000001401ab238     libucrt:lcidtoname_downlevel.obj
 0002:00005240       ??_C@_15GHPEIIAO@?$AAe?$AAl?$AA?$AA@ 00000001401ab240     libucrt:lcidtoname_downlevel.obj
 0002:00005248       ??_C@_15GPIOMPMH@?$AAe?$AAs?$AA?$AA@ 00000001401ab248     libucrt:lcidtoname_downlevel.obj
 0002:00005250       ??_C@_15NGLOAKJC@?$AAf?$AAi?$AA?$AA@ 00000001401ab250     libucrt:lcidtoname_downlevel.obj
 0002:00005258       ??_C@_15FBKGNKAM@?$AAf?$AAr?$AA?$AA@ 00000001401ab258     libucrt:lcidtoname_downlevel.obj
 0002:00005260       ??_C@_15KGGCNEFK@?$AAh?$AAe?$AA?$AA@ 00000001401ab260     libucrt:lcidtoname_downlevel.obj
 0002:00005268       ??_C@_15PGHLIDMF@?$AAh?$AAu?$AA?$AA@ 00000001401ab268     libucrt:lcidtoname_downlevel.obj
 0002:00005270       ??_C@_15BIEMAPLM@?$AAi?$AAs?$AA?$AA@ 00000001401ab270     libucrt:lcidtoname_downlevel.obj
 0002:00005278       ??_C@_15IFJLDHAF@?$AAi?$AAt?$AA?$AA@ 00000001401ab278     libucrt:lcidtoname_downlevel.obj
 0002:00005280       ??_C@_15GEMIOCAG@?$AAj?$AAa?$AA?$AA@ 00000001401ab280     libucrt:lcidtoname_downlevel.obj
 0002:00005288       ??_C@_15EPELEGJA@?$AAk?$AAo?$AA?$AA@ 00000001401ab288     libucrt:lcidtoname_downlevel.obj
 0002:00005290       ??_C@_15NDDHIMN@?$AAn?$AAl?$AA?$AA@ 00000001401ab290     libucrt:lcidtoname_downlevel.obj
 0002:00005298       ??_C@_15DEOPBLCG@?$AAp?$AAl?$AA?$AA@ 00000001401ab298     libucrt:lcidtoname_downlevel.obj
 0002:000052a0       ??_C@_15KBECGEFG@?$AAp?$AAt?$AA?$AA@ 00000001401ab2a0     libucrt:lcidtoname_downlevel.obj
 0002:000052a8       ??_C@_15GLJCBFMD@?$AAr?$AAo?$AA?$AA@ 00000001401ab2a8     libucrt:lcidtoname_downlevel.obj
 0002:000052b0       ??_C@_15FEDGKCDI@?$AAr?$AAu?$AA?$AA@ 00000001401ab2b0     libucrt:lcidtoname_downlevel.obj
 0002:000052b8       ??_C@_15GLKMLLHM@?$AAh?$AAr?$AA?$AA@ 00000001401ab2b8     libucrt:lcidtoname_downlevel.obj
 0002:000052c0       ??_C@_15CPKMFBDB@?$AAs?$AAk?$AA?$AA@ 00000001401ab2c0     libucrt:lcidtoname_downlevel.obj
 0002:000052c8       ??_C@_15BAAIOGMK@?$AAs?$AAq?$AA?$AA@ 00000001401ab2c8     libucrt:lcidtoname_downlevel.obj
 0002:000052d0       ??_C@_15INNPNOHD@?$AAs?$AAv?$AA?$AA@ 00000001401ab2d0     libucrt:lcidtoname_downlevel.obj
 0002:000052d8       ??_C@_15CABMMOGH@?$AAt?$AAh?$AA?$AA@ 00000001401ab2d8     libucrt:lcidtoname_downlevel.obj
 0002:000052e0       ??_C@_15BPLIHJJM@?$AAt?$AAr?$AA?$AA@ 00000001401ab2e0     libucrt:lcidtoname_downlevel.obj
 0002:000052e8       ??_C@_15NEOEKKDJ@?$AAu?$AAr?$AA?$AA@ 00000001401ab2e8     libucrt:lcidtoname_downlevel.obj
 0002:000052f0       ??_C@_15HPJPHDM@?$AAb?$AAe?$AA?$AA@ 00000001401ab2f0     libucrt:lcidtoname_downlevel.obj
 0002:000052f8       ??_C@_15LCHLGJII@?$AAs?$AAl?$AA?$AA@ 00000001401ab2f8     libucrt:lcidtoname_downlevel.obj
 0002:00005300       ??_C@_15PCFJPHHO@?$AAe?$AAt?$AA?$AA@ 00000001401ab300     libucrt:lcidtoname_downlevel.obj
 0002:00005308       ??_C@_15HPFPGODN@?$AAl?$AAv?$AA?$AA@ 00000001401ab308     libucrt:lcidtoname_downlevel.obj
 0002:00005310       ??_C@_15NFFGKGLG@?$AAl?$AAt?$AA?$AA@ 00000001401ab310     libucrt:lcidtoname_downlevel.obj
 0002:00005318       ??_C@_15BDAKCCHN@?$AAf?$AAa?$AA?$AA@ 00000001401ab318     libucrt:lcidtoname_downlevel.obj
 0002:00005320       ??_C@_15NFGIAIAJ@?$AAv?$AAi?$AA?$AA@ 00000001401ab320     libucrt:lcidtoname_downlevel.obj
 0002:00005328       ??_C@_15LMKNDMHN@?$AAh?$AAy?$AA?$AA@ 00000001401ab328     libucrt:lcidtoname_downlevel.obj
 0002:00005330       ??_C@_15IJBHMCFL@?$AAa?$AAz?$AA?$AA@ 00000001401ab330     libucrt:lcidtoname_downlevel.obj
 0002:00005338       ??_C@_15EKOFJABL@?$AAe?$AAu?$AA?$AA@ 00000001401ab338     libucrt:lcidtoname_downlevel.obj
 0002:00005340       ??_C@_15BGHADCNK@?$AAm?$AAk?$AA?$AA@ 00000001401ab340     libucrt:lcidtoname_downlevel.obj
 0002:00005348       ??_C@_15JDNICKHM@?$AAa?$AAf?$AA?$AA@ 00000001401ab348     libucrt:lcidtoname_downlevel.obj
 0002:00005350       ??_C@_15KPJEDBKD@?$AAk?$AAa?$AA?$AA@ 00000001401ab350     libucrt:lcidtoname_downlevel.obj
 0002:00005358       ??_C@_15PDNFFFEO@?$AAf?$AAo?$AA?$AA@ 00000001401ab358     libucrt:lcidtoname_downlevel.obj
 0002:00005360       ??_C@_15OMLEGLOC@?$AAh?$AAi?$AA?$AA@ 00000001401ab360     libucrt:lcidtoname_downlevel.obj
 0002:00005368       ??_C@_15IDNNENKK@?$AAm?$AAs?$AA?$AA@ 00000001401ab368     libucrt:lcidtoname_downlevel.obj
 0002:00005370       ??_C@_15MACJNBMH@?$AAk?$AAk?$AA?$AA@ 00000001401ab370     libucrt:lcidtoname_downlevel.obj
 0002:00005378       ??_C@_15DKDJEOND@?$AAk?$AAy?$AA?$AA@ 00000001401ab378     libucrt:lcidtoname_downlevel.obj
 0002:00005380       ??_C@_15DFGDLJBG@?$AAs?$AAw?$AA?$AA@ 00000001401ab380     libucrt:lcidtoname_downlevel.obj
 0002:00005388       ??_C@_15BBFAICNG@?$AAu?$AAz?$AA?$AA@ 00000001401ab388     libucrt:lcidtoname_downlevel.obj
 0002:00005390       ??_C@_15DKNDCGEA@?$AAt?$AAt?$AA?$AA@ 00000001401ab390     libucrt:lcidtoname_downlevel.obj
 0002:00005398       ??_C@_15MGIFMDPL@?$AAp?$AAa?$AA?$AA@ 00000001401ab398     libucrt:lcidtoname_downlevel.obj
 0002:000053a0       ??_C@_15HCNDBBA@?$AAg?$AAu?$AA?$AA@ 00000001401ab3a0     libucrt:lcidtoname_downlevel.obj
 0002:000053a8       ??_C@_15FNBEIBON@?$AAt?$AAa?$AA?$AA@ 00000001401ab3a8     libucrt:lcidtoname_downlevel.obj
 0002:000053b0       ??_C@_15NCHGBGLK@?$AAt?$AAe?$AA?$AA@ 00000001401ab3b0     libucrt:lcidtoname_downlevel.obj
 0002:000053b8       ??_C@_15PHPHCBPF@?$AAk?$AAn?$AA?$AA@ 00000001401ab3b8     libucrt:lcidtoname_downlevel.obj
 0002:000053c0       ??_C@_15DLGBCKMP@?$AAm?$AAr?$AA?$AA@ 00000001401ab3c0     libucrt:lcidtoname_downlevel.obj
 0002:000053c8       ??_C@_15EABBLBFF@?$AAs?$AAa?$AA?$AA@ 00000001401ab3c8     libucrt:lcidtoname_downlevel.obj
 0002:000053d0       ??_C@_15CBKOMCOI@?$AAm?$AAn?$AA?$AA@ 00000001401ab3d0     libucrt:lcidtoname_downlevel.obj
 0002:000053d8       ??_C@_15CKDMCJAF@?$AAg?$AAl?$AA?$AA@ 00000001401ab3d8     libucrt:lcidtoname_downlevel.obj
 0002:000053e0       ??_C@_17CNJFBPG@?$AAk?$AAo?$AAk?$AA?$AA@ 00000001401ab3e0     libucrt:lcidtoname_downlevel.obj
 0002:000053e8       ??_C@_17FFBJICPL@?$AAs?$AAy?$AAr?$AA?$AA@ 00000001401ab3e8     libucrt:lcidtoname_downlevel.obj
 0002:000053f0       ??_C@_17KPNDCPAF@?$AAd?$AAi?$AAv?$AA?$AA@ 00000001401ab3f0     libucrt:lcidtoname_downlevel.obj
 0002:000053f8       ??_C@_1M@OKAHONE@?$AAa?$AAr?$AA?9?$AAS?$AAA?$AA?$AA@ 00000001401ab3f8     libucrt:lcidtoname_downlevel.obj
 0002:00005408       ??_C@_1M@FFFIGIGK@?$AAb?$AAg?$AA?9?$AAB?$AAG?$AA?$AA@ 00000001401ab408     libucrt:lcidtoname_downlevel.obj
 0002:00005418       ??_C@_1M@BJNKEDC@?$AAc?$AAa?$AA?9?$AAE?$AAS?$AA?$AA@ 00000001401ab418     libucrt:lcidtoname_downlevel.obj
 0002:00005428       ??_C@_1M@IJJHFJHA@?$AAc?$AAs?$AA?9?$AAC?$AAZ?$AA?$AA@ 00000001401ab428     libucrt:lcidtoname_downlevel.obj
 0002:00005438       ??_C@_1M@CLPEOBGI@?$AAd?$AAa?$AA?9?$AAD?$AAK?$AA?$AA@ 00000001401ab438     libucrt:lcidtoname_downlevel.obj
 0002:00005448       ??_C@_1M@MCMADGCB@?$AAd?$AAe?$AA?9?$AAD?$AAE?$AA?$AA@ 00000001401ab448     libucrt:lcidtoname_downlevel.obj
 0002:00005458       ??_C@_1M@OOCKEMAM@?$AAe?$AAl?$AA?9?$AAG?$AAR?$AA?$AA@ 00000001401ab458     libucrt:lcidtoname_downlevel.obj
 0002:00005468       ??_C@_1M@DDNJFGID@?$AAf?$AAi?$AA?9?$AAF?$AAI?$AA?$AA@ 00000001401ab468     libucrt:lcidtoname_downlevel.obj
 0002:00005478       ??_C@_1M@GLIPPMAC@?$AAf?$AAr?$AA?9?$AAF?$AAR?$AA?$AA@ 00000001401ab478     libucrt:lcidtoname_downlevel.obj
 0002:00005488       ??_C@_1M@GFMCHPE@?$AAh?$AAe?$AA?9?$AAI?$AAL?$AA?$AA@ 00000001401ab488     libucrt:lcidtoname_downlevel.obj
 0002:00005498       ??_C@_1M@MHLPGNKM@?$AAh?$AAu?$AA?9?$AAH?$AAU?$AA?$AA@ 00000001401ab498     libucrt:lcidtoname_downlevel.obj
 0002:000054a8       ??_C@_1M@LPDDNNPN@?$AAi?$AAs?$AA?9?$AAI?$AAS?$AA?$AA@ 00000001401ab4a8     libucrt:lcidtoname_downlevel.obj
 0002:000054b8       ??_C@_1M@MADIPODN@?$AAi?$AAt?$AA?9?$AAI?$AAT?$AA?$AA@ 00000001401ab4b8     libucrt:lcidtoname_downlevel.obj
 0002:000054c8       ??_C@_1M@IHBJJGG@?$AAn?$AAl?$AA?9?$AAN?$AAL?$AA?$AA@ 00000001401ab4c8     libucrt:lcidtoname_downlevel.obj
 0002:000054d8       ??_C@_1M@EANAGDL@?$AAn?$AAb?$AA?9?$AAN?$AAO?$AA?$AA@ 00000001401ab4d8     libucrt:lcidtoname_downlevel.obj
 0002:000054e8       ??_C@_1M@NEIEMEGP@?$AAp?$AAl?$AA?9?$AAP?$AAL?$AA?$AA@ 00000001401ab4e8     libucrt:lcidtoname_downlevel.obj
 0002:000054f8       ??_C@_1M@BOCFIGEP@?$AAp?$AAt?$AA?9?$AAB?$AAR?$AA?$AA@ 00000001401ab4f8     libucrt:lcidtoname_downlevel.obj
 0002:00005508       ??_C@_1M@IMPFOPBG@?$AAr?$AAo?$AA?9?$AAR?$AAO?$AA?$AA@ 00000001401ab508     libucrt:lcidtoname_downlevel.obj
 0002:00005518       ??_C@_1M@IDNNEJMM@?$AAr?$AAu?$AA?9?$AAR?$AAU?$AA?$AA@ 00000001401ab518     libucrt:lcidtoname_downlevel.obj
 0002:00005528       ??_C@_1M@LILEEOGM@?$AAh?$AAr?$AA?9?$AAH?$AAR?$AA?$AA@ 00000001401ab528     libucrt:lcidtoname_downlevel.obj
 0002:00005538       ??_C@_1M@FKIFEHPB@?$AAs?$AAk?$AA?9?$AAS?$AAK?$AA?$AA@ 00000001401ab538     libucrt:lcidtoname_downlevel.obj
 0002:00005548       ??_C@_1M@LJMAMNPJ@?$AAs?$AAq?$AA?9?$AAA?$AAL?$AA?$AA@ 00000001401ab548     libucrt:lcidtoname_downlevel.obj
 0002:00005558       ??_C@_1M@GIAKDKJK@?$AAs?$AAv?$AA?9?$AAS?$AAE?$AA?$AA@ 00000001401ab558     libucrt:lcidtoname_downlevel.obj
 0002:00005568       ??_C@_1M@MKJKIKCL@?$AAt?$AAh?$AA?9?$AAT?$AAH?$AA?$AA@ 00000001401ab568     libucrt:lcidtoname_downlevel.obj
 0002:00005578       ??_C@_1M@MFLCCMPB@?$AAt?$AAr?$AA?9?$AAT?$AAR?$AA?$AA@ 00000001401ab578     libucrt:lcidtoname_downlevel.obj
 0002:00005588       ??_C@_1M@OIJHDKJN@?$AAu?$AAr?$AA?9?$AAP?$AAK?$AA?$AA@ 00000001401ab588     libucrt:lcidtoname_downlevel.obj
 0002:00005598       ??_C@_1M@LHIPCIEK@?$AAi?$AAd?$AA?9?$AAI?$AAD?$AA?$AA@ 00000001401ab598     libucrt:lcidtoname_downlevel.obj
 0002:000055a8       ??_C@_1M@MFMOBGI@?$AAu?$AAk?$AA?9?$AAU?$AAA?$AA?$AA@ 00000001401ab5a8     libucrt:lcidtoname_downlevel.obj
 0002:000055b8       ??_C@_1M@OBGLJIPL@?$AAb?$AAe?$AA?9?$AAB?$AAY?$AA?$AA@ 00000001401ab5b8     libucrt:lcidtoname_downlevel.obj
 0002:000055c8       ??_C@_1M@BCFAJEAD@?$AAs?$AAl?$AA?9?$AAS?$AAI?$AA?$AA@ 00000001401ab5c8     libucrt:lcidtoname_downlevel.obj
 0002:000055d8       ??_C@_1M@FKFFEDDN@?$AAe?$AAt?$AA?9?$AAE?$AAE?$AA?$AA@ 00000001401ab5d8     libucrt:lcidtoname_downlevel.obj
 0002:000055e8       ??_C@_1M@KGKKAACI@?$AAl?$AAv?$AA?9?$AAL?$AAV?$AA?$AA@ 00000001401ab5e8     libucrt:lcidtoname_downlevel.obj
 0002:000055f8       ??_C@_1M@IFGBIJO@?$AAl?$AAt?$AA?9?$AAL?$AAT?$AA?$AA@ 00000001401ab5f8     libucrt:lcidtoname_downlevel.obj
 0002:00005608       ??_C@_1M@FGEAHEDM@?$AAf?$AAa?$AA?9?$AAI?$AAR?$AA?$AA@ 00000001401ab608     libucrt:lcidtoname_downlevel.obj
 0002:00005618       ??_C@_1M@KBMAIBFN@?$AAv?$AAi?$AA?9?$AAV?$AAN?$AA?$AA@ 00000001401ab618     libucrt:lcidtoname_downlevel.obj
 0002:00005628       ??_C@_1M@GPCBKDJK@?$AAh?$AAy?$AA?9?$AAA?$AAM?$AA?$AA@ 00000001401ab628     libucrt:lcidtoname_downlevel.obj
 0002:00005638       ??_C@_1BG@BECMDDJB@?$AAa?$AAz?$AA?9?$AAA?$AAZ?$AA?9?$AAL?$AAa?$AAt?$AAn?$AA?$AA@ 00000001401ab638     libucrt:lcidtoname_downlevel.obj
 0002:00005650       ??_C@_1M@MAOFCAEA@?$AAe?$AAu?$AA?9?$AAE?$AAS?$AA?$AA@ 00000001401ab650     libucrt:lcidtoname_downlevel.obj
 0002:00005660       ??_C@_1M@IGHABKPI@?$AAm?$AAk?$AA?9?$AAM?$AAK?$AA?$AA@ 00000001401ab660     libucrt:lcidtoname_downlevel.obj
 0002:00005670       ??_C@_1M@IAIGNEJG@?$AAt?$AAn?$AA?9?$AAZ?$AAA?$AA?$AA@ 00000001401ab670     libucrt:lcidtoname_downlevel.obj
 0002:00005680       ??_C@_1M@IIJCOJFA@?$AAx?$AAh?$AA?9?$AAZ?$AAA?$AA?$AA@ 00000001401ab680     libucrt:lcidtoname_downlevel.obj
 0002:00005690       ??_C@_1M@LGPJHNJH@?$AAz?$AAu?$AA?9?$AAZ?$AAA?$AA?$AA@ 00000001401ab690     libucrt:lcidtoname_downlevel.obj
 0002:000056a0       ??_C@_1M@HOKAOIO@?$AAa?$AAf?$AA?9?$AAZ?$AAA?$AA?$AA@ 00000001401ab6a0     libucrt:lcidtoname_downlevel.obj
 0002:000056b0       ??_C@_1M@DPCLHLIE@?$AAk?$AAa?$AA?9?$AAG?$AAE?$AA?$AA@ 00000001401ab6b0     libucrt:lcidtoname_downlevel.obj
 0002:000056c0       ??_C@_1M@BLKMHJBI@?$AAf?$AAo?$AA?9?$AAF?$AAO?$AA?$AA@ 00000001401ab6c0     libucrt:lcidtoname_downlevel.obj
 0002:000056d0       ??_C@_1M@LGGJAPPB@?$AAh?$AAi?$AA?9?$AAI?$AAN?$AA?$AA@ 00000001401ab6d0     libucrt:lcidtoname_downlevel.obj
 0002:000056e0       ??_C@_1M@FIKPIHFE@?$AAm?$AAt?$AA?9?$AAM?$AAT?$AA?$AA@ 00000001401ab6e0     libucrt:lcidtoname_downlevel.obj
 0002:000056f0       ??_C@_1M@HEGGPBFA@?$AAs?$AAe?$AA?9?$AAN?$AAO?$AA?$AA@ 00000001401ab6f0     libucrt:lcidtoname_downlevel.obj
 0002:00005700       ??_C@_1M@EIBJEEPA@?$AAm?$AAs?$AA?9?$AAM?$AAY?$AA?$AA@ 00000001401ab700     libucrt:lcidtoname_downlevel.obj
 0002:00005710       ??_C@_1M@FHLBGMPP@?$AAk?$AAk?$AA?9?$AAK?$AAZ?$AA?$AA@ 00000001401ab710     libucrt:lcidtoname_downlevel.obj
 0002:00005720       ??_C@_1M@NGJJLCGI@?$AAk?$AAy?$AA?9?$AAK?$AAG?$AA?$AA@ 00000001401ab720     libucrt:lcidtoname_downlevel.obj
 0002:00005730       ??_C@_1M@GIENNBFC@?$AAs?$AAw?$AA?9?$AAK?$AAE?$AA?$AA@ 00000001401ab730     libucrt:lcidtoname_downlevel.obj
 0002:00005740       ??_C@_1BG@NDGMJIMJ@?$AAu?$AAz?$AA?9?$AAU?$AAZ?$AA?9?$AAL?$AAa?$AAt?$AAn?$AA?$AA@ 00000001401ab740     libucrt:lcidtoname_downlevel.obj
 0002:00005758       ??_C@_1M@IDCCIHBC@?$AAt?$AAt?$AA?9?$AAR?$AAU?$AA?$AA@ 00000001401ab758     libucrt:lcidtoname_downlevel.obj
 0002:00005768       ??_C@_1M@LOICPMOJ@?$AAb?$AAn?$AA?9?$AAI?$AAN?$AA?$AA@ 00000001401ab768     libucrt:lcidtoname_downlevel.obj
 0002:00005778       ??_C@_1M@KPKKNEAH@?$AAp?$AAa?$AA?9?$AAI?$AAN?$AA?$AA@ 00000001401ab778     libucrt:lcidtoname_downlevel.obj
 0002:00005788       ??_C@_1M@PJGPPBOG@?$AAg?$AAu?$AA?9?$AAI?$AAN?$AA?$AA@ 00000001401ab788     libucrt:lcidtoname_downlevel.obj
 0002:00005798       ??_C@_1M@KMKMOPHI@?$AAt?$AAa?$AA?9?$AAI?$AAN?$AA?$AA@ 00000001401ab798     libucrt:lcidtoname_downlevel.obj
 0002:000057a8       ??_C@_1M@KFEHEPAC@?$AAt?$AAe?$AA?9?$AAI?$AAN?$AA?$AA@ 00000001401ab7a8     libucrt:lcidtoname_downlevel.obj
 0002:000057b8       ??_C@_1M@CDCLMGHI@?$AAk?$AAn?$AA?9?$AAI?$AAN?$AA?$AA@ 00000001401ab7b8     libucrt:lcidtoname_downlevel.obj
 0002:000057c8       ??_C@_1M@MIODLDKF@?$AAm?$AAl?$AA?9?$AAI?$AAN?$AA?$AA@ 00000001401ab7c8     libucrt:lcidtoname_downlevel.obj
 0002:000057d8       ??_C@_1M@PBIEACPO@?$AAm?$AAr?$AA?9?$AAI?$AAN?$AA?$AA@ 00000001401ab7d8     libucrt:lcidtoname_downlevel.obj
 0002:000057e8       ??_C@_1M@NIDEAGPH@?$AAs?$AAa?$AA?9?$AAI?$AAN?$AA?$AA@ 00000001401ab7e8     libucrt:lcidtoname_downlevel.obj
 0002:000057f8       ??_C@_1M@FHIHCBIO@?$AAm?$AAn?$AA?9?$AAM?$AAN?$AA?$AA@ 00000001401ab7f8     libucrt:lcidtoname_downlevel.obj
 0002:00005808       ??_C@_1M@JAIJPENP@?$AAc?$AAy?$AA?9?$AAG?$AAB?$AA?$AA@ 00000001401ab808     libucrt:lcidtoname_downlevel.obj
 0002:00005818       ??_C@_1M@PHGFBEPN@?$AAg?$AAl?$AA?9?$AAE?$AAS?$AA?$AA@ 00000001401ab818     libucrt:lcidtoname_downlevel.obj
 0002:00005828       ??_C@_1O@KPIPDNCP@?$AAk?$AAo?$AAk?$AA?9?$AAI?$AAN?$AA?$AA@ 00000001401ab828     libucrt:lcidtoname_downlevel.obj
 0002:00005838       ??_C@_1O@KNHJLDJA@?$AAs?$AAy?$AAr?$AA?9?$AAS?$AAY?$AA?$AA@ 00000001401ab838     libucrt:lcidtoname_downlevel.obj
 0002:00005848       ??_C@_1O@MKEKBLAH@?$AAd?$AAi?$AAv?$AA?9?$AAM?$AAV?$AA?$AA@ 00000001401ab848     libucrt:lcidtoname_downlevel.obj
 0002:00005858       ??_C@_1O@OHDCKDDF@?$AAq?$AAu?$AAz?$AA?9?$AAB?$AAO?$AA?$AA@ 00000001401ab858     libucrt:lcidtoname_downlevel.obj
 0002:00005868       ??_C@_1M@LEPJNLFD@?$AAn?$AAs?$AA?9?$AAZ?$AAA?$AA?$AA@ 00000001401ab868     libucrt:lcidtoname_downlevel.obj
 0002:00005878       ??_C@_1M@OMLEIIJB@?$AAm?$AAi?$AA?9?$AAN?$AAZ?$AA?$AA@ 00000001401ab878     libucrt:lcidtoname_downlevel.obj
 0002:00005888       ??_C@_1M@PMPEAILG@?$AAa?$AAr?$AA?9?$AAI?$AAQ?$AA?$AA@ 00000001401ab888     libucrt:lcidtoname_downlevel.obj
 0002:00005898       ??_C@_1M@CNKPNOEE@?$AAd?$AAe?$AA?9?$AAC?$AAH?$AA?$AA@ 00000001401ab898     libucrt:lcidtoname_downlevel.obj
 0002:000058a8       ??_C@_1M@LKMGMLKO@?$AAe?$AAn?$AA?9?$AAG?$AAB?$AA?$AA@ 00000001401ab8a8     libucrt:lcidtoname_downlevel.obj
 0002:000058b8       ??_C@_1M@PGKJFFGL@?$AAe?$AAs?$AA?9?$AAM?$AAX?$AA?$AA@ 00000001401ab8b8     libucrt:lcidtoname_downlevel.obj
 0002:000058c8       ??_C@_1M@DNNANBDC@?$AAf?$AAr?$AA?9?$AAB?$AAE?$AA?$AA@ 00000001401ab8c8     libucrt:lcidtoname_downlevel.obj
 0002:000058d8       ??_C@_1M@HLGMDFHM@?$AAi?$AAt?$AA?9?$AAC?$AAH?$AA?$AA@ 00000001401ab8d8     libucrt:lcidtoname_downlevel.obj
 0002:000058e8       ??_C@_1M@CLLBGJH@?$AAn?$AAl?$AA?9?$AAB?$AAE?$AA?$AA@ 00000001401ab8e8     libucrt:lcidtoname_downlevel.obj
 0002:000058f8       ??_C@_1M@BODBOGLF@?$AAn?$AAn?$AA?9?$AAN?$AAO?$AA?$AA@ 00000001401ab8f8     libucrt:lcidtoname_downlevel.obj
 0002:00005908       ??_C@_1M@HFFAHKAD@?$AAp?$AAt?$AA?9?$AAP?$AAT?$AA?$AA@ 00000001401ab908     libucrt:lcidtoname_downlevel.obj
 0002:00005918       ??_C@_1BG@LNOAKHIE@?$AAs?$AAr?$AA?9?$AAS?$AAP?$AA?9?$AAL?$AAa?$AAt?$AAn?$AA?$AA@ 00000001401ab918     libucrt:lcidtoname_downlevel.obj
 0002:00005930       ??_C@_1M@HBMHBGAK@?$AAs?$AAv?$AA?9?$AAF?$AAI?$AA?$AA@ 00000001401ab930     libucrt:lcidtoname_downlevel.obj
 0002:00005940       ??_C@_1BG@DGCJGJBE@?$AAa?$AAz?$AA?9?$AAA?$AAZ?$AA?9?$AAC?$AAy?$AAr?$AAl?$AA?$AA@ 00000001401ab940     libucrt:lcidtoname_downlevel.obj
 0002:00005958       ??_C@_1M@KEJDAAHB@?$AAs?$AAe?$AA?9?$AAS?$AAE?$AA?$AA@ 00000001401ab958     libucrt:lcidtoname_downlevel.obj
 0002:00005968       ??_C@_1M@HEIBJJAD@?$AAm?$AAs?$AA?9?$AAB?$AAN?$AA?$AA@ 00000001401ab968     libucrt:lcidtoname_downlevel.obj
 0002:00005978       ??_C@_1BG@PBGJMCEM@?$AAu?$AAz?$AA?9?$AAU?$AAZ?$AA?9?$AAC?$AAy?$AAr?$AAl?$AA?$AA@ 00000001401ab978     libucrt:lcidtoname_downlevel.obj
 0002:00005990       ??_C@_1O@LAOBCMDF@?$AAq?$AAu?$AAz?$AA?9?$AAE?$AAC?$AA?$AA@ 00000001401ab990     libucrt:lcidtoname_downlevel.obj
 0002:000059a0       ??_C@_1M@POEEMAIO@?$AAa?$AAr?$AA?9?$AAE?$AAG?$AA?$AA@ 00000001401ab9a0     libucrt:lcidtoname_downlevel.obj
 0002:000059b0       ??_C@_1M@EFAKDEDL@?$AAz?$AAh?$AA?9?$AAH?$AAK?$AA?$AA@ 00000001401ab9b0     libucrt:lcidtoname_downlevel.obj
 0002:000059c0       ??_C@_1M@HKKIJHGI@?$AAd?$AAe?$AA?9?$AAA?$AAT?$AA?$AA@ 00000001401ab9c0     libucrt:lcidtoname_downlevel.obj
 0002:000059d0       ??_C@_1M@KBFBEHJF@?$AAe?$AAn?$AA?9?$AAA?$AAU?$AA?$AA@ 00000001401ab9d0     libucrt:lcidtoname_downlevel.obj
 0002:000059e0       ??_C@_1M@MNPLFAAH@?$AAe?$AAs?$AA?9?$AAE?$AAS?$AA?$AA@ 00000001401ab9e0     libucrt:lcidtoname_downlevel.obj
 0002:000059f0       ??_C@_1M@HJOOJFMA@?$AAf?$AAr?$AA?9?$AAC?$AAA?$AA?$AA@ 00000001401ab9f0     libucrt:lcidtoname_downlevel.obj
 0002:00005a00       ??_C@_1BG@JPOFPNAB@?$AAs?$AAr?$AA?9?$AAS?$AAP?$AA?9?$AAC?$AAy?$AAr?$AAl?$AA?$AA@ 00000001401aba00     libucrt:lcidtoname_downlevel.obj
 0002:00005a18       ??_C@_1M@LNFOCMOB@?$AAs?$AAe?$AA?9?$AAF?$AAI?$AA?$AA@ 00000001401aba18     libucrt:lcidtoname_downlevel.obj
 0002:00005a28       ??_C@_1O@MGJBOAMB@?$AAq?$AAu?$AAz?$AA?9?$AAP?$AAE?$AA?$AA@ 00000001401aba28     libucrt:lcidtoname_downlevel.obj
 0002:00005a38       ??_C@_1M@GJINLBOK@?$AAa?$AAr?$AA?9?$AAL?$AAY?$AA?$AA@ 00000001401aba38     libucrt:lcidtoname_downlevel.obj
 0002:00005a48       ??_C@_1M@GGMNHJNL@?$AAz?$AAh?$AA?9?$AAS?$AAG?$AA?$AA@ 00000001401aba48     libucrt:lcidtoname_downlevel.obj
 0002:00005a58       ??_C@_1M@HOIKODND@?$AAd?$AAe?$AA?9?$AAL?$AAU?$AA?$AA@ 00000001401aba58     libucrt:lcidtoname_downlevel.obj
 0002:00005a68       ??_C@_1M@DDOCCGFG@?$AAe?$AAn?$AA?9?$AAC?$AAA?$AA?$AA@ 00000001401aba68     libucrt:lcidtoname_downlevel.obj
 0002:00005a78       ??_C@_1M@BNOEMJLF@?$AAe?$AAs?$AA?9?$AAG?$AAT?$AA?$AA@ 00000001401aba78     libucrt:lcidtoname_downlevel.obj
 0002:00005a88       ??_C@_1M@EOGNKEK@?$AAf?$AAr?$AA?9?$AAC?$AAH?$AA?$AA@ 00000001401aba88     libucrt:lcidtoname_downlevel.obj
 0002:00005a98       ??_C@_1M@FLIDJFHL@?$AAh?$AAr?$AA?9?$AAB?$AAA?$AA?$AA@ 00000001401aba98     libucrt:lcidtoname_downlevel.obj
 0002:00005aa8       ??_C@_1O@FMCELNAJ@?$AAs?$AAm?$AAj?$AA?9?$AAN?$AAO?$AA?$AA@ 00000001401abaa8     libucrt:lcidtoname_downlevel.obj
 0002:00005ab8       ??_C@_1M@JHGLJMGJ@?$AAa?$AAr?$AA?9?$AAD?$AAZ?$AA?$AA@ 00000001401abab8     libucrt:lcidtoname_downlevel.obj
 0002:00005ac8       ??_C@_1M@JKKFDCNP@?$AAz?$AAh?$AA?9?$AAM?$AAO?$AA?$AA@ 00000001401abac8     libucrt:lcidtoname_downlevel.obj
 0002:00005ad8       ??_C@_1M@GEEFALPE@?$AAd?$AAe?$AA?9?$AAL?$AAI?$AA?$AA@ 00000001401abad8     libucrt:lcidtoname_downlevel.obj
 0002:00005ae8       ??_C@_1M@IGEOFBG@?$AAe?$AAn?$AA?9?$AAN?$AAZ?$AA?$AA@ 00000001401abae8     libucrt:lcidtoname_downlevel.obj
 0002:00005af8       ??_C@_1M@KDBONEHP@?$AAe?$AAs?$AA?9?$AAC?$AAR?$AA?$AA@ 00000001401abaf8     libucrt:lcidtoname_downlevel.obj
 0002:00005b08       ??_C@_1M@FHMDOHNN@?$AAf?$AAr?$AA?9?$AAL?$AAU?$AA?$AA@ 00000001401abb08     libucrt:lcidtoname_downlevel.obj
 0002:00005b18       ??_C@_1BG@NFKKMAFG@?$AAb?$AAs?$AA?9?$AAB?$AAA?$AA?9?$AAL?$AAa?$AAt?$AAn?$AA?$AA@ 00000001401abb18     libucrt:lcidtoname_downlevel.obj
 0002:00005b30       ??_C@_1O@IMNBEMCI@?$AAs?$AAm?$AAj?$AA?9?$AAS?$AAE?$AA?$AA@ 00000001401abb30     libucrt:lcidtoname_downlevel.obj
 0002:00005b40       ??_C@_1M@DHHMBNDP@?$AAa?$AAr?$AA?9?$AAM?$AAA?$AA?$AA@ 00000001401abb40     libucrt:lcidtoname_downlevel.obj
 0002:00005b50       ??_C@_1M@BNBLJCGH@?$AAe?$AAn?$AA?9?$AAI?$AAE?$AA?$AA@ 00000001401abb50     libucrt:lcidtoname_downlevel.obj
 0002:00005b60       ??_C@_1M@GEPAFMDL@?$AAe?$AAs?$AA?9?$AAP?$AAA?$AA?$AA@ 00000001401abb60     libucrt:lcidtoname_downlevel.obj
 0002:00005b70       ??_C@_1M@OJONDMDL@?$AAf?$AAr?$AA?9?$AAM?$AAC?$AA?$AA@ 00000001401abb70     libucrt:lcidtoname_downlevel.obj
 0002:00005b80       ??_C@_1BG@OBCNFJB@?$AAs?$AAr?$AA?9?$AAB?$AAA?$AA?9?$AAL?$AAa?$AAt?$AAn?$AA?$AA@ 00000001401abb80     libucrt:lcidtoname_downlevel.obj
 0002:00005b98       ??_C@_1O@KEMEEGPO@?$AAs?$AAm?$AAa?$AA?9?$AAN?$AAO?$AA?$AA@ 00000001401abb98     libucrt:lcidtoname_downlevel.obj
 0002:00005ba8       ??_C@_1M@ELMGFODK@?$AAa?$AAr?$AA?9?$AAT?$AAN?$AA?$AA@ 00000001401abba8     libucrt:lcidtoname_downlevel.obj
 0002:00005bb8       ??_C@_1M@BHDLHFAF@?$AAe?$AAn?$AA?9?$AAZ?$AAA?$AA?$AA@ 00000001401abbb8     libucrt:lcidtoname_downlevel.obj
 0002:00005bc8       ??_C@_1M@BMGIGLIF@?$AAe?$AAs?$AA?9?$AAD?$AAO?$AA?$AA@ 00000001401abbc8     libucrt:lcidtoname_downlevel.obj
 0002:00005bd8       ??_C@_1BG@CMBHIPBE@?$AAs?$AAr?$AA?9?$AAB?$AAA?$AA?9?$AAC?$AAy?$AAr?$AAl?$AA?$AA@ 00000001401abbd8     libucrt:lcidtoname_downlevel.obj
 0002:00005bf0       ??_C@_1O@HEDBLHNP@?$AAs?$AAm?$AAa?$AA?9?$AAS?$AAE?$AA?$AA@ 00000001401abbf0     libucrt:lcidtoname_downlevel.obj
 0002:00005c00       ??_C@_1M@DAGCADIM@?$AAa?$AAr?$AA?9?$AAO?$AAM?$AA?$AA@ 00000001401abc00     libucrt:lcidtoname_downlevel.obj
 0002:00005c10       ??_C@_1M@FODLMICG@?$AAe?$AAn?$AA?9?$AAJ?$AAM?$AA?$AA@ 00000001401abc10     libucrt:lcidtoname_downlevel.obj
 0002:00005c20       ??_C@_1M@DNMLCIHB@?$AAe?$AAs?$AA?9?$AAV?$AAE?$AA?$AA@ 00000001401abc20     libucrt:lcidtoname_downlevel.obj
 0002:00005c30       ??_C@_1O@EOKHMKJK@?$AAs?$AAm?$AAs?$AA?9?$AAF?$AAI?$AA?$AA@ 00000001401abc30     libucrt:lcidtoname_downlevel.obj
 0002:00005c40       ??_C@_1M@CAFJMKOF@?$AAa?$AAr?$AA?9?$AAY?$AAE?$AA?$AA@ 00000001401abc40     libucrt:lcidtoname_downlevel.obj
 0002:00005c50       ??_C@_1M@CBFHIJLI@?$AAe?$AAn?$AA?9?$AAC?$AAB?$AA?$AA@ 00000001401abc50     libucrt:lcidtoname_downlevel.obj
 0002:00005c60       ??_C@_1M@BGNFLDN@?$AAe?$AAs?$AA?9?$AAC?$AAO?$AA?$AA@ 00000001401abc60     libucrt:lcidtoname_downlevel.obj
 0002:00005c70       ??_C@_1O@JMPHMAMC@?$AAs?$AAm?$AAn?$AA?9?$AAF?$AAI?$AA?$AA@ 00000001401abc70     libucrt:lcidtoname_downlevel.obj
 0002:00005c80       ??_C@_1M@JLANABKE@?$AAa?$AAr?$AA?9?$AAS?$AAY?$AA?$AA@ 00000001401abc80     libucrt:lcidtoname_downlevel.obj
 0002:00005c90       ??_C@_1M@HPKGCFGN@?$AAe?$AAn?$AA?9?$AAB?$AAZ?$AA?$AA@ 00000001401abc90     libucrt:lcidtoname_downlevel.obj
 0002:00005ca0       ??_C@_1M@OLJCMLGM@?$AAe?$AAs?$AA?9?$AAP?$AAE?$AA?$AA@ 00000001401abca0     libucrt:lcidtoname_downlevel.obj
 0002:00005cb0       ??_C@_1M@MKKGFKLE@?$AAa?$AAr?$AA?9?$AAJ?$AAO?$AA?$AA@ 00000001401abcb0     libucrt:lcidtoname_downlevel.obj
 0002:00005cc0       ??_C@_1M@EKPGLDNI@?$AAe?$AAn?$AA?9?$AAT?$AAT?$AA?$AA@ 00000001401abcc0     libucrt:lcidtoname_downlevel.obj
 0002:00005cd0       ??_C@_1M@OONGHFHE@?$AAe?$AAs?$AA?9?$AAA?$AAR?$AA?$AA@ 00000001401abcd0     libucrt:lcidtoname_downlevel.obj
 0002:00005ce0       ??_C@_1M@OOJFGBHE@?$AAa?$AAr?$AA?9?$AAL?$AAB?$AA?$AA@ 00000001401abce0     libucrt:lcidtoname_downlevel.obj
 0002:00005cf0       ??_C@_1M@GCEJHNEG@?$AAe?$AAn?$AA?9?$AAZ?$AAW?$AA?$AA@ 00000001401abcf0     libucrt:lcidtoname_downlevel.obj
 0002:00005d00       ??_C@_1M@JNOCAHJI@?$AAe?$AAs?$AA?9?$AAE?$AAC?$AA?$AA@ 00000001401abd00     libucrt:lcidtoname_downlevel.obj
 0002:00005d10       ??_C@_1M@JEFHPGGB@?$AAa?$AAr?$AA?9?$AAK?$AAW?$AA?$AA@ 00000001401abd10     libucrt:lcidtoname_downlevel.obj
 0002:00005d20       ??_C@_1M@MLKIBJOJ@?$AAe?$AAn?$AA?9?$AAP?$AAH?$AA?$AA@ 00000001401abd20     libucrt:lcidtoname_downlevel.obj
 0002:00005d30       ??_C@_1M@BDNIPEND@?$AAe?$AAs?$AA?9?$AAC?$AAL?$AA?$AA@ 00000001401abd30     libucrt:lcidtoname_downlevel.obj
 0002:00005d40       ??_C@_1M@MPNMEKBD@?$AAa?$AAr?$AA?9?$AAA?$AAE?$AA?$AA@ 00000001401abd40     libucrt:lcidtoname_downlevel.obj
 0002:00005d50       ??_C@_1M@KBJALCPI@?$AAe?$AAs?$AA?9?$AAU?$AAY?$AA?$AA@ 00000001401abd50     libucrt:lcidtoname_downlevel.obj
 0002:00005d60       ??_C@_1M@LLCCOAGA@?$AAa?$AAr?$AA?9?$AAB?$AAH?$AA?$AA@ 00000001401abd60     libucrt:lcidtoname_downlevel.obj
 0002:00005d70       ??_C@_1M@PBFNCDEL@?$AAe?$AAs?$AA?9?$AAP?$AAY?$AA?$AA@ 00000001401abd70     libucrt:lcidtoname_downlevel.obj
 0002:00005d80       ??_C@_1M@EDGINPNP@?$AAa?$AAr?$AA?9?$AAQ?$AAA?$AA?$AA@ 00000001401abd80     libucrt:lcidtoname_downlevel.obj
 0002:00005d90       ??_C@_1M@MKDBIIJI@?$AAe?$AAs?$AA?9?$AAB?$AAO?$AA?$AA@ 00000001401abd90     libucrt:lcidtoname_downlevel.obj
 0002:00005da0       ??_C@_1M@CPKKEBLD@?$AAe?$AAs?$AA?9?$AAS?$AAV?$AA?$AA@ 00000001401abda0     libucrt:lcidtoname_downlevel.obj
 0002:00005db0       ??_C@_1M@NDBGMMJL@?$AAe?$AAs?$AA?9?$AAH?$AAN?$AA?$AA@ 00000001401abdb0     libucrt:lcidtoname_downlevel.obj
 0002:00005dc0       ??_C@_1M@JIJIBHDP@?$AAe?$AAs?$AA?9?$AAN?$AAI?$AA?$AA@ 00000001401abdc0     libucrt:lcidtoname_downlevel.obj
 0002:00005dd0       ??_C@_1M@CGFMKEEK@?$AAe?$AAs?$AA?9?$AAP?$AAR?$AA?$AA@ 00000001401abdd0     libucrt:lcidtoname_downlevel.obj
 0002:00005de0       ??_C@_1O@ICJHKIIK@?$AAz?$AAh?$AA?9?$AAC?$AAH?$AAT?$AA?$AA@ 00000001401abde0     libucrt:lcidtoname_downlevel.obj
 0002:00005df0       ??_C@_15CLNEJCE@?$AAs?$AAr?$AA?$AA@ 00000001401abdf0     libucrt:lcidtoname_downlevel.obj
 0002:00006c40       ??_C@_1M@KAHEKEIG@?$AAa?$AAf?$AA?9?$AAz?$AAa?$AA?$AA@ 00000001401acc40     libucrt:lcidtoname_downlevel.obj
 0002:00006c50       ??_C@_1M@GIECOABL@?$AAa?$AAr?$AA?9?$AAa?$AAe?$AA?$AA@ 00000001401acc50     libucrt:lcidtoname_downlevel.obj
 0002:00006c60       ??_C@_1M@BMLMEKGI@?$AAa?$AAr?$AA?9?$AAb?$AAh?$AA?$AA@ 00000001401acc60     libucrt:lcidtoname_downlevel.obj
 0002:00006c70       ??_C@_1M@DAPFDGGB@?$AAa?$AAr?$AA?9?$AAd?$AAz?$AA?$AA@ 00000001401acc70     libucrt:lcidtoname_downlevel.obj
 0002:00006c80       ??_C@_1M@FJNKGKIG@?$AAa?$AAr?$AA?9?$AAe?$AAg?$AA?$AA@ 00000001401acc80     libucrt:lcidtoname_downlevel.obj
 0002:00006c90       ??_C@_1M@FLGKKCLO@?$AAa?$AAr?$AA?9?$AAi?$AAq?$AA?$AA@ 00000001401acc90     libucrt:lcidtoname_downlevel.obj
 0002:00006ca0       ??_C@_1M@GNDIPALM@?$AAa?$AAr?$AA?9?$AAj?$AAo?$AA?$AA@ 00000001401acca0     libucrt:lcidtoname_downlevel.obj
 0002:00006cb0       ??_C@_1M@DDMJFMGJ@?$AAa?$AAr?$AA?9?$AAk?$AAw?$AA?$AA@ 00000001401accb0     libucrt:lcidtoname_downlevel.obj
 0002:00006cc0       ??_C@_1M@EJALMLHM@?$AAa?$AAr?$AA?9?$AAl?$AAb?$AA?$AA@ 00000001401accc0     libucrt:lcidtoname_downlevel.obj
 0002:00006cd0       ??_C@_1M@MOBDBLOC@?$AAa?$AAr?$AA?9?$AAl?$AAy?$AA?$AA@ 00000001401accd0     libucrt:lcidtoname_downlevel.obj
 0002:00006ce0       ??_C@_1M@JAOCLHDH@?$AAa?$AAr?$AA?9?$AAm?$AAa?$AA?$AA@ 00000001401acce0     libucrt:lcidtoname_downlevel.obj
 0002:00006cf0       ??_C@_1M@JHPMKJIE@?$AAa?$AAr?$AA?9?$AAo?$AAm?$AA?$AA@ 00000001401accf0     libucrt:lcidtoname_downlevel.obj
 0002:00006d00       ??_C@_1M@OEPGHFNH@?$AAa?$AAr?$AA?9?$AAq?$AAa?$AA?$AA@ 00000001401acd00     libucrt:lcidtoname_downlevel.obj
 0002:00006d10       ??_C@_1M@KJDONENM@?$AAa?$AAr?$AA?9?$AAs?$AAa?$AA?$AA@ 00000001401acd10     libucrt:lcidtoname_downlevel.obj
 0002:00006d20       ??_C@_1M@DMJDKLKM@?$AAa?$AAr?$AA?9?$AAs?$AAy?$AA?$AA@ 00000001401acd20     libucrt:lcidtoname_downlevel.obj
 0002:00006d30       ??_C@_1M@OMFIPEDC@?$AAa?$AAr?$AA?9?$AAt?$AAn?$AA?$AA@ 00000001401acd30     libucrt:lcidtoname_downlevel.obj
 0002:00006d40       ??_C@_1M@IHMHGAON@?$AAa?$AAr?$AA?9?$AAy?$AAe?$AA?$AA@ 00000001401acd40     libucrt:lcidtoname_downlevel.obj
 0002:00006d50       ??_C@_1BG@KDCPGJGB@?$AAa?$AAz?$AA?9?$AAa?$AAz?$AA?9?$AAc?$AAy?$AAr?$AAl?$AA?$AA@ 00000001401acd50     libucrt:lcidtoname_downlevel.obj
 0002:00006d68       ??_C@_1BG@IBCKDDOE@?$AAa?$AAz?$AA?9?$AAa?$AAz?$AA?9?$AAl?$AAa?$AAt?$AAn?$AA?$AA@ 00000001401acd68     libucrt:lcidtoname_downlevel.obj
 0002:00006d80       ??_C@_1M@EGPFDCPD@?$AAb?$AAe?$AA?9?$AAb?$AAy?$AA?$AA@ 00000001401acd80     libucrt:lcidtoname_downlevel.obj
 0002:00006d90       ??_C@_1M@PCMGMCGC@?$AAb?$AAg?$AA?9?$AAb?$AAg?$AA?$AA@ 00000001401acd90     libucrt:lcidtoname_downlevel.obj
 0002:00006da0       ??_C@_1M@BJBMFGOB@?$AAb?$AAn?$AA?9?$AAi?$AAn?$AA?$AA@ 00000001401acda0     libucrt:lcidtoname_downlevel.obj
 0002:00006db0       ??_C@_1BG@EAKMMACD@?$AAb?$AAs?$AA?9?$AAb?$AAa?$AA?9?$AAl?$AAa?$AAt?$AAn?$AA?$AA@ 00000001401acdb0     libucrt:lcidtoname_downlevel.obj
 0002:00006dc8       ??_C@_1M@KGADAODK@?$AAc?$AAa?$AA?9?$AAe?$AAs?$AA?$AA@ 00000001401acdc8     libucrt:lcidtoname_downlevel.obj
 0002:00006dd8       ??_C@_1M@COAJPDHI@?$AAc?$AAs?$AA?9?$AAc?$AAz?$AA?$AA@ 00000001401acdd8     libucrt:lcidtoname_downlevel.obj
 0002:00006de8       ??_C@_1M@DHBHFONH@?$AAc?$AAy?$AA?9?$AAg?$AAb?$AA?$AA@ 00000001401acde8     libucrt:lcidtoname_downlevel.obj
 0002:00006df8       ??_C@_1M@IMGKELGA@?$AAd?$AAa?$AA?9?$AAd?$AAk?$AA?$AA@ 00000001401acdf8     libucrt:lcidtoname_downlevel.obj
 0002:00006e08       ??_C@_1M@NNDGDNGA@?$AAd?$AAe?$AA?9?$AAa?$AAt?$AA?$AA@ 00000001401ace08     libucrt:lcidtoname_downlevel.obj
 0002:00006e18       ??_C@_1M@IKDBHEEM@?$AAd?$AAe?$AA?9?$AAc?$AAh?$AA?$AA@ 00000001401ace18     libucrt:lcidtoname_downlevel.obj
 0002:00006e28       ??_C@_1M@GFFOJMCJ@?$AAd?$AAe?$AA?9?$AAd?$AAe?$AA?$AA@ 00000001401ace28     libucrt:lcidtoname_downlevel.obj
 0002:00006e38       ??_C@_1M@MDNLKBPM@?$AAd?$AAe?$AA?9?$AAl?$AAi?$AA?$AA@ 00000001401ace38     libucrt:lcidtoname_downlevel.obj
 0002:00006e48       ??_C@_1M@NJBEEJNL@?$AAd?$AAe?$AA?9?$AAl?$AAu?$AA?$AA@ 00000001401ace48     libucrt:lcidtoname_downlevel.obj
 0002:00006e58       ??_C@_1O@GNNELBAP@?$AAd?$AAi?$AAv?$AA?9?$AAm?$AAv?$AA?$AA@ 00000001401ace58     libucrt:lcidtoname_downlevel.obj
 0002:00006e68       ??_C@_1M@EJLEOGAE@?$AAe?$AAl?$AA?9?$AAg?$AAr?$AA?$AA@ 00000001401ace68     libucrt:lcidtoname_downlevel.obj
 0002:00006e78       ??_C@_1M@GMPONJN@?$AAe?$AAn?$AA?9?$AAa?$AAu?$AA?$AA@ 00000001401ace78     libucrt:lcidtoname_downlevel.obj
 0002:00006e88       ??_C@_1M@NIDIIPGF@?$AAe?$AAn?$AA?9?$AAb?$AAz?$AA?$AA@ 00000001401ace88     libucrt:lcidtoname_downlevel.obj
 0002:00006e98       ??_C@_1M@JEHMIMFO@?$AAe?$AAn?$AA?9?$AAc?$AAa?$AA?$AA@ 00000001401ace98     libucrt:lcidtoname_downlevel.obj
 0002:00006ea8       ??_C@_1M@IGMJCDLA@?$AAe?$AAn?$AA?9?$AAc?$AAb?$AA?$AA@ 00000001401acea8     libucrt:lcidtoname_downlevel.obj
 0002:00006eb8       ??_C@_1M@BNFIGBKG@?$AAe?$AAn?$AA?9?$AAg?$AAb?$AA?$AA@ 00000001401aceb8     libucrt:lcidtoname_downlevel.obj
 0002:00006ec8       ??_C@_1M@LKIFDIGP@?$AAe?$AAn?$AA?9?$AAi?$AAe?$AA?$AA@ 00000001401acec8     libucrt:lcidtoname_downlevel.obj
 0002:00006ed8       ??_C@_1M@PJKFGCCO@?$AAe?$AAn?$AA?9?$AAj?$AAm?$AA?$AA@ 00000001401aced8     libucrt:lcidtoname_downlevel.obj
 0002:00006ee8       ??_C@_1M@KPPKEPBO@?$AAe?$AAn?$AA?9?$AAn?$AAz?$AA?$AA@ 00000001401acee8     libucrt:lcidtoname_downlevel.obj
 0002:00006ef8       ??_C@_1M@GMDGLDOB@?$AAe?$AAn?$AA?9?$AAp?$AAh?$AA?$AA@ 00000001401acef8     libucrt:lcidtoname_downlevel.obj
 0002:00006f08       ??_C@_1M@ONGIBJNA@?$AAe?$AAn?$AA?9?$AAt?$AAt?$AA?$AA@ 00000001401acf08     libucrt:lcidtoname_downlevel.obj
 0002:00006f18       ??_C@_1M@LLODPCMM@?$AAe?$AAn?$AA?9?$AAu?$AAs?$AA?$AA@ 00000001401acf18     libucrt:lcidtoname_downlevel.obj
 0002:00006f28       ??_C@_1M@LAKFNPAN@?$AAe?$AAn?$AA?9?$AAz?$AAa?$AA?$AA@ 00000001401acf28     libucrt:lcidtoname_downlevel.obj
 0002:00006f38       ??_C@_1M@MFNHNHEO@?$AAe?$AAn?$AA?9?$AAz?$AAw?$AA?$AA@ 00000001401acf38     libucrt:lcidtoname_downlevel.obj
 0002:00006f48       ??_C@_1M@EJEINPHM@?$AAe?$AAs?$AA?9?$AAa?$AAr?$AA?$AA@ 00000001401acf48     libucrt:lcidtoname_downlevel.obj
 0002:00006f58       ??_C@_1M@GNKPCCJA@?$AAe?$AAs?$AA?9?$AAb?$AAo?$AA?$AA@ 00000001401acf58     libucrt:lcidtoname_downlevel.obj
 0002:00006f68       ??_C@_1M@LEEGFONL@?$AAe?$AAs?$AA?9?$AAc?$AAl?$AA?$AA@ 00000001401acf68     libucrt:lcidtoname_downlevel.obj
 0002:00006f78       ??_C@_1M@KGPDPBDF@?$AAe?$AAs?$AA?9?$AAc?$AAo?$AA?$AA@ 00000001401acf78     libucrt:lcidtoname_downlevel.obj
 0002:00006f88       ??_C@_1M@EIAHOHH@?$AAe?$AAs?$AA?9?$AAc?$AAr?$AA?$AA@ 00000001401acf88     libucrt:lcidtoname_downlevel.obj
 0002:00006f98       ??_C@_1M@LLPGMBIN@?$AAe?$AAs?$AA?9?$AAd?$AAo?$AA?$AA@ 00000001401acf98     libucrt:lcidtoname_downlevel.obj
 0002:00006fa8       ??_C@_1M@DKHMKNJA@?$AAe?$AAs?$AA?9?$AAe?$AAc?$AA?$AA@ 00000001401acfa8     libucrt:lcidtoname_downlevel.obj
 0002:00006fb8       ??_C@_1M@GKGFPKAP@?$AAe?$AAs?$AA?9?$AAe?$AAs?$AA?$AA@ 00000001401acfb8     libucrt:lcidtoname_downlevel.obj
 0002:00006fc8       ??_C@_1M@LKHKGDLN@?$AAe?$AAs?$AA?9?$AAg?$AAt?$AA?$AA@ 00000001401acfc8     libucrt:lcidtoname_downlevel.obj
 0002:00006fd8       ??_C@_1M@HEIIGGJD@?$AAe?$AAs?$AA?9?$AAh?$AAn?$AA?$AA@ 00000001401acfd8     libucrt:lcidtoname_downlevel.obj
 0002:00006fe8       ??_C@_1M@FBDHPPGD@?$AAe?$AAs?$AA?9?$AAm?$AAx?$AA?$AA@ 00000001401acfe8     libucrt:lcidtoname_downlevel.obj
 0002:00006ff8       ??_C@_1M@DPAGLNDH@?$AAe?$AAs?$AA?9?$AAn?$AAi?$AA?$AA@ 00000001401acff8     libucrt:lcidtoname_downlevel.obj
 0002:00007008       ??_C@_1M@MDGOPGDD@?$AAe?$AAs?$AA?9?$AAp?$AAa?$AA?$AA@ 00000001401ad008     libucrt:lcidtoname_downlevel.obj
 0002:00007018       ??_C@_1M@EMAMGBGE@?$AAe?$AAs?$AA?9?$AAp?$AAe?$AA?$AA@ 00000001401ad018     libucrt:lcidtoname_downlevel.obj
 0002:00007028       ??_C@_1M@IBMCAOEC@?$AAe?$AAs?$AA?9?$AAp?$AAr?$AA?$AA@ 00000001401ad028     libucrt:lcidtoname_downlevel.obj
 0002:00007038       ??_C@_1M@FGMDIJED@?$AAe?$AAs?$AA?9?$AAp?$AAy?$AA?$AA@ 00000001401ad038     libucrt:lcidtoname_downlevel.obj
 0002:00007048       ??_C@_1M@IIDEOLLL@?$AAe?$AAs?$AA?9?$AAs?$AAv?$AA?$AA@ 00000001401ad048     libucrt:lcidtoname_downlevel.obj
 0002:00007058       ??_C@_1M@GAOBIPA@?$AAe?$AAs?$AA?9?$AAu?$AAy?$AA?$AA@ 00000001401ad058     libucrt:lcidtoname_downlevel.obj
 0002:00007068       ??_C@_1M@JKFFICHJ@?$AAe?$AAs?$AA?9?$AAv?$AAe?$AA?$AA@ 00000001401ad068     libucrt:lcidtoname_downlevel.obj
 0002:00007078       ??_C@_1M@PNMLOJDF@?$AAe?$AAt?$AA?9?$AAe?$AAe?$AA?$AA@ 00000001401ad078     libucrt:lcidtoname_downlevel.obj
 0002:00007088       ??_C@_1M@GHHLIKEI@?$AAe?$AAu?$AA?9?$AAe?$AAs?$AA?$AA@ 00000001401ad088     libucrt:lcidtoname_downlevel.obj
 0002:00007098       ??_C@_1M@PBNONODE@?$AAf?$AAa?$AA?9?$AAi?$AAr?$AA?$AA@ 00000001401ad098     libucrt:lcidtoname_downlevel.obj
 0002:000070a8       ??_C@_1M@JEEHPMIL@?$AAf?$AAi?$AA?9?$AAf?$AAi?$AA?$AA@ 00000001401ad0a8     libucrt:lcidtoname_downlevel.obj
 0002:000070b8       ??_C@_1M@LMDCNDBA@?$AAf?$AAo?$AA?9?$AAf?$AAo?$AA?$AA@ 00000001401ad0b8     libucrt:lcidtoname_downlevel.obj
 0002:000070c8       ??_C@_1M@JKEOHLDK@?$AAf?$AAr?$AA?9?$AAb?$AAe?$AA?$AA@ 00000001401ad0c8     libucrt:lcidtoname_downlevel.obj
 0002:000070d8       ??_C@_1M@NOHADPMI@?$AAf?$AAr?$AA?9?$AAc?$AAa?$AA?$AA@ 00000001401ad0d8     libucrt:lcidtoname_downlevel.obj
 0002:000070e8       ??_C@_1M@KDHIHAEC@?$AAf?$AAr?$AA?9?$AAc?$AAh?$AA?$AA@ 00000001401ad0e8     libucrt:lcidtoname_downlevel.obj
 0002:000070f8       ??_C@_1M@MMBBFGAK@?$AAf?$AAr?$AA?9?$AAf?$AAr?$AA?$AA@ 00000001401ad0f8     libucrt:lcidtoname_downlevel.obj
 0002:00007108       ??_C@_1M@PAFNENNF@?$AAf?$AAr?$AA?9?$AAl?$AAu?$AA?$AA@ 00000001401ad108     libucrt:lcidtoname_downlevel.obj
 0002:00007118       ??_C@_1M@EOHDJGDD@?$AAf?$AAr?$AA?9?$AAm?$AAc?$AA?$AA@ 00000001401ad118     libucrt:lcidtoname_downlevel.obj
 0002:00007128       ??_C@_1M@FAPLLOPF@?$AAg?$AAl?$AA?9?$AAe?$AAs?$AA?$AA@ 00000001401ad128     libucrt:lcidtoname_downlevel.obj
 0002:00007138       ??_C@_1M@FOPBFLOO@?$AAg?$AAu?$AA?9?$AAi?$AAn?$AA?$AA@ 00000001401ad138     libucrt:lcidtoname_downlevel.obj
 0002:00007148       ??_C@_1M@KBMCINPM@?$AAh?$AAe?$AA?9?$AAi?$AAl?$AA?$AA@ 00000001401ad148     libucrt:lcidtoname_downlevel.obj
 0002:00007158       ??_C@_1M@BBPHKFPJ@?$AAh?$AAi?$AA?9?$AAi?$AAn?$AA?$AA@ 00000001401ad158     libucrt:lcidtoname_downlevel.obj
 0002:00007168       ??_C@_1M@PMBNDPHD@?$AAh?$AAr?$AA?9?$AAb?$AAa?$AA?$AA@ 00000001401ad168     libucrt:lcidtoname_downlevel.obj
 0002:00007178       ??_C@_1M@BPCKOEGE@?$AAh?$AAr?$AA?9?$AAh?$AAr?$AA?$AA@ 00000001401ad178     libucrt:lcidtoname_downlevel.obj
 0002:00007188       ??_C@_1M@GACBMHKE@?$AAh?$AAu?$AA?9?$AAh?$AAu?$AA?$AA@ 00000001401ad188     libucrt:lcidtoname_downlevel.obj
 0002:00007198       ??_C@_1M@MILPAJJC@?$AAh?$AAy?$AA?9?$AAa?$AAm?$AA?$AA@ 00000001401ad198     libucrt:lcidtoname_downlevel.obj
 0002:000071a8       ??_C@_1M@BABBICEC@?$AAi?$AAd?$AA?9?$AAi?$AAd?$AA?$AA@ 00000001401ad1a8     libucrt:lcidtoname_downlevel.obj
 0002:000071b8       ??_C@_1M@BIKNHHPF@?$AAi?$AAs?$AA?9?$AAi?$AAs?$AA?$AA@ 00000001401ad1b8     libucrt:lcidtoname_downlevel.obj
 0002:000071c8       ??_C@_1M@NMPCJPHE@?$AAi?$AAt?$AA?9?$AAc?$AAh?$AA?$AA@ 00000001401ad1c8     libucrt:lcidtoname_downlevel.obj
 0002:000071d8       ??_C@_1M@GHKGFEDF@?$AAi?$AAt?$AA?9?$AAi?$AAt?$AA?$AA@ 00000001401ad1d8     libucrt:lcidtoname_downlevel.obj
 0002:000071e8       ??_C@_1M@NIEJCJJA@?$AAj?$AAa?$AA?9?$AAj?$AAp?$AA?$AA@ 00000001401ad1e8     libucrt:lcidtoname_downlevel.obj
 0002:000071f8       ??_C@_1M@JILFNBIM@?$AAk?$AAa?$AA?9?$AAg?$AAe?$AA?$AA@ 00000001401ad1f8     libucrt:lcidtoname_downlevel.obj
 0002:00007208       ??_C@_1M@PACPMGPH@?$AAk?$AAk?$AA?9?$AAk?$AAz?$AA?$AA@ 00000001401ad208     libucrt:lcidtoname_downlevel.obj
 0002:00007218       ??_C@_1M@IELFGMHA@?$AAk?$AAn?$AA?9?$AAi?$AAn?$AA?$AA@ 00000001401ad218     libucrt:lcidtoname_downlevel.obj
 0002:00007228       ??_C@_1O@IBBJHCH@?$AAk?$AAo?$AAk?$AA?9?$AAi?$AAn?$AA?$AA@ 00000001401ad228     libucrt:lcidtoname_downlevel.obj
 0002:00007238       ??_C@_1M@DMHAEOGC@?$AAk?$AAo?$AA?9?$AAk?$AAr?$AA?$AA@ 00000001401ad238     libucrt:lcidtoname_downlevel.obj
 0002:00007248       ??_C@_1M@HBAHBIGA@?$AAk?$AAy?$AA?9?$AAk?$AAg?$AA?$AA@ 00000001401ad248     libucrt:lcidtoname_downlevel.obj
 0002:00007258       ??_C@_1M@KPMILCJG@?$AAl?$AAt?$AA?9?$AAl?$AAt?$AA?$AA@ 00000001401ad258     libucrt:lcidtoname_downlevel.obj
 0002:00007268       ??_C@_1M@BDEKKCA@?$AAl?$AAv?$AA?9?$AAl?$AAv?$AA?$AA@ 00000001401ad268     libucrt:lcidtoname_downlevel.obj
 0002:00007278       ??_C@_1M@ELCKCCJJ@?$AAm?$AAi?$AA?9?$AAn?$AAz?$AA?$AA@ 00000001401ad278     libucrt:lcidtoname_downlevel.obj
 0002:00007288       ??_C@_1M@CBOOLAPA@?$AAm?$AAk?$AA?9?$AAm?$AAk?$AA?$AA@ 00000001401ad288     libucrt:lcidtoname_downlevel.obj
 0002:00007298       ??_C@_1M@GPHNBJKN@?$AAm?$AAl?$AA?9?$AAi?$AAn?$AA?$AA@ 00000001401ad298     libucrt:lcidtoname_downlevel.obj
 0002:000072a8       ??_C@_1M@PABJILIG@?$AAm?$AAn?$AA?9?$AAm?$AAn?$AA?$AA@ 00000001401ad2a8     libucrt:lcidtoname_downlevel.obj
 0002:000072b8       ??_C@_1M@FGBKKIPG@?$AAm?$AAr?$AA?9?$AAi?$AAn?$AA?$AA@ 00000001401ad2b8     libucrt:lcidtoname_downlevel.obj
 0002:000072c8       ??_C@_1M@NDBPDDAL@?$AAm?$AAs?$AA?9?$AAb?$AAn?$AA?$AA@ 00000001401ad2c8     libucrt:lcidtoname_downlevel.obj
 0002:000072d8       ??_C@_1M@OPIHOOPI@?$AAm?$AAs?$AA?9?$AAm?$AAy?$AA?$AA@ 00000001401ad2d8     libucrt:lcidtoname_downlevel.obj
